 main

 Timestamp is 65216683 (Sat Oct  7 17:09:07 2023)

 Preferred load address is 0000000140000000

 Start         Length     Name                   Class
 0001:00000000 00000270H .text$di                CODE
 0001:00000270 00033fd0H .text$mn                CODE
 0001:00034240 00000040H .text$mn$00             CODE
 0001:00034280 00000f90H .text$x                 CODE
 0001:00035210 000001ccH .text$yd                CODE
 0002:00000000 00000288H .idata$5                DATA
 0002:00000288 00000038H .00cfg                  DATA
 0002:000002c0 00000008H .CRT$XCA                DATA
 0002:000002c8 00000008H .CRT$XCAA               DATA
 0002:000002d0 00000058H .CRT$XCC                DATA
 0002:00000328 00000010H .CRT$XCL                DATA
 0002:00000338 00000018H .CRT$XCU                DATA
 0002:00000350 00000008H .CRT$XCZ                DATA
 0002:00000358 00000008H .CRT$XIA                DATA
 0002:00000360 00000008H .CRT$XIAA               DATA
 0002:00000368 00000008H .CRT$XIAC               DATA
 0002:00000370 00000028H .CRT$XIC                DATA
 0002:00000398 00000008H .CRT$XIZ                DATA
 0002:000003a0 00000008H .CRT$XPA                DATA
 0002:000003a8 00000010H .CRT$XPX                DATA
 0002:000003b8 00000008H .CRT$XPXA               DATA
 0002:000003c0 00000008H .CRT$XPZ                DATA
 0002:000003c8 00000008H .CRT$XTA                DATA
 0002:000003d0 00000010H .CRT$XTZ                DATA
 0002:000003d8 00000000H .gehcont$y              DATA
 0002:000003d8 00000000H .gfids$y                DATA
 0002:000003e0 0000e820H .rdata                  DATA
 0002:0000ec00 00000000H .rdata$CastGuardVftablesA DATA
 0002:0000ec00 00000000H .rdata$CastGuardVftablesC DATA
 0002:0000ec00 00001174H .rdata$r                DATA
 0002:0000fd74 00000228H .rdata$voltmd           DATA
 0002:0000ff9c 0000035cH .rdata$zzzdbg           DATA
 0002:000102f8 00000008H .rtc$IAA                DATA
 0002:00010300 00000008H .rtc$IZZ                DATA
 0002:00010308 00000008H .rtc$TAA                DATA
 0002:00010310 00000008H .rtc$TZZ                DATA
 0002:00010318 00002660H .xdata                  DATA
 0002:00012978 000003ccH .xdata$x                DATA
 0002:00012d44 00000000H .edata                  DATA
 0002:00012d44 00000014H .idata$2                DATA
 0002:00012d58 00000018H .idata$3                DATA
 0002:00012d70 00000288H .idata$4                DATA
 0002:00012ff8 000005e4H .idata$6                DATA
 0003:00000000 00000c40H .data                   DATA
 0003:00000c40 000001f0H .data$r                 DATA
 0003:00000e30 000004b0H .data$rs                DATA
 0003:000012e0 00001938H .bss                    DATA
 0004:00000000 00002f4cH .pdata                  DATA
 0005:00000000 0000015cH _RDATA                  DATA

  Address         Publics by Value              Rva+Base               Lib:Object

 0000:00000000       __AbsoluteZero             0000000000000000     <absolute>
 0000:00000000       ___safe_se_handler_count   0000000000000000     <absolute>
 0000:00000000       ___safe_se_handler_table   0000000000000000     <absolute>
 0000:00000000       __arm64x_extra_rfe_table   0000000000000000     <absolute>
 0000:00000000       __arm64x_extra_rfe_table_size 0000000000000000     <absolute>
 0000:00000000       __arm64x_native_entrypoint 0000000000000000     <absolute>
 0000:00000000       __arm64x_redirection_metadata 0000000000000000     <absolute>
 0000:00000000       __arm64x_redirection_metadata_count 0000000000000000     <absolute>
 0000:00000000       __dynamic_value_reloc_table 0000000000000000     <absolute>
 0000:00000000       __enclave_config           0000000000000000     <absolute>
 0000:00000000       __guard_check_icall_a64n_fptr 0000000000000000     <absolute>
 0000:00000000       __guard_eh_cont_count      0000000000000000     <absolute>
 0000:00000000       __guard_eh_cont_table      0000000000000000     <absolute>
 0000:00000000       __guard_fids_count         0000000000000000     <absolute>
 0000:00000000       __guard_fids_table         0000000000000000     <absolute>
 0000:00000000       __guard_iat_count          0000000000000000     <absolute>
 0000:00000000       __guard_iat_table          0000000000000000     <absolute>
 0000:00000000       __guard_longjmp_count      0000000000000000     <absolute>
 0000:00000000       __guard_longjmp_table      0000000000000000     <absolute>
 0000:00000000       __hybrid_auxiliary_iat     0000000000000000     <absolute>
 0000:00000000       __hybrid_auxiliary_iat_copy 0000000000000000     <absolute>
 0000:00000000       __hybrid_code_map          0000000000000000     <absolute>
 0000:00000000       __hybrid_code_map_count    0000000000000000     <absolute>
 0000:00000000       __x64_code_ranges_to_entry_points 0000000000000000     <absolute>
 0000:00000000       __x64_code_ranges_to_entry_points_count 0000000000000000     <absolute>
 0000:00000100       __guard_flags              0000000000000100     <absolute>
 0000:00000000       __ImageBase                0000000140000000     <linker-defined>
 0001:00000270       ?speed@@YANNN@Z            0000000140001270 f   main.obj
 0001:00000290       ?time@@YANNN@Z             0000000140001290 f   main.obj
 0001:000002b0       ?dist@@YANNN@Z             00000001400012b0 f   main.obj
 0001:000002d0       main                       00000001400012d0 f   main.obj
 0001:000004f0       ??$?0$$V@?$_Compressed_pair@V?$allocator@D@std@@V?$_String_val@U?$_Simple_types@D@std@@@2@$00@std@@QEAA@U_Zero_then_variadic_args_t@1@@Z 00000001400014f0 f i main.obj
 0001:00000520       ??$?0AEAPEAV_Facet_base@std@@@?$_Compressed_pair@U?$default_delete@V_Facet_base@std@@@std@@PEAV_Facet_base@2@$00@std@@QEAA@U_Zero_then_variadic_args_t@1@AEAPEAV_Facet_base@1@@Z 0000000140001520 f i main.obj
 0001:00000560       ??$?0U?$default_delete@V_Facet_base@std@@@std@@$0A@@?$unique_ptr@V_Facet_base@std@@U?$default_delete@V_Facet_base@std@@@2@@std@@QEAA@PEAV_Facet_base@1@@Z 0000000140001560 f i main.obj
 0001:00000590       ??$?0V?$allocator@D@std@@$$V@?$_Compressed_pair@V?$allocator@D@std@@V?$_String_val@U?$_Simple_types@D@std@@@2@$00@std@@QEAA@U_One_then_variadic_args_t@1@$$QEAV?$allocator@D@1@@Z 0000000140001590 f i main.obj
 0001:000005d0       ??$?6U?$char_traits@D@std@@@std@@YAAEAV?$basic_ostream@DU?$char_traits@D@std@@@0@AEAV10@PEBD@Z 00000001400015d0 f i main.obj
 0001:00000970       ??$?8DU?$char_traits@D@std@@@std@@YA_NAEBV?$istreambuf_iterator@DU?$char_traits@D@std@@@0@0@Z 0000000140001970 f i main.obj
 0001:000009a0       ??$?9DU?$char_traits@D@std@@@std@@YA_NAEBV?$istreambuf_iterator@DU?$char_traits@D@std@@@0@0@Z 00000001400019a0 f i main.obj
 0001:000009e0       ??$_Adl_verify_range@PEADPEBD@std@@YAXAEBQEADAEBQEBD@Z 00000001400019e0 f i main.obj
 0001:000009e0       ??$_Adl_verify_range@PEBDPEBD@std@@YAXAEBQEBD0@Z 00000001400019e0 f i main.obj
 0001:000009e0       ??$_Adl_verify_range@V?$istreambuf_iterator@DU?$char_traits@D@std@@@std@@V12@@std@@YAXAEBV?$istreambuf_iterator@DU?$char_traits@D@std@@@0@0@Z 00000001400019e0 f i main.obj
 0001:000009e0       ?_Alloc_proxy@_Container_base0@std@@QEAAXAEBU_Fake_allocator@2@@Z 00000001400019e0 f i main.obj
 0001:000009e0       ?_Init@?$num_get@DV?$istreambuf_iterator@DU?$char_traits@D@std@@@std@@@std@@IEAAXAEBV_Locinfo@2@@Z 00000001400019e0 f i main.obj
 0001:000009e0       ?_Init@?$num_put@DV?$ostreambuf_iterator@DU?$char_traits@D@std@@@std@@@std@@IEAAXAEBV_Locinfo@2@@Z 00000001400019e0 f i main.obj
 0001:000009e0       ?_Swap_proxy_and_iterators@_Container_base0@std@@QEAAXAEAU12@@Z 00000001400019e0 f i main.obj
 0001:000009f0       ??$_Allocate@$0BA@U_Default_allocate_traits@std@@$0A@@std@@YAPEAX_K@Z 00000001400019f0 f i main.obj
 0001:00000a30       ??$_Allocate_manually_vector_aligned@U_Default_allocate_traits@std@@@std@@YAPEAX_K@Z 0000000140001a30 f i main.obj
 0001:00000ac0       ??$_Common_extract_with_num_get@J@?$basic_istream@DU?$char_traits@D@std@@@std@@AEAAAEAV01@AEAJ@Z 0000000140001ac0 f i main.obj
 0001:00000c70       ??$_Common_extract_with_num_get@N@?$basic_istream@DU?$char_traits@D@std@@@std@@AEAAAEAV01@AEAN@Z 0000000140001c70 f i main.obj
 0001:00000e20       ??$_Construct@$00PEBD@?$basic_string@DU?$char_traits@D@std@@V?$allocator@D@2@@std@@AEAAXQEBD_K@Z 0000000140001e20 f i main.obj
 0001:00000fc0       ??$_Construct@$01PEBD@?$basic_string@DU?$char_traits@D@std@@V?$allocator@D@2@@std@@AEAAXQEBD_K@Z 0000000140001fc0 f i main.obj
 0001:00001140       ??$_Construct@$0A@D@?$basic_string@DU?$char_traits@D@std@@V?$allocator@D@2@@std@@AEAAXD_K@Z 0000000140002140 f i main.obj
 0001:000012f0       ??$_Construct_in_place@PEADAEAPEAD@std@@YAXAEAPEAD0@Z 00000001400022f0 f i main.obj
 0001:000012f0       ??$_Construct_in_place@PEADAEBQEAD@std@@YAXAEAPEADAEBQEAD@Z 00000001400022f0 f i main.obj
 0001:00001340       ??$_Convert_size@_K@std@@YA_K_K@Z 0000000140002340 f i main.obj
 0001:00001340       ??$_Unfancy@D@std@@YAPEADPEAD@Z 0000000140002340 f i main.obj
 0001:00001340       ??$_Voidify_iter@PEAPEAD@std@@YAPEAXPEAPEAD@Z 0000000140002340 f i main.obj
 0001:00001340       ??$addressof@$$CBV?$_String_val@U?$_Simple_types@D@std@@@std@@@std@@YAPEBV?$_String_val@U?$_Simple_types@D@std@@@0@AEBV10@@Z 0000000140002340 f i main.obj
 0001:00001340       ??$addressof@PEAD@std@@YAPEAPEADAEAPEAD@Z 0000000140002340 f i main.obj
 0001:00001340       ??$addressof@V?$_String_val@U?$_Simple_types@D@std@@@std@@@std@@YAPEAV?$_String_val@U?$_Simple_types@D@std@@@0@AEAV10@@Z 0000000140002340 f i main.obj
 0001:00001340       ??$addressof@V?$basic_string@DU?$char_traits@D@std@@V?$allocator@D@2@@std@@@std@@YAPEAV?$basic_string@DU?$char_traits@D@std@@V?$allocator@D@2@@0@AEAV10@@Z 0000000140002340 f i main.obj
 0001:00001340       ??$begin@$$CBD$0BL@@std@@YAPEBDAEAY0BL@$$CBD@Z 0000000140002340 f i main.obj
 0001:00001340       ??$begin@$$CBD$0BN@@std@@YAPEBDAEAY0BN@$$CBD@Z 0000000140002340 f i main.obj
 0001:00001340       ??$begin@$$CBD$0P@@std@@YAPEBDAEAY0P@$$CBD@Z 0000000140002340 f i main.obj
 0001:00001340       ??$forward@AEAPEAD@std@@YAAEAPEADAEAPEAD@Z 0000000140002340 f i main.obj
 0001:00001340       ??$forward@AEAPEAV_Facet_base@std@@@std@@YAAEAPEAV_Facet_base@0@AEAPEAV10@@Z 0000000140002340 f i main.obj
 0001:00001340       ??$forward@AEBQEAD@std@@YAAEBQEADAEBQEAD@Z 0000000140002340 f i main.obj
 0001:00001340       ??$forward@V?$allocator@D@std@@@std@@YA$$QEAV?$allocator@D@0@AEAV10@@Z 0000000140002340 f i main.obj
 0001:00001340       ??$move@AEAV?$allocator@D@std@@@std@@YA$$QEAV?$allocator@D@0@AEAV10@@Z 0000000140002340 f i main.obj
 0001:00001340       ??$move@AEAV?$basic_string@DU?$char_traits@D@std@@V?$allocator@D@2@@std@@@std@@YA$$QEAV?$basic_string@DU?$char_traits@D@std@@V?$allocator@D@2@@0@AEAV10@@Z 0000000140002340 f i main.obj
 0001:00001340       ??0?$allocator@D@std@@QEAA@XZ 0000000140002340 f i main.obj
 0001:00001340       ??D?$ostreambuf_iterator@DU?$char_traits@D@std@@@std@@QEAAAEAV01@XZ 0000000140002340 f i main.obj
 0001:00001340       ??E?$ostreambuf_iterator@DU?$char_traits@D@std@@@std@@QEAAAEAV01@XZ 0000000140002340 f i main.obj
 0001:00001340       ?_Get_first@?$_Compressed_pair@U?$default_delete@V_Facet_base@std@@@std@@PEAV_Facet_base@2@$00@std@@QEAAAEAU?$default_delete@V_Facet_base@std@@@2@XZ 0000000140002340 f i main.obj
 0001:00001340       ?_Get_first@?$_Compressed_pair@V?$allocator@D@std@@V?$_String_val@U?$_Simple_types@D@std@@@2@$00@std@@QEAAAEAV?$allocator@D@2@XZ 0000000140002340 f i main.obj
 0001:00001340       ?_Get_first@?$_Compressed_pair@V?$allocator@D@std@@V?$_String_val@U?$_Simple_types@D@std@@@2@$00@std@@QEBAAEBV?$allocator@D@2@XZ 0000000140002340 f i main.obj
 0001:00001350       ??$_Deallocate@$0BA@$0A@@std@@YAXPEAX_K@Z 0000000140002350 f i main.obj
 0001:00001390       ??$_Destroy_in_place@PEAD@std@@YAXAEAPEAD@Z 0000000140002390 f i main.obj
 0001:00001390       ??1_Bxty@?$_String_val@U?$_Simple_types@D@std@@@std@@QEAA@XZ 0000000140002390 f i main.obj
 0001:00001390       ??1error_category@std@@UEAA@XZ 0000000140002390 f i main.obj
 0001:00001390       ?_Orphan_all@_Container_base0@std@@QEAAXXZ 0000000140002390 f i main.obj
 0001:00001390       ?_Release@_Fake_proxy_ptr_impl@std@@QEAAXXZ 0000000140002390 f i main.obj
 0001:000013a0       ??$_Find_elem@D$0BL@@std@@YA_KAEAY0BL@$$CBDD@Z 00000001400023a0 f i main.obj
 0001:000013e0       ??$_Find_elem@D$0BN@@std@@YA_KAEAY0BN@$$CBDD@Z 00000001400023e0 f i main.obj
 0001:00001420       ??$_Find_elem@D$0P@@std@@YA_KAEAY0P@$$CBDD@Z 0000000140002420 f i main.obj
 0001:00001460       ??$_Find_unchecked@PEBDD@std@@YAPEBDPEBDQEBDAEBD@Z 0000000140002460 f i main.obj
 0001:00001510       ??$_Float_put_desired_precision@N@std@@YAH_JH@Z 0000000140002510 f i main.obj
 0001:00001510       ??$_Float_put_desired_precision@O@std@@YAH_JH@Z 0000000140002510 f i main.obj
 0001:000015b0       ??$_Get_size_of_n@$00@std@@YA_K_K@Z 00000001400025b0 f i main.obj
 0001:000015d0       ??$_Getloctxt@V?$istreambuf_iterator@DU?$char_traits@D@std@@@std@@D@std@@YAHAEAV?$istreambuf_iterator@DU?$char_traits@D@std@@@0@0_KPEBDW4_Case_sensitive@0@@Z 00000001400025d0 f i main.obj
 0001:00001a10       ??$_Getvals@D@?$numpunct@D@std@@IEAAXDPEBUlconv@@U_Cvtvec@@@Z 0000000140002a10 f i main.obj
 0001:00001a80       ??$_Immortalize_memcpy_image@V_Iostream_error_category2@std@@@std@@YAAEBV_Iostream_error_category2@0@XZ 0000000140002a80 f i main.obj
 0001:00001a90       ??$_Maklocchr@D@std@@YADDPEADAEBU_Cvtvec@@@Z 0000000140002a90 f i main.obj
 0001:00001ab0       ??$_Maklocstr@D@std@@YAPEADPEBDPEADAEBU_Cvtvec@@@Z 0000000140002ab0 f i main.obj
 0001:00001b50       ??$_Pocma@V?$allocator@D@std@@@std@@YAXAEAV?$allocator@D@0@0@Z 0000000140002b50 f i main.obj
 0001:00001b70       ??$_Reallocate_grow_by@V<lambda_319d5e083f45f90dcdce5dce53cbb275>@@D@?$basic_string@DU?$char_traits@D@std@@V?$allocator@D@2@@std@@AEAAAEAV01@_KV<lambda_319d5e083f45f90dcdce5dce53cbb275>@@D@Z 0000000140002b70 f i main.obj
 0001:00001d20       ??$_Reallocate_grow_by@V<lambda_65e615be2a453ca0576c979606f46740>@@PEBD_K@?$basic_string@DU?$char_traits@D@std@@V?$allocator@D@2@@std@@AEAAAEAV01@_KV<lambda_65e615be2a453ca0576c979606f46740>@@PEBD_K@Z 0000000140002d20 f i main.obj
 0001:00001ef0       ??$_Reallocate_grow_by@V<lambda_b986da8d428e4af07c64af60eec09b61>@@_K_KD@?$basic_string@DU?$char_traits@D@std@@V?$allocator@D@2@@std@@AEAAAEAV01@_KV<lambda_b986da8d428e4af07c64af60eec09b61>@@_K2D@Z 0000000140002ef0 f i main.obj
 0001:000020f0       ??$_Reallocate_grow_by@V<lambda_e1befb086ad3257e3f042a63030725f7>@@_KD@?$basic_string@DU?$char_traits@D@std@@V?$allocator@D@2@@std@@AEAAAEAV01@_KV<lambda_e1befb086ad3257e3f042a63030725f7>@@_KD@Z 00000001400030f0 f i main.obj
 0001:000022c0       ??$_To_address@PEBD@std@@YA?A_PAEBQEBD@Z 00000001400032c0 f i main.obj
 0001:000022d0       ??$_Within_limits@PEBDD@std@@YA_NAEBQEBDAEBD@Z 00000001400032d0 f i main.obj
 0001:00002320       ??$__std_find_trivial@$$CBDD@@YAPEBDPEBD0D@Z 0000000140003320 f i main.obj
 0001:00002350       ??$end@$$CBD$0BL@@std@@YAPEBDAEAY0BL@$$CBD@Z 0000000140003350 f i main.obj
 0001:00002360       ??$end@$$CBD$0BN@@std@@YAPEBDAEAY0BN@$$CBD@Z 0000000140003360 f i main.obj
 0001:00002370       ??$end@$$CBD$0P@@std@@YAPEBDAEAY0P@$$CBD@Z 0000000140003370 f i main.obj
 0001:00002380       ??$exchange@PEAV_Facet_base@std@@$$T@std@@YAPEAV_Facet_base@0@AEAPEAV10@$$QEA$$T@Z 0000000140003380 f i main.obj
 0001:000023c0       ??$max@_K@std@@YAAEB_KAEB_K0@Z 00000001400033c0 f i main.obj
 0001:00002410       ??$min@_K@std@@YAAEB_KAEB_K0@Z 0000000140003410 f i main.obj
 0001:00002460       ??$use_facet@V?$ctype@D@std@@@std@@YAAEBV?$ctype@D@0@AEBVlocale@0@@Z 0000000140003460 f i main.obj
 0001:00002570       ??$use_facet@V?$num_get@DV?$istreambuf_iterator@DU?$char_traits@D@std@@@std@@@std@@@std@@YAAEBV?$num_get@DV?$istreambuf_iterator@DU?$char_traits@D@std@@@std@@@0@AEBVlocale@0@@Z 0000000140003570 f i main.obj
 0001:00002680       ??$use_facet@V?$num_put@DV?$ostreambuf_iterator@DU?$char_traits@D@std@@@std@@@std@@@std@@YAAEBV?$num_put@DV?$ostreambuf_iterator@DU?$char_traits@D@std@@@std@@@0@AEBVlocale@0@@Z 0000000140003680 f i main.obj
 0001:00002790       ??$use_facet@V?$numpunct@D@std@@@std@@YAAEBV?$numpunct@D@0@AEBVlocale@0@@Z 0000000140003790 f i main.obj
 0001:000028a0       ??0?$_String_val@U?$_Simple_types@D@std@@@std@@QEAA@XZ 00000001400038a0 f i main.obj
 0001:000028e0       ??0?$_Yarn@D@std@@QEAA@XZ  00000001400038e0 f i main.obj
 0001:00002900       ??0?$_Yarn@_W@std@@QEAA@XZ 0000000140003900 f i main.obj
 0001:00002930       ??0?$basic_string@DU?$char_traits@D@std@@V?$allocator@D@2@@std@@QEAA@$$QEAV01@@Z 0000000140003930 f i main.obj
 0001:00002990       ??0?$basic_string@DU?$char_traits@D@std@@V?$allocator@D@2@@std@@QEAA@AEBV01@@Z 0000000140003990 f i main.obj
 0001:00002a00       ??0?$basic_string@DU?$char_traits@D@std@@V?$allocator@D@2@@std@@QEAA@QEBD@Z 0000000140003a00 f i main.obj
 0001:00002a50       ??0?$basic_string@DU?$char_traits@D@std@@V?$allocator@D@2@@std@@QEAA@QEBD_K@Z 0000000140003a50 f i main.obj
 0001:00002aa0       ??0?$basic_string@DU?$char_traits@D@std@@V?$allocator@D@2@@std@@QEAA@XZ 0000000140003aa0 f i main.obj
 0001:00002af0       ??0?$basic_string@DU?$char_traits@D@std@@V?$allocator@D@2@@std@@QEAA@_KD@Z 0000000140003af0 f i main.obj
 0001:00002b40       ??0?$ctype@D@std@@QEAA@AEBV_Locinfo@1@_K@Z 0000000140003b40 f i main.obj
 0001:00002b90       ??0?$istreambuf_iterator@DU?$char_traits@D@std@@@std@@QEAA@AEAV?$basic_istream@DU?$char_traits@D@std@@@1@@Z 0000000140003b90 f i main.obj
 0001:00002c10       ??0?$istreambuf_iterator@DU?$char_traits@D@std@@@std@@QEAA@XZ 0000000140003c10 f i main.obj
 0001:00002c40       ??0?$num_get@DV?$istreambuf_iterator@DU?$char_traits@D@std@@@std@@@std@@QEAA@AEBV_Locinfo@1@_K@Z 0000000140003c40 f i main.obj
 0001:00002c90       ??0?$num_put@DV?$ostreambuf_iterator@DU?$char_traits@D@std@@@std@@@std@@QEAA@AEBV_Locinfo@1@_K@Z 0000000140003c90 f i main.obj
 0001:00002ce0       ??0?$numpunct@D@std@@QEAA@AEBV_Locinfo@1@_K_N@Z 0000000140003ce0 f i main.obj
 0001:00002d40       ??0?$ostreambuf_iterator@DU?$char_traits@D@std@@@std@@QEAA@PEAV?$basic_streambuf@DU?$char_traits@D@std@@@1@@Z 0000000140003d40 f i main.obj
 0001:00002d70       ??0_Bxty@?$_String_val@U?$_Simple_types@D@std@@@std@@QEAA@XZ 0000000140003d70 f i main.obj
 0001:00002d90       ??0_Facet_base@std@@QEAA@XZ 0000000140003d90 f i main.obj
 0001:00002db0       ??0_Fake_proxy_ptr_impl@std@@QEAA@AEBU_Fake_allocator@1@AEBU_Container_base0@1@@Z 0000000140003db0 f i main.obj
 0001:00002dd0       ??0_Locinfo@std@@QEAA@PEBD@Z 0000000140003dd0 f i main.obj
 0001:00002e90       ??0_Sentry_base@?$basic_istream@DU?$char_traits@D@std@@@std@@QEAA@AEAV12@@Z 0000000140003e90 f i main.obj
 0001:00002e90       ??0_Sentry_base@?$basic_ostream@DU?$char_traits@D@std@@@std@@QEAA@AEAV12@@Z 0000000140003e90 f i main.obj
 0001:00002f00       ??0_System_error@std@@IEAA@Verror_code@1@AEBV?$basic_string@DU?$char_traits@D@std@@V?$allocator@D@2@@1@@Z 0000000140003f00 f i main.obj
 0001:00003000       ??0_System_error@std@@QEAA@AEBV01@@Z 0000000140004000 f i main.obj
 0001:00003060       ??0bad_alloc@std@@AEAA@QEBD@Z 0000000140004060 f i main.obj
 0001:000030a0       ??0bad_alloc@std@@QEAA@AEBV01@@Z 00000001400040a0 f i main.obj
 0001:000030e0       ??0bad_array_new_length@std@@QEAA@AEBV01@@Z 00000001400040e0 f i main.obj
 0001:00003120       ??0bad_array_new_length@std@@QEAA@XZ 0000000140004120 f i main.obj
 0001:00003160       ??0bad_cast@std@@QEAA@AEBV01@@Z 0000000140004160 f i main.obj
 0001:000031a0       ??0bad_cast@std@@QEAA@XZ   00000001400041a0 f i main.obj
 0001:000031e0       ??0ctype_base@std@@QEAA@_K@Z 00000001400041e0 f i main.obj
 0001:00003220       ??0error_code@std@@QEAA@HAEBVerror_category@1@@Z 0000000140004220 f i main.obj
 0001:00003220       ??0error_condition@std@@QEAA@HAEBVerror_category@1@@Z 0000000140004220 f i main.obj
 0001:00003250       ??0exception@std@@QEAA@AEBV01@@Z 0000000140004250 f i main.obj
 0001:000032b0       ??0exception@std@@QEAA@QEBD@Z 00000001400042b0 f i main.obj
 0001:00003320       ??0exception@std@@QEAA@QEBDH@Z 0000000140004320 f i main.obj
 0001:00003370       ??0facet@locale@std@@IEAA@_K@Z 0000000140004370 f i main.obj
 0001:000033b0       ??0failure@ios_base@std@@QEAA@AEBV012@@Z 00000001400043b0 f i main.obj
 0001:000033f0       ??0failure@ios_base@std@@QEAA@PEBDAEBVerror_code@2@@Z 00000001400043f0 f i main.obj
 0001:00003450       ??0id@locale@std@@QEAA@_K@Z 0000000140004450 f i main.obj
 0001:00003470       ??0locale@std@@QEAA@AEBV01@@Z 0000000140004470 f i main.obj
 0001:000034c0       ??0locale@std@@QEAA@XZ     00000001400044c0 f i main.obj
 0001:000034f0       ??0runtime_error@std@@QEAA@AEBV01@@Z 00000001400044f0 f i main.obj
 0001:00003530       ??0runtime_error@std@@QEAA@AEBV?$basic_string@DU?$char_traits@D@std@@V?$allocator@D@2@@1@@Z 0000000140004530 f i main.obj
 0001:00003570       ??0sentry@?$basic_istream@DU?$char_traits@D@std@@@std@@QEAA@AEAV12@_N@Z 0000000140004570 f i main.obj
 0001:000035c0       ??0sentry@?$basic_ostream@DU?$char_traits@D@std@@@std@@QEAA@AEAV12@@Z 00000001400045c0 f i main.obj
 0001:00003690       ??0system_error@std@@QEAA@AEBV01@@Z 0000000140004690 f i main.obj
 0001:000036d0       ??0system_error@std@@QEAA@Verror_code@1@PEBD@Z 00000001400046d0 f i main.obj
 0001:00003770       ??1?$_Compressed_pair@V?$allocator@D@std@@V?$_String_val@U?$_Simple_types@D@std@@@2@$00@std@@QEAA@XZ 0000000140004770 f i main.obj
 0001:00003790       ??1?$_String_val@U?$_Simple_types@D@std@@@std@@QEAA@XZ 0000000140004790 f i main.obj
 0001:000037b0       ??1?$_Tidy_guard@V?$numpunct@D@std@@@std@@QEAA@XZ 00000001400047b0 f i main.obj
 0001:000037e0       ??1?$_Yarn@D@std@@QEAA@XZ  00000001400047e0 f i main.obj
 0001:000037e0       ??1?$_Yarn@_W@std@@QEAA@XZ 00000001400047e0 f i main.obj
 0001:00003800       ??1?$basic_string@DU?$char_traits@D@std@@V?$allocator@D@2@@std@@QEAA@XZ 0000000140004800 f i main.obj
 0001:00003830       ??1?$ctype@D@std@@MEAA@XZ  0000000140004830 f i main.obj
 0001:00003870       ??1?$num_get@DV?$istreambuf_iterator@DU?$char_traits@D@std@@@std@@@std@@MEAA@XZ 0000000140004870 f i main.obj
 0001:000038a0       ??1?$num_put@DV?$ostreambuf_iterator@DU?$char_traits@D@std@@@std@@@std@@MEAA@XZ 00000001400048a0 f i main.obj
 0001:000038d0       ??1?$numpunct@D@std@@MEAA@XZ 00000001400048d0 f i main.obj
 0001:00003910       ??1?$unique_ptr@V_Facet_base@std@@U?$default_delete@V_Facet_base@std@@@2@@std@@QEAA@XZ 0000000140004910 f i main.obj
 0001:00003950       ??1_Facet_base@std@@UEAA@XZ 0000000140004950 f i main.obj
 0001:00003970       ??1_Iostream_error_category2@std@@UEAA@XZ 0000000140004970 f i main.obj
 0001:00003990       ??1_Locinfo@std@@QEAA@XZ   0000000140004990 f i main.obj
 0001:00003a20       ??1_Sentry_base@?$basic_istream@DU?$char_traits@D@std@@@std@@QEAA@XZ 0000000140004a20 f i main.obj
 0001:00003a20       ??1_Sentry_base@?$basic_ostream@DU?$char_traits@D@std@@@std@@QEAA@XZ 0000000140004a20 f i main.obj
 0001:00003a80       ??1_System_error@std@@UEAA@XZ 0000000140004a80 f i main.obj
 0001:00003a80       ??1bad_array_new_length@std@@UEAA@XZ 0000000140004a80 f i main.obj
 0001:00003aa0       ??1bad_alloc@std@@UEAA@XZ  0000000140004aa0 f i main.obj
 0001:00003aa0       ??1bad_cast@std@@UEAA@XZ   0000000140004aa0 f i main.obj
 0001:00003aa0       ??1runtime_error@std@@UEAA@XZ 0000000140004aa0 f i main.obj
 0001:00003ac0       ??1ctype_base@std@@UEAA@XZ 0000000140004ac0 f i main.obj
 0001:00003af0       ??1exception@std@@UEAA@XZ  0000000140004af0 f i main.obj
 0001:00003b20       ??1facet@locale@std@@MEAA@XZ 0000000140004b20 f i main.obj
 0001:00003b50       ??1failure@ios_base@std@@UEAA@XZ 0000000140004b50 f i main.obj
 0001:00003b70       ??1locale@std@@QEAA@XZ     0000000140004b70 f i main.obj
 0001:00003be0       ??1sentry@?$basic_istream@DU?$char_traits@D@std@@@std@@QEAA@XZ 0000000140004be0 f i main.obj
 0001:00003c00       ??1sentry@?$basic_ostream@DU?$char_traits@D@std@@@std@@QEAA@XZ 0000000140004c00 f i main.obj
 0001:00003c50       ??1system_error@std@@UEAA@XZ 0000000140004c50 f i main.obj
 0001:00003c70       ??2@YAPEAX_KPEAX@Z         0000000140004c70 f i main.obj
 0001:00003c80       ??4?$basic_string@DU?$char_traits@D@std@@V?$allocator@D@2@@std@@QEAAAEAV01@$$QEAV01@@Z 0000000140004c80 f i main.obj
 0001:00003d00       ??4?$ostreambuf_iterator@DU?$char_traits@D@std@@@std@@QEAAAEAV01@D@Z 0000000140004d00 f i main.obj
 0001:00003d70       ??5?$basic_istream@DU?$char_traits@D@std@@@std@@QEAAAEAV01@AEAH@Z 0000000140004d70 f i main.obj
 0001:00003db0       ??5?$basic_istream@DU?$char_traits@D@std@@@std@@QEAAAEAV01@AEAN@Z 0000000140004db0 f i main.obj
 0001:00003de0       ??6?$basic_ostream@DU?$char_traits@D@std@@@std@@QEAAAEAV01@N@Z 0000000140004de0 f i main.obj
 0001:00003fc0       ??8error_category@std@@QEBA_NAEBV01@@Z 0000000140004fc0 f i main.obj
 0001:00004000       ??8std@@YA_NAEBVerror_condition@0@0@Z 0000000140005000 f i main.obj
 0001:00004080       ??A?$basic_string@DU?$char_traits@D@std@@V?$allocator@D@2@@std@@QEAAAEAD_K@Z 0000000140005080 f i main.obj
 0001:00004080       ??A?$basic_string@DU?$char_traits@D@std@@V?$allocator@D@2@@std@@QEBAAEBD_K@Z 0000000140005080 f i main.obj
 0001:000040b0       ??Bid@locale@std@@QEAA_KXZ 00000001400050b0 f i main.obj
 0001:00004110       ??Bsentry@?$basic_istream@DU?$char_traits@D@std@@@std@@QEBA_NXZ 0000000140005110 f i main.obj
 0001:00004110       ??Bsentry@?$basic_ostream@DU?$char_traits@D@std@@@std@@QEBA_NXZ 0000000140005110 f i main.obj
 0001:00004120       ??D?$istreambuf_iterator@DU?$char_traits@D@std@@@std@@QEBADXZ 0000000140005120 f i main.obj
 0001:00004150       ??E?$istreambuf_iterator@DU?$char_traits@D@std@@@std@@QEAAAEAV01@XZ 0000000140005150 f i main.obj
 0001:00004170       ??R<lambda_319d5e083f45f90dcdce5dce53cbb275>@@QEBA@QEADQEBD_KD@Z 0000000140005170 f i main.obj
 0001:000041e0       ??R<lambda_65e615be2a453ca0576c979606f46740>@@QEBA@QEADQEBD_K12@Z 00000001400051e0 f i main.obj
 0001:00004260       ??R<lambda_b986da8d428e4af07c64af60eec09b61>@@QEBA@QEADQEBD_K22D@Z 0000000140005260 f i main.obj
 0001:00004310       ??R<lambda_e1befb086ad3257e3f042a63030725f7>@@QEBA@QEADQEBD_K2D@Z 0000000140005310 f i main.obj
 0001:000043a0       ??R?$default_delete@V_Facet_base@std@@@std@@QEBAXPEAV_Facet_base@1@@Z 00000001400053a0 f i main.obj
 0001:000043f0       ??Y?$basic_string@DU?$char_traits@D@std@@V?$allocator@D@2@@std@@QEAAAEAV01@AEBV01@@Z 00000001400053f0 f i main.obj
 0001:00004420       ??_E?$ctype@D@std@@MEAAPEAXI@Z 0000000140005420 f i main.obj
 0001:00004420       ??_G?$ctype@D@std@@MEAAPEAXI@Z 0000000140005420 f i main.obj
 0001:00004460       ??_E?$num_get@DV?$istreambuf_iterator@DU?$char_traits@D@std@@@std@@@std@@MEAAPEAXI@Z 0000000140005460 f i main.obj
 0001:00004460       ??_G?$num_get@DV?$istreambuf_iterator@DU?$char_traits@D@std@@@std@@@std@@MEAAPEAXI@Z 0000000140005460 f i main.obj
 0001:000044a0       ??_E?$num_put@DV?$ostreambuf_iterator@DU?$char_traits@D@std@@@std@@@std@@MEAAPEAXI@Z 00000001400054a0 f i main.obj
 0001:000044a0       ??_G?$num_put@DV?$ostreambuf_iterator@DU?$char_traits@D@std@@@std@@@std@@MEAAPEAXI@Z 00000001400054a0 f i main.obj
 0001:000044e0       ??_E?$numpunct@D@std@@MEAAPEAXI@Z 00000001400054e0 f i main.obj
 0001:000044e0       ??_G?$numpunct@D@std@@MEAAPEAXI@Z 00000001400054e0 f i main.obj
 0001:00004520       ??_E_Facet_base@std@@UEAAPEAXI@Z 0000000140005520 f i main.obj
 0001:00004520       ??_G_Facet_base@std@@UEAAPEAXI@Z 0000000140005520 f i main.obj
 0001:00004560       ??_E_Iostream_error_category2@std@@UEAAPEAXI@Z 0000000140005560 f i main.obj
 0001:00004560       ??_G_Iostream_error_category2@std@@UEAAPEAXI@Z 0000000140005560 f i main.obj
 0001:000045a0       ??_E_System_error@std@@UEAAPEAXI@Z 00000001400055a0 f i main.obj
 0001:000045a0       ??_G_System_error@std@@UEAAPEAXI@Z 00000001400055a0 f i main.obj
 0001:000045e0       ??_Ebad_alloc@std@@UEAAPEAXI@Z 00000001400055e0 f i main.obj
 0001:000045e0       ??_Ebad_cast@std@@UEAAPEAXI@Z 00000001400055e0 f i main.obj
 0001:000045e0       ??_Eruntime_error@std@@UEAAPEAXI@Z 00000001400055e0 f i main.obj
 0001:000045e0       ??_Gbad_alloc@std@@UEAAPEAXI@Z 00000001400055e0 f i main.obj
 0001:000045e0       ??_Gbad_cast@std@@UEAAPEAXI@Z 00000001400055e0 f i main.obj
 0001:000045e0       ??_Gruntime_error@std@@UEAAPEAXI@Z 00000001400055e0 f i main.obj
 0001:00004620       ??_Ebad_array_new_length@std@@UEAAPEAXI@Z 0000000140005620 f i main.obj
 0001:00004620       ??_Gbad_array_new_length@std@@UEAAPEAXI@Z 0000000140005620 f i main.obj
 0001:00004660       ??_Ectype_base@std@@UEAAPEAXI@Z 0000000140005660 f i main.obj
 0001:00004660       ??_Gctype_base@std@@UEAAPEAXI@Z 0000000140005660 f i main.obj
 0001:000046a0       ??_Eexception@std@@UEAAPEAXI@Z 00000001400056a0 f i main.obj
 0001:000046a0       ??_Gexception@std@@UEAAPEAXI@Z 00000001400056a0 f i main.obj
 0001:000046e0       ??_Efacet@locale@std@@MEAAPEAXI@Z 00000001400056e0 f i main.obj
 0001:000046e0       ??_Gfacet@locale@std@@MEAAPEAXI@Z 00000001400056e0 f i main.obj
 0001:00004720       ??_Efailure@ios_base@std@@UEAAPEAXI@Z 0000000140005720 f i main.obj
 0001:00004720       ??_Gfailure@ios_base@std@@UEAAPEAXI@Z 0000000140005720 f i main.obj
 0001:00004760       ??_Esystem_error@std@@UEAAPEAXI@Z 0000000140005760 f i main.obj
 0001:00004760       ??_Gsystem_error@std@@UEAAPEAXI@Z 0000000140005760 f i main.obj
 0001:000047a0       ?_Adjust_manually_vector_aligned@std@@YAXAEAPEAXAEA_K@Z 00000001400057a0 f i main.obj
 0001:00004840       ?_Allocate@_Default_allocate_traits@std@@SAPEAX_K@Z 0000000140005840 f i main.obj
 0001:00004860       ?_Calculate_growth@?$basic_string@DU?$char_traits@D@std@@V?$allocator@D@2@@std@@AEBA_K_K@Z 0000000140005860 f i main.obj
 0001:000048a0       ?_Calculate_growth@?$basic_string@DU?$char_traits@D@std@@V?$allocator@D@2@@std@@CA_K_K00@Z 00000001400058a0 f i main.obj
 0001:00004940       ?_Check_offset@?$_String_val@U?$_Simple_types@D@std@@@std@@QEBAX_K@Z 0000000140005940 f i main.obj
 0001:00004970       ?_Decref@facet@locale@std@@UEAAPEAV_Facet_base@3@XZ 0000000140005970 f i main.obj
 0001:000049a0       ?_Eos@?$basic_string@DU?$char_traits@D@std@@V?$allocator@D@2@@std@@AEAAX_K@Z 00000001400059a0 f i main.obj
 0001:000049f0       ?_Ffmt@?$num_put@DV?$ostreambuf_iterator@DU?$char_traits@D@std@@@std@@@std@@AEBAPEADPEADDH@Z 00000001400059f0 f i main.obj
 0001:00004b60       ?_Fput@?$num_put@DV?$ostreambuf_iterator@DU?$char_traits@D@std@@@std@@@std@@AEBA?AV?$ostreambuf_iterator@DU?$char_traits@D@std@@@2@V32@AEAVios_base@2@DPEBD_K@Z 0000000140005b60 f i main.obj
 0001:00005300       ?_Getal@?$basic_string@DU?$char_traits@D@std@@V?$allocator@D@2@@std@@AEAAAEAV?$allocator@D@2@XZ 0000000140006300 f i main.obj
 0001:00005300       ?_Getal@?$basic_string@DU?$char_traits@D@std@@V?$allocator@D@2@@std@@AEBAAEBV?$allocator@D@2@XZ 0000000140006300 f i main.obj
 0001:00005320       ?_Getcat@?$ctype@D@std@@SA_KPEAPEBVfacet@locale@2@PEBV42@@Z 0000000140006320 f i main.obj
 0001:00005410       ?_Getcat@?$num_get@DV?$istreambuf_iterator@DU?$char_traits@D@std@@@std@@@std@@SA_KPEAPEBVfacet@locale@2@PEBV42@@Z 0000000140006410 f i main.obj
 0001:00005500       ?_Getcat@?$num_put@DV?$ostreambuf_iterator@DU?$char_traits@D@std@@@std@@@std@@SA_KPEAPEBVfacet@locale@2@PEBV42@@Z 0000000140006500 f i main.obj
 0001:000055f0       ?_Getcat@?$numpunct@D@std@@SA_KPEAPEBVfacet@locale@2@PEBV42@@Z 00000001400065f0 f i main.obj
 0001:000056e0       ?_Getctype@_Locinfo@std@@QEBA?AU_Ctypevec@@XZ 00000001400066e0 f i main.obj
 0001:00005740       ?_Getcvt@_Locinfo@std@@QEBA?AU_Cvtvec@@XZ 0000000140006740 f i main.obj
 0001:000057c0       ?_Getfacet@locale@std@@QEBAPEBVfacet@12@_K@Z 00000001400067c0 f i main.obj
 0001:00005870       ?_Getfalse@_Locinfo@std@@QEBAPEBDXZ 0000000140006870 f i main.obj
 0001:00005880       ?_Getffld@?$num_get@DV?$istreambuf_iterator@DU?$char_traits@D@std@@@std@@@std@@AEBAHPEADAEAV?$istreambuf_iterator@DU?$char_traits@D@std@@@2@1AEAVios_base@2@PEAH@Z 0000000140006880 f i main.obj
 0001:00006450       ?_Getffldx@?$num_get@DV?$istreambuf_iterator@DU?$char_traits@D@std@@@std@@@std@@AEBAHPEADAEAV?$istreambuf_iterator@DU?$char_traits@D@std@@@2@1AEAVios_base@2@PEAH@Z 0000000140007450 f i main.obj
 0001:00006fc0       ?_Getifld@?$num_get@DV?$istreambuf_iterator@DU?$char_traits@D@std@@@std@@@std@@AEBAHPEADAEAV?$istreambuf_iterator@DU?$char_traits@D@std@@@2@1HAEBVlocale@2@@Z 0000000140007fc0 f i main.obj
 0001:00007650       ?_Getlconv@_Locinfo@std@@QEBAPEBUlconv@@XZ 0000000140008650 f i main.obj
 0001:00007670       ?_Gettrue@_Locinfo@std@@QEBAPEBDXZ 0000000140008670 f i main.obj
 0001:00007680       ?_Gnavail@?$basic_streambuf@DU?$char_traits@D@std@@@std@@IEBA_JXZ 0000000140008680 f i main.obj
 0001:000076c0       ?_Gninc@?$basic_streambuf@DU?$char_traits@D@std@@@std@@IEAAPEADXZ 00000001400086c0 f i main.obj
 0001:00007720       ?_Gnpreinc@?$basic_streambuf@DU?$char_traits@D@std@@@std@@IEAAPEADXZ 0000000140008720 f i main.obj
 0001:00007770       ?_Ifmt@?$num_put@DV?$ostreambuf_iterator@DU?$char_traits@D@std@@@std@@@std@@AEBAPEADPEADPEBDH@Z 0000000140008770 f i main.obj
 0001:00007900       ?_Inc@?$istreambuf_iterator@DU?$char_traits@D@std@@@std@@AEAAXXZ 0000000140008900 f i main.obj
 0001:00007970       ?_Incref@facet@locale@std@@UEAAXXZ 0000000140008970 f i main.obj
 0001:00007990       ?_Init@?$ctype@D@std@@IEAAXAEBV_Locinfo@2@@Z 0000000140008990 f i main.obj
 0001:000079d0       ?_Init@?$numpunct@D@std@@IEAAXAEBV_Locinfo@2@_N@Z 00000001400089d0 f i main.obj
 0001:00007bb0       ?_Ipfx@?$basic_istream@DU?$char_traits@D@std@@@std@@QEAA_N_N@Z 0000000140008bb0 f i main.obj
 0001:00007e40       ?_Iput@?$num_put@DV?$ostreambuf_iterator@DU?$char_traits@D@std@@@std@@@std@@AEBA?AV?$ostreambuf_iterator@DU?$char_traits@D@std@@@2@V32@AEAVios_base@2@DPEAD_K@Z 0000000140008e40 f i main.obj
 0001:000084f0       ?_Large_string_engaged@?$_String_val@U?$_Simple_types@D@std@@@std@@QEBA_NXZ 00000001400094f0 f i main.obj
 0001:00008520       ?_Makestr@_System_error@std@@CA?AV?$basic_string@DU?$char_traits@D@std@@V?$allocator@D@2@@2@Verror_code@2@V32@@Z 0000000140009520 f i main.obj
 0001:000085f0       ?_Memcpy_val_from@?$basic_string@DU?$char_traits@D@std@@V?$allocator@D@2@@std@@AEAAXAEBV12@@Z 00000001400095f0 f i main.obj
 0001:00008640       ?_Myptr@?$_String_val@U?$_Simple_types@D@std@@@std@@QEAAPEADXZ 0000000140009640 f i main.obj
 0001:00008640       ?_Myptr@?$_String_val@U?$_Simple_types@D@std@@@std@@QEBAPEBDXZ 0000000140009640 f i main.obj
 0001:00008680       ?_Osfx@?$basic_ostream@DU?$char_traits@D@std@@@std@@QEAAXXZ 0000000140009680 f i main.obj
 0001:00008750       ?_Peek@?$istreambuf_iterator@DU?$char_traits@D@std@@@std@@AEBADXZ 0000000140009750 f i main.obj
 0001:000087d0       ?_Pnavail@?$basic_streambuf@DU?$char_traits@D@std@@@std@@IEBA_JXZ 00000001400097d0 f i main.obj
 0001:00008810       ?_Pninc@?$basic_streambuf@DU?$char_traits@D@std@@@std@@IEAAPEADXZ 0000000140009810 f i main.obj
 0001:00008870       ?_Put@?$num_put@DV?$ostreambuf_iterator@DU?$char_traits@D@std@@@std@@@std@@AEBA?AV?$ostreambuf_iterator@DU?$char_traits@D@std@@@2@V32@PEBD_K@Z 0000000140009870 f i main.obj
 0001:00008900       ?_Rep@?$num_put@DV?$ostreambuf_iterator@DU?$char_traits@D@std@@@std@@@std@@AEBA?AV?$ostreambuf_iterator@DU?$char_traits@D@std@@@2@V32@D_K@Z 0000000140009900 f i main.obj
 0001:00008980       ?_Stodx_v2@std@@YANPEBDPEAPEADHPEAH@Z 0000000140009980 f i main.obj
 0001:00008a30       ?_Stofx_v2@std@@YAMPEBDPEAPEADHPEAH@Z 0000000140009a30 f i main.obj
 0001:00008ae0       ?_Swap_proxy_and_iterators@?$basic_string@DU?$char_traits@D@std@@V?$allocator@D@2@@std@@AEAAXAEAV12@@Z 0000000140009ae0 f i main.obj
 0001:00008b10       ?_Take_contents@?$basic_string@DU?$char_traits@D@std@@V?$allocator@D@2@@std@@AEAAXAEAV12@@Z 0000000140009b10 f i main.obj
 0001:00008c00       ?_Throw_bad_array_new_length@std@@YAXXZ 0000000140009c00 f i main.obj
 0001:00008c30       ?_Throw_bad_cast@std@@YAXXZ 0000000140009c30 f i main.obj
 0001:00008c60       ?_Tidy@?$_Yarn@D@std@@AEAAXXZ 0000000140009c60 f i main.obj
 0001:00008c60       ?_Tidy@?$_Yarn@_W@std@@AEAAXXZ 0000000140009c60 f i main.obj
 0001:00008ca0       ?_Tidy@?$ctype@D@std@@IEAAXXZ 0000000140009ca0 f i main.obj
 0001:00008d00       ?_Tidy@?$numpunct@D@std@@AEAAXXZ 0000000140009d00 f i main.obj
 0001:00008d40       ?_Tidy_deallocate@?$basic_string@DU?$char_traits@D@std@@V?$allocator@D@2@@std@@AEAAXXZ 0000000140009d40 f i main.obj
 0001:00008e00       ?_Tidy_init@?$basic_string@DU?$char_traits@D@std@@V?$allocator@D@2@@std@@AEAAXXZ 0000000140009e00 f i main.obj
 0001:00008e60       ?_Xlen_string@std@@YAXXZ   0000000140009e60 f i main.obj
 0001:00008e80       ?_Xran@?$_String_val@U?$_Simple_types@D@std@@@std@@SAXXZ 0000000140009e80 f i main.obj
 0001:00008ea0       ?allocate@?$allocator@D@std@@QEAAPEAD_K@Z 0000000140009ea0 f i main.obj
 0001:00008ed0       ?append@?$basic_string@DU?$char_traits@D@std@@V?$allocator@D@2@@std@@QEAAAEAV12@AEBV12@@Z 0000000140009ed0 f i main.obj
 0001:00008f10       ?append@?$basic_string@DU?$char_traits@D@std@@V?$allocator@D@2@@std@@QEAAAEAV12@QEBD@Z 0000000140009f10 f i main.obj
 0001:00008f50       ?append@?$basic_string@DU?$char_traits@D@std@@V?$allocator@D@2@@std@@QEAAAEAV12@QEBD_K@Z 0000000140009f50 f i main.obj
 0001:00009050       ?append@?$basic_string@DU?$char_traits@D@std@@V?$allocator@D@2@@std@@QEAAAEAV12@_KD@Z 000000014000a050 f i main.obj
 0001:00009150       ?assign@?$_Narrow_char_traits@DH@std@@SAPEADQEAD_KD@Z 000000014000a150 f i main.obj
 0001:00009180       ?assign@?$_Narrow_char_traits@DH@std@@SAXAEADAEBD@Z 000000014000a180 f i main.obj
 0001:000091a0       ?assign@?$basic_string@DU?$char_traits@D@std@@V?$allocator@D@2@@std@@QEAAAEAV12@$$QEAV12@@Z 000000014000a1a0 f i main.obj
 0001:000091d0       ?c_str@?$_Yarn@D@std@@QEBAPEBDXZ 000000014000a1d0 f i main.obj
 0001:00009210       ?c_str@?$basic_string@DU?$char_traits@D@std@@V?$allocator@D@2@@std@@QEBAPEBDXZ 000000014000a210 f i main.obj
 0001:00009230       ?c_str@locale@std@@QEBAPEBDXZ 000000014000a230 f i main.obj
 0001:00009280       ?category@error_code@std@@QEBAAEBVerror_category@2@XZ 000000014000a280 f i main.obj
 0001:00009280       ?category@error_condition@std@@QEBAAEBVerror_category@2@XZ 000000014000a280 f i main.obj
 0001:00009290       ?clear@?$basic_ios@DU?$char_traits@D@std@@@std@@QEAAXH_N@Z 000000014000a290 f i main.obj
 0001:000092f0       ?clear@ios_base@std@@QEAAXH_N@Z 000000014000a2f0 f i main.obj
 0001:000093e0       ?copy@?$_Char_traits@DH@std@@SAPEADQEADQEBD_K@Z 000000014000a3e0 f i main.obj
 0001:000093e0       ?move@?$_Char_traits@DH@std@@SAPEADQEADQEBD_K@Z 000000014000a3e0 f i main.obj
 0001:00009420       ?deallocate@?$allocator@D@std@@QEAAXQEAD_K@Z 000000014000a420 f i main.obj
 0001:00009450       ?decimal_point@?$numpunct@D@std@@QEBADXZ 000000014000a450 f i main.obj
 0001:00009470       ?default_error_condition@error_category@std@@UEBA?AVerror_condition@2@H@Z 000000014000a470 f i main.obj
 0001:000094a0       ?do_decimal_point@?$numpunct@D@std@@MEBADXZ 000000014000a4a0 f i main.obj
 0001:000094b0       ?do_falsename@?$numpunct@D@std@@MEBA?AV?$basic_string@DU?$char_traits@D@std@@V?$allocator@D@2@@2@XZ 000000014000a4b0 f i main.obj
 0001:000094f0       ?do_get@?$num_get@DV?$istreambuf_iterator@DU?$char_traits@D@std@@@std@@@std@@MEBA?AV?$istreambuf_iterator@DU?$char_traits@D@std@@@2@V32@0AEAVios_base@2@AEAHAEAG@Z 000000014000a4f0 f i main.obj
 0001:00009720       ?do_get@?$num_get@DV?$istreambuf_iterator@DU?$char_traits@D@std@@@std@@@std@@MEBA?AV?$istreambuf_iterator@DU?$char_traits@D@std@@@2@V32@0AEAVios_base@2@AEAHAEAI@Z 000000014000a720 f i main.obj
 0001:00009800       ?do_get@?$num_get@DV?$istreambuf_iterator@DU?$char_traits@D@std@@@std@@@std@@MEBA?AV?$istreambuf_iterator@DU?$char_traits@D@std@@@2@V32@0AEAVios_base@2@AEAHAEAJ@Z 000000014000a800 f i main.obj
 0001:00009990       ?do_get@?$num_get@DV?$istreambuf_iterator@DU?$char_traits@D@std@@@std@@@std@@MEBA?AV?$istreambuf_iterator@DU?$char_traits@D@std@@@2@V32@0AEAVios_base@2@AEAHAEAK@Z 000000014000a990 f i main.obj
 0001:00009b20       ?do_get@?$num_get@DV?$istreambuf_iterator@DU?$char_traits@D@std@@@std@@@std@@MEBA?AV?$istreambuf_iterator@DU?$char_traits@D@std@@@2@V32@0AEAVios_base@2@AEAHAEAM@Z 000000014000ab20 f i main.obj
 0001:00009ce0       ?do_get@?$num_get@DV?$istreambuf_iterator@DU?$char_traits@D@std@@@std@@@std@@MEBA?AV?$istreambuf_iterator@DU?$char_traits@D@std@@@2@V32@0AEAVios_base@2@AEAHAEAN@Z 000000014000ace0 f i main.obj
 0001:00009ea0       ?do_get@?$num_get@DV?$istreambuf_iterator@DU?$char_traits@D@std@@@std@@@std@@MEBA?AV?$istreambuf_iterator@DU?$char_traits@D@std@@@2@V32@0AEAVios_base@2@AEAHAEAO@Z 000000014000aea0 f i main.obj
 0001:00009f80       ?do_get@?$num_get@DV?$istreambuf_iterator@DU?$char_traits@D@std@@@std@@@std@@MEBA?AV?$istreambuf_iterator@DU?$char_traits@D@std@@@2@V32@0AEAVios_base@2@AEAHAEAPEAX@Z 000000014000af80 f i main.obj
 0001:0000a120       ?do_get@?$num_get@DV?$istreambuf_iterator@DU?$char_traits@D@std@@@std@@@std@@MEBA?AV?$istreambuf_iterator@DU?$char_traits@D@std@@@2@V32@0AEAVios_base@2@AEAHAEA_J@Z 000000014000b120 f i main.obj
 0001:0000a2c0       ?do_get@?$num_get@DV?$istreambuf_iterator@DU?$char_traits@D@std@@@std@@@std@@MEBA?AV?$istreambuf_iterator@DU?$char_traits@D@std@@@2@V32@0AEAVios_base@2@AEAHAEA_K@Z 000000014000b2c0 f i main.obj
 0001:0000a460       ?do_get@?$num_get@DV?$istreambuf_iterator@DU?$char_traits@D@std@@@std@@@std@@MEBA?AV?$istreambuf_iterator@DU?$char_traits@D@std@@@2@V32@0AEAVios_base@2@AEAHAEA_N@Z 000000014000b460 f i main.obj
 0001:0000a7f0       ?do_grouping@?$numpunct@D@std@@MEBA?AV?$basic_string@DU?$char_traits@D@std@@V?$allocator@D@2@@2@XZ 000000014000b7f0 f i main.obj
 0001:0000a830       ?do_narrow@?$ctype@D@std@@MEBADDD@Z 000000014000b830 f i main.obj
 0001:0000a850       ?do_narrow@?$ctype@D@std@@MEBAPEBDPEBD0DPEAD@Z 000000014000b850 f i main.obj
 0001:0000a8b0       ?do_put@?$num_put@DV?$ostreambuf_iterator@DU?$char_traits@D@std@@@std@@@std@@MEBA?AV?$ostreambuf_iterator@DU?$char_traits@D@std@@@2@V32@AEAVios_base@2@DJ@Z 000000014000b8b0 f i main.obj
 0001:0000a9a0       ?do_put@?$num_put@DV?$ostreambuf_iterator@DU?$char_traits@D@std@@@std@@@std@@MEBA?AV?$ostreambuf_iterator@DU?$char_traits@D@std@@@2@V32@AEAVios_base@2@DK@Z 000000014000b9a0 f i main.obj
 0001:0000aa90       ?do_put@?$num_put@DV?$ostreambuf_iterator@DU?$char_traits@D@std@@@std@@@std@@MEBA?AV?$ostreambuf_iterator@DU?$char_traits@D@std@@@2@V32@AEAVios_base@2@DN@Z 000000014000ba90 f i main.obj
 0001:0000ad00       ?do_put@?$num_put@DV?$ostreambuf_iterator@DU?$char_traits@D@std@@@std@@@std@@MEBA?AV?$ostreambuf_iterator@DU?$char_traits@D@std@@@2@V32@AEAVios_base@2@DO@Z 000000014000bd00 f i main.obj
 0001:0000af70       ?do_put@?$num_put@DV?$ostreambuf_iterator@DU?$char_traits@D@std@@@std@@@std@@MEBA?AV?$ostreambuf_iterator@DU?$char_traits@D@std@@@2@V32@AEAVios_base@2@DPEBX@Z 000000014000bf70 f i main.obj
 0001:0000b040       ?do_put@?$num_put@DV?$ostreambuf_iterator@DU?$char_traits@D@std@@@std@@@std@@MEBA?AV?$ostreambuf_iterator@DU?$char_traits@D@std@@@2@V32@AEAVios_base@2@D_J@Z 000000014000c040 f i main.obj
 0001:0000b130       ?do_put@?$num_put@DV?$ostreambuf_iterator@DU?$char_traits@D@std@@@std@@@std@@MEBA?AV?$ostreambuf_iterator@DU?$char_traits@D@std@@@2@V32@AEAVios_base@2@D_K@Z 000000014000c130 f i main.obj
 0001:0000b220       ?do_put@?$num_put@DV?$ostreambuf_iterator@DU?$char_traits@D@std@@@std@@@std@@MEBA?AV?$ostreambuf_iterator@DU?$char_traits@D@std@@@2@V32@AEAVios_base@2@D_N@Z 000000014000c220 f i main.obj
 0001:0000b5a0       ?do_thousands_sep@?$numpunct@D@std@@MEBADXZ 000000014000c5a0 f i main.obj
 0001:0000b5b0       ?do_tolower@?$ctype@D@std@@MEBADD@Z 000000014000c5b0 f i main.obj
 0001:0000b5e0       ?do_tolower@?$ctype@D@std@@MEBAPEBDPEADPEBD@Z 000000014000c5e0 f i main.obj
 0001:0000b650       ?do_toupper@?$ctype@D@std@@MEBADD@Z 000000014000c650 f i main.obj
 0001:0000b680       ?do_toupper@?$ctype@D@std@@MEBAPEBDPEADPEBD@Z 000000014000c680 f i main.obj
 0001:0000b6f0       ?do_truename@?$numpunct@D@std@@MEBA?AV?$basic_string@DU?$char_traits@D@std@@V?$allocator@D@2@@2@XZ 000000014000c6f0 f i main.obj
 0001:0000b730       ?do_widen@?$ctype@D@std@@MEBADD@Z 000000014000c730 f i main.obj
 0001:0000b740       ?do_widen@?$ctype@D@std@@MEBAPEBDPEBD0PEAD@Z 000000014000c740 f i main.obj
 0001:0000b7a0       ?empty@?$basic_string@DU?$char_traits@D@std@@V?$allocator@D@2@@std@@QEBA_NXZ 000000014000c7a0 f i main.obj
 0001:0000b7d0       ?eof@?$_Narrow_char_traits@DH@std@@SAHXZ 000000014000c7d0 f i main.obj
 0001:0000b7e0       ?eq_int_type@?$_Narrow_char_traits@DH@std@@SA_NAEBH0@Z 000000014000c7e0 f i main.obj
 0001:0000b820       ?equal@?$istreambuf_iterator@DU?$char_traits@D@std@@@std@@QEBA_NAEBV12@@Z 000000014000c820 f i main.obj
 0001:0000b8b0       ?equivalent@error_category@std@@UEBA_NAEBVerror_code@2@H@Z 000000014000c8b0 f i main.obj
 0001:0000b910       ?equivalent@error_category@std@@UEBA_NHAEBVerror_condition@2@@Z 000000014000c910 f i main.obj
 0001:0000b950       ?failed@?$ostreambuf_iterator@DU?$char_traits@D@std@@@std@@QEBA_NXZ 000000014000c950 f i main.obj
 0001:0000b950       ?to_char_type@?$_Narrow_char_traits@DH@std@@SADAEBH@Z 000000014000c950 f i main.obj
 0001:0000b950       ?to_int_type@?$_Narrow_char_traits@DH@std@@SAHAEBD@Z 000000014000c950 f i main.obj
 0001:0000b960       ?falsename@?$numpunct@D@std@@QEBA?AV?$basic_string@DU?$char_traits@D@std@@V?$allocator@D@2@@2@XZ 000000014000c960 f i main.obj
 0001:0000b9a0       ?fill@?$basic_ios@DU?$char_traits@D@std@@@std@@QEBADXZ 000000014000c9a0 f i main.obj
 0001:0000b9b0       ?flags@ios_base@std@@QEBAHXZ 000000014000c9b0 f i main.obj
 0001:0000b9c0       ?flush@?$basic_ostream@DU?$char_traits@D@std@@@std@@QEAAAEAV12@XZ 000000014000c9c0 f i main.obj
 0001:0000ba80       ?get@?$num_get@DV?$istreambuf_iterator@DU?$char_traits@D@std@@@std@@@std@@QEBA?AV?$istreambuf_iterator@DU?$char_traits@D@std@@@2@V32@0AEAVios_base@2@AEAHAEAJ@Z 000000014000ca80 f i main.obj
 0001:0000bb30       ?get@?$num_get@DV?$istreambuf_iterator@DU?$char_traits@D@std@@@std@@@std@@QEBA?AV?$istreambuf_iterator@DU?$char_traits@D@std@@@2@V32@0AEAVios_base@2@AEAHAEAN@Z 000000014000cb30 f i main.obj
 0001:0000bbe0       ?getloc@ios_base@std@@QEBA?AVlocale@2@XZ 000000014000cbe0 f i main.obj
 0001:0000bc20       ?good@ios_base@std@@QEBA_NXZ 000000014000cc20 f i main.obj
 0001:0000bc60       ?gptr@?$basic_streambuf@DU?$char_traits@D@std@@@std@@IEBAPEADXZ 000000014000cc60 f i main.obj
 0001:0000bc80       ?grouping@?$numpunct@D@std@@QEBA?AV?$basic_string@DU?$char_traits@D@std@@V?$allocator@D@2@@2@XZ 000000014000cc80 f i main.obj
 0001:0000bcc0       ?insert@?$basic_string@DU?$char_traits@D@std@@V?$allocator@D@2@@std@@QEAAAEAV12@_K0D@Z 000000014000ccc0 f i main.obj
 0001:0000bdf0       ?iostream_category@std@@YAAEBVerror_category@1@XZ 000000014000cdf0 f i main.obj
 0001:0000be00       ?is@?$ctype@D@std@@QEBA_NFD@Z 000000014000ce00 f i main.obj
 0001:0000be50       ?length@?$_Narrow_char_traits@DH@std@@SA_KQEBD@Z 000000014000ce50 f i main.obj
 0001:0000be70       ?make_error_code@std@@YA?AVerror_code@1@W4io_errc@1@@Z 000000014000ce70 f i main.obj
 0001:0000bea0       ?max@?$numeric_limits@_J@std@@SA_JXZ 000000014000cea0 f i main.obj
 0001:0000beb0       ?max_size@?$_Default_allocator_traits@V?$allocator@D@std@@@std@@SA_KAEBV?$allocator@D@2@@Z 000000014000ceb0 f i main.obj
 0001:0000bec0       ?max_size@?$basic_string@DU?$char_traits@D@std@@V?$allocator@D@2@@std@@QEBA_KXZ 000000014000cec0 f i main.obj
 0001:0000bf30       ?message@_Iostream_error_category2@std@@UEBA?AV?$basic_string@DU?$char_traits@D@std@@V?$allocator@D@2@@2@H@Z 000000014000cf30 f i main.obj
 0001:0000bfc0       ?message@error_code@std@@QEBA?AV?$basic_string@DU?$char_traits@D@std@@V?$allocator@D@2@@2@XZ 000000014000cfc0 f i main.obj
 0001:0000c030       ?name@_Iostream_error_category2@std@@UEBAPEBDXZ 000000014000d030 f i main.obj
 0001:0000c040       ?precision@ios_base@std@@QEBA_JXZ 000000014000d040 f i main.obj
 0001:0000c050       ?pubsync@?$basic_streambuf@DU?$char_traits@D@std@@@std@@QEAAHXZ 000000014000d050 f i main.obj
 0001:0000c070       ?push_back@?$basic_string@DU?$char_traits@D@std@@V?$allocator@D@2@@std@@QEAAXD@Z 000000014000d070 f i main.obj
 0001:0000c140       ?put@?$num_put@DV?$ostreambuf_iterator@DU?$char_traits@D@std@@@std@@@std@@QEBA?AV?$ostreambuf_iterator@DU?$char_traits@D@std@@@2@V32@AEAVios_base@2@DN@Z 000000014000d140 f i main.obj
 0001:0000c1c0       ?rdbuf@?$basic_ios@DU?$char_traits@D@std@@@std@@QEBAPEAV?$basic_streambuf@DU?$char_traits@D@std@@@2@XZ 000000014000d1c0 f i main.obj
 0001:0000c1d0       ?rdstate@ios_base@std@@QEBAHXZ 000000014000d1d0 f i main.obj
 0001:0000c1e0       ?release@?$unique_ptr@V_Facet_base@std@@U?$default_delete@V_Facet_base@std@@@2@@std@@QEAAPEAV_Facet_base@2@XZ 000000014000d1e0 f i main.obj
 0001:0000c210       ?resize@?$basic_string@DU?$char_traits@D@std@@V?$allocator@D@2@@std@@QEAAX_KD@Z 000000014000d210 f i main.obj
 0001:0000c280       ?sbumpc@?$basic_streambuf@DU?$char_traits@D@std@@@std@@QEAAHXZ 000000014000d280 f i main.obj
 0001:0000c2d0       ?select_on_container_copy_construction@?$_Default_allocator_traits@V?$allocator@D@std@@@std@@SA?AV?$allocator@D@2@AEBV32@@Z 000000014000d2d0 f i main.obj
 0001:0000c2e0       ?setstate@?$basic_ios@DU?$char_traits@D@std@@@std@@QEAAXH_N@Z 000000014000d2e0 f i main.obj
 0001:0000c320       ?sgetc@?$basic_streambuf@DU?$char_traits@D@std@@@std@@QEAAHXZ 000000014000d320 f i main.obj
 0001:0000c370       ?size@?$basic_string@DU?$char_traits@D@std@@V?$allocator@D@2@@std@@QEBA_KXZ 000000014000d370 f i main.obj
 0001:0000c380       ?snextc@?$basic_streambuf@DU?$char_traits@D@std@@@std@@QEAAHXZ 000000014000d380 f i main.obj
 0001:0000c410       ?sputc@?$basic_streambuf@DU?$char_traits@D@std@@@std@@QEAAHD@Z 000000014000d410 f i main.obj
 0001:0000c490       ?sputn@?$basic_streambuf@DU?$char_traits@D@std@@@std@@QEAA_JPEBD_J@Z 000000014000d490 f i main.obj
 0001:0000c4d0       ?thousands_sep@?$numpunct@D@std@@QEBADXZ 000000014000d4d0 f i main.obj
 0001:0000c4f0       ?tie@?$basic_ios@DU?$char_traits@D@std@@@std@@QEBAPEAV?$basic_ostream@DU?$char_traits@D@std@@@2@XZ 000000014000d4f0 f i main.obj
 0001:0000c500       ?tolower@?$ctype@D@std@@QEBADD@Z 000000014000d500 f i main.obj
 0001:0000c530       ?truename@?$numpunct@D@std@@QEBA?AV?$basic_string@DU?$char_traits@D@std@@V?$allocator@D@2@@2@XZ 000000014000d530 f i main.obj
 0001:0000c570       ?value@error_code@std@@QEBAHXZ 000000014000d570 f i main.obj
 0001:0000c570       ?value@error_condition@std@@QEBAHXZ 000000014000d570 f i main.obj
 0001:0000c580       ?what@exception@std@@UEBAPEBDXZ 000000014000d580 f i main.obj
 0001:0000c5c0       ?widen@?$ctype@D@std@@QEBAPEBDPEBD0PEAD@Z 000000014000d5c0 f i main.obj
 0001:0000c600       ?width@ios_base@std@@QEAA_J_J@Z 000000014000d600 f i main.obj
 0001:0000c640       ?width@ios_base@std@@QEBA_JXZ 000000014000d640 f i main.obj
 0001:0000c650       __local_stdio_printf_options 000000014000d650 f i main.obj
 0001:0000c660       _vsprintf_s_l              000000014000d660 f i main.obj
 0001:0000c6d0       fabsl                      000000014000d6d0 f i main.obj
 0001:0000c6f0       frexpl                     000000014000d6f0 f i main.obj
 0001:0000c720       ldexpf                     000000014000d720 f i main.obj
 0001:0000c750       sprintf_s                  000000014000d750 f i main.obj
 0001:0000c7ac       ??0_Init_locks@std@@QEAA@XZ 000000014000d7ac f   libcpmt:xlock.obj
 0001:0000c7f0       ??0_Lockit@std@@QEAA@H@Z   000000014000d7f0 f   libcpmt:xlock.obj
 0001:0000c82c       ??1_Init_locks@std@@QEAA@XZ 000000014000d82c f   libcpmt:xlock.obj
 0001:0000c868       ??1_Lockit@std@@QEAA@XZ    000000014000d868 f   libcpmt:xlock.obj
 0001:0000c8a0       __std_find_trivial_1       000000014000d8a0 f   libcpmt:vector_algorithms.obj
 0001:0000c968       ??0bad_alloc@std@@QEAA@XZ  000000014000d968 f i libcpmt:xthrow.obj
 0001:0000c988       ??0length_error@std@@QEAA@AEBV01@@Z 000000014000d988 f i libcpmt:xthrow.obj
 0001:0000c9c4       ??0length_error@std@@QEAA@PEBD@Z 000000014000d9c4 f i libcpmt:xthrow.obj
 0001:0000ca0c       ??0logic_error@std@@QEAA@AEBV01@@Z 000000014000da0c f i libcpmt:xthrow.obj
 0001:0000ca48       ??0out_of_range@std@@QEAA@AEBV01@@Z 000000014000da48 f i libcpmt:xthrow.obj
 0001:0000ca84       ??0out_of_range@std@@QEAA@PEBD@Z 000000014000da84 f i libcpmt:xthrow.obj
 0001:0000cacc       ??0runtime_error@std@@QEAA@PEBD@Z 000000014000dacc f i libcpmt:xthrow.obj
 0001:0000cb14       ??1bad_exception@std@@UEAA@XZ 000000014000db14 f i libvcruntime:frame.obj
 0001:0000cb14       ??1length_error@std@@UEAA@XZ 000000014000db14 f i libcpmt:xthrow.obj
 0001:0000cb14       ??1out_of_range@std@@UEAA@XZ 000000014000db14 f i libcpmt:xthrow.obj
 0001:0000cb28       ??_Ebad_exception@std@@UEAAPEAXI@Z 000000014000db28 f i libvcruntime:frame.obj
 0001:0000cb28       ??_Elength_error@std@@UEAAPEAXI@Z 000000014000db28 f i libcpmt:xthrow.obj
 0001:0000cb28       ??_Elogic_error@std@@UEAAPEAXI@Z 000000014000db28 f i libcpmt:xthrow.obj
 0001:0000cb28       ??_Eout_of_range@std@@UEAAPEAXI@Z 000000014000db28 f i libcpmt:xthrow.obj
 0001:0000cb28       ??_Gbad_exception@std@@UEAAPEAXI@Z 000000014000db28 f i libvcruntime:frame.obj
 0001:0000cb28       ??_Glength_error@std@@UEAAPEAXI@Z 000000014000db28 f i libcpmt:xthrow.obj
 0001:0000cb28       ??_Glogic_error@std@@UEAAPEAXI@Z 000000014000db28 f i libcpmt:xthrow.obj
 0001:0000cb28       ??_Gout_of_range@std@@UEAAPEAXI@Z 000000014000db28 f i libcpmt:xthrow.obj
 0001:0000cb6c       ?_Xbad_alloc@std@@YAXXZ    000000014000db6c f   libcpmt:xthrow.obj
 0001:0000cb6c       ?__scrt_throw_std_bad_alloc@@YAXXZ 000000014000db6c f   LIBCMT:throw_bad_alloc.obj
 0001:0000cb8c       ?_Xlength_error@std@@YAXPEBD@Z 000000014000db8c f   libcpmt:xthrow.obj
 0001:0000cbb0       ?_Xout_of_range@std@@YAXPEBD@Z 000000014000dbb0 f   libcpmt:xthrow.obj
 0001:0000cbd4       ?_Xruntime_error@std@@YAXPEBD@Z 000000014000dbd4 f   libcpmt:xthrow.obj
 0001:0000cbf8       ?uncaught_exception@std@@YA_NXZ 000000014000dbf8 f   libcpmt:uncaught_exception.obj
 0001:0000cc00       ?_Syserror_map@std@@YAPEBDH@Z 000000014000dc00 f   libcpmt:syserror.obj
 0001:0000cc28       ??0_Locimp@locale@std@@AEAA@_N@Z 000000014000dc28 f i libcpmt:locale0.obj
 0001:0000ccb0       ??4?$_Yarn@D@std@@QEAAAEAV01@PEBD@Z 000000014000dcb0 f i libcpmt:locale0.obj
 0001:0000cd28       ??_E_Locimp@locale@std@@MEAAPEAXI@Z 000000014000dd28 f i libcpmt:locale0.obj
 0001:0000cd28       ??_G_Locimp@locale@std@@MEAAPEAXI@Z 000000014000dd28 f i libcpmt:locale0.obj
 0001:0000cd84       ?_Facet_Register@std@@YAXPEAV_Facet_base@1@@Z 000000014000dd84 f   libcpmt:locale0.obj
 0001:0000cdbc       ?_Getgloballocale@locale@std@@CAPEAV_Locimp@12@XZ 000000014000ddbc f   libcpmt:locale0.obj
 0001:0000cdc4       ?_Init@locale@std@@CAPEAV_Locimp@12@_N@Z 000000014000ddc4 f   libcpmt:locale0.obj
 0001:0000cebc       ?_Locimp_dtor@_Locimp@locale@std@@CAXPEAV123@@Z 000000014000debc f   libcpmt:locale0.obj
 0001:0000cf38       ?_Locinfo_ctor@_Locinfo@std@@SAXPEAV12@PEBD@Z 000000014000df38 f   libcpmt:locale0.obj
 0001:0000cfa4       ?_Locinfo_dtor@_Locinfo@std@@SAXPEAV12@@Z 000000014000dfa4 f   libcpmt:locale0.obj
 0001:0000cfc0       ?_New_Locimp@_Locimp@locale@std@@CAPEAV123@_N@Z 000000014000dfc0 f   libcpmt:locale0.obj
 0001:0000cff0       ?_Setgloballocale@locale@std@@CAXPEAX@Z 000000014000dff0 f   libcpmt:locale0.obj
 0001:0000d024       _Deletegloballocale        000000014000e024 f   libcpmt:locale0.obj
 0001:0000d094       _Getctype                  000000014000e094 f   libcpmt:_tolower.obj
 0001:0000d154       _Tolower                   000000014000e154 f   libcpmt:_tolower.obj
 0001:0000d288       _Getcvt                    000000014000e288 f   libcpmt:xwctomb.obj
 0001:0000d320       _Toupper                   000000014000e320 f   libcpmt:_toupper.obj
 0001:0000d464       _Stolx                     000000014000e464 f   libcpmt:xstol.obj
 0001:0000d544       _Stoulx                    000000014000e544 f   libcpmt:xstoul.obj
 0001:0000d734       _Stollx                    000000014000e734 f   libcpmt:xstoll.obj
 0001:0000d824       _Stoullx                   000000014000e824 f   libcpmt:xstoull.obj
 0001:0000da1c       ??$use_facet@V?$codecvt@DDU_Mbstatet@@@std@@@std@@YAAEBV?$codecvt@DDU_Mbstatet@@@0@AEBVlocale@0@@Z 000000014000ea1c f i libcpmt:cin.obj
 0001:0000db34       ??0?$basic_istream@DU?$char_traits@D@std@@@std@@QEAA@PEAV?$basic_streambuf@DU?$char_traits@D@std@@@1@_N@Z 000000014000eb34 f i libcpmt:cin.obj
 0001:0000dbc0       ??0?$basic_streambuf@DU?$char_traits@D@std@@@std@@IEAA@XZ 000000014000ebc0 f i libcpmt:cin.obj
 0001:0000dc50       ??1?$basic_filebuf@DU?$char_traits@D@std@@@std@@UEAA@XZ 000000014000ec50 f i libcpmt:cin.obj
 0001:0000dd00       ??1?$basic_ios@DU?$char_traits@D@std@@@std@@UEAA@XZ 000000014000ed00 f i libcpmt:cin.obj
 0001:0000dd1c       ??_E?$basic_istream@DU?$char_traits@D@std@@@std@@$4PPPPPPPM@A@EAAPEAXI@Z 000000014000ed1c f i libcpmt:cin.obj
 0001:0000dd28       ??_E?$basic_filebuf@DU?$char_traits@D@std@@@std@@UEAAPEAXI@Z 000000014000ed28 f i libcpmt:cin.obj
 0001:0000dd28       ??_G?$basic_filebuf@DU?$char_traits@D@std@@@std@@UEAAPEAXI@Z 000000014000ed28 f i libcpmt:cin.obj
 0001:0000dd5c       ??_E?$basic_ios@DU?$char_traits@D@std@@@std@@UEAAPEAXI@Z 000000014000ed5c f i libcpmt:cin.obj
 0001:0000dd5c       ??_G?$basic_ios@DU?$char_traits@D@std@@@std@@UEAAPEAXI@Z 000000014000ed5c f i libcpmt:cin.obj
 0001:0000dd9c       ??_E?$basic_istream@DU?$char_traits@D@std@@@std@@UEAAPEAXI@Z 000000014000ed9c f i libcpmt:cin.obj
 0001:0000dd9c       ??_G?$basic_istream@DU?$char_traits@D@std@@@std@@UEAAPEAXI@Z 000000014000ed9c f i libcpmt:cin.obj
 0001:0000de00       ??_E?$basic_streambuf@DU?$char_traits@D@std@@@std@@UEAAPEAXI@Z 000000014000ee00 f i libcpmt:cin.obj
 0001:0000de00       ??_G?$basic_streambuf@DU?$char_traits@D@std@@@std@@UEAAPEAXI@Z 000000014000ee00 f i libcpmt:cin.obj
 0001:0000de8c       ??_E?$codecvt@DDU_Mbstatet@@@std@@MEAAPEAXI@Z 000000014000ee8c f i libcpmt:cin.obj
 0001:0000de8c       ??_G?$codecvt@DDU_Mbstatet@@@std@@MEAAPEAXI@Z 000000014000ee8c f i libcpmt:cin.obj
 0001:0000deb8       ??_Eios_base@std@@UEAAPEAXI@Z 000000014000eeb8 f i libcpmt:cin.obj
 0001:0000deb8       ??_Gios_base@std@@UEAAPEAXI@Z 000000014000eeb8 f i libcpmt:cin.obj
 0001:0000def8       ?_Endwrite@?$basic_filebuf@DU?$char_traits@D@std@@@std@@IEAA_NXZ 000000014000eef8 f i libcpmt:cin.obj
 0001:0000dfd0       ?_Erase_noexcept@?$basic_string@DU?$char_traits@D@std@@V?$allocator@D@2@@std@@AEAAAEAV12@_K_K@Z 000000014000efd0 f i libcpmt:cin.obj
 0001:0000e074       ?_Getcat@?$codecvt@DDU_Mbstatet@@@std@@SA_KPEAPEBVfacet@locale@2@PEBV42@@Z 000000014000f074 f i libcpmt:cin.obj
 0001:0000e130       ?_Init@?$basic_filebuf@DU?$char_traits@D@std@@@std@@IEAAXPEAU_iobuf@@W4_Initfl@12@@Z 000000014000f130 f i libcpmt:cin.obj
 0001:0000e208       ?_Init@ios_base@std@@IEAAXXZ 000000014000f208 f i libcpmt:cin.obj
 0001:0000e278       ?_Initcvt@?$basic_filebuf@DU?$char_traits@D@std@@@std@@IEAAXAEBV?$codecvt@DDU_Mbstatet@@@2@@Z 000000014000f278 f i libcpmt:cin.obj
 0001:0000e2f8       ?_Lock@?$basic_filebuf@DU?$char_traits@D@std@@@std@@UEAAXXZ 000000014000f2f8 f i libcpmt:cin.obj
 0001:0000e314       ?_Lock@?$basic_streambuf@DU?$char_traits@D@std@@@std@@UEAAXXZ 000000014000f314 f i libcpmt:cin.obj
 0001:0000e314       ?_Unlock@?$basic_streambuf@DU?$char_traits@D@std@@@std@@UEAAXXZ 000000014000f314 f i libcpmt:cin.obj
 0001:0000e314       ?imbue@?$basic_streambuf@DU?$char_traits@D@std@@@std@@MEAAXAEBVlocale@2@@Z 000000014000f314 f i libcpmt:cin.obj
 0001:0000e314       __sanitizer_annotate_contiguous_container 000000014000f314 f i libcpmt:asan_noop.obj
 0001:0000e314       __sanitizer_annotate_contiguous_container_default 000000014000f314 f i libcpmt:asan_noop.obj
 0001:0000e314       _guard_check_icall_nop     000000014000f314 f i LIBCMT:guard_support.obj
 0001:0000e314       _initialize_denormal_control 000000014000f314 f i LIBCMT:denormal_control.obj
 0001:0000e314       _initialize_invalid_parameter_handler 000000014000f314 f i LIBCMT:invalid_parameter_handler.obj
 0001:0000e318       ?_Unlock@?$basic_filebuf@DU?$char_traits@D@std@@@std@@UEAAXXZ 000000014000f318 f i libcpmt:cin.obj
 0001:0000e334       ?clear@ios_base@std@@QEAAXH@Z 000000014000f334 f i libcpmt:cin.obj
 0001:0000e3a0       ?close@?$basic_filebuf@DU?$char_traits@D@std@@@std@@QEAAPEAV12@XZ 000000014000f3a0 f i libcpmt:cin.obj
 0001:0000e424       ?do_always_noconv@?$codecvt@DDU_Mbstatet@@@std@@MEBA_NXZ 000000014000f424 f i libcpmt:cin.obj
 0001:0000e424       __acrt_uninitialize_command_line 000000014000f424 f i libucrt:argv_data.obj
 0001:0000e424       _should_initialize_environment 000000014000f424 f i LIBCMT:env_mode.obj
 0001:0000e428       ?do_encoding@codecvt_base@std@@MEBAHXZ 000000014000f428 f i libcpmt:cin.obj
 0001:0000e428       ?do_max_length@codecvt_base@std@@MEBAHXZ 000000014000f428 f i libcpmt:cin.obj
 0001:0000e428       _get_startup_argv_mode     000000014000f428 f i LIBCMT:argv_mode.obj
 0001:0000e430       ?do_in@?$codecvt@DDU_Mbstatet@@@std@@MEBAHAEAU_Mbstatet@@PEBD1AEAPEBDPEAD3AEAPEAD@Z 000000014000f430 f i libcpmt:cin.obj
 0001:0000e430       ?do_out@?$codecvt@DDU_Mbstatet@@@std@@MEBAHAEAU_Mbstatet@@PEBD1AEAPEBDPEAD3AEAPEAD@Z 000000014000f430 f i libcpmt:cin.obj
 0001:0000e44c       ?do_length@?$codecvt@DDU_Mbstatet@@@std@@MEBAHAEAU_Mbstatet@@PEBD1_K@Z 000000014000f44c f i libcpmt:cin.obj
 0001:0000e468       ?do_unshift@?$codecvt@DDU_Mbstatet@@@std@@MEBAHAEAU_Mbstatet@@PEAD1AEAPEAD@Z 000000014000f468 f i libcpmt:cin.obj
 0001:0000e478       ?imbue@?$basic_filebuf@DU?$char_traits@D@std@@@std@@MEAAXAEBVlocale@2@@Z 000000014000f478 f i libcpmt:cin.obj
 0001:0000e49c       ?init@?$basic_ios@DU?$char_traits@D@std@@@std@@IEAAXPEAV?$basic_streambuf@DU?$char_traits@D@std@@@2@_N@Z 000000014000f49c f i libcpmt:cin.obj
 0001:0000e558       ?overflow@?$basic_filebuf@DU?$char_traits@D@std@@@std@@MEAAHH@Z 000000014000f558 f i libcpmt:cin.obj
 0001:0000e6e0       ?overflow@?$basic_streambuf@DU?$char_traits@D@std@@@std@@MEAAHH@Z 000000014000f6e0 f i libcpmt:cin.obj
 0001:0000e6e0       ?pbackfail@?$basic_streambuf@DU?$char_traits@D@std@@@std@@MEAAHH@Z 000000014000f6e0 f i libcpmt:cin.obj
 0001:0000e6e0       ?underflow@?$basic_streambuf@DU?$char_traits@D@std@@@std@@MEAAHXZ 000000014000f6e0 f i libcpmt:cin.obj
 0001:0000e6e4       ?pbackfail@?$basic_filebuf@DU?$char_traits@D@std@@@std@@MEAAHH@Z 000000014000f6e4 f i libcpmt:cin.obj
 0001:0000e7b0       ?seekoff@?$basic_filebuf@DU?$char_traits@D@std@@@std@@MEAA?AV?$fpos@U_Mbstatet@@@2@_JHH@Z 000000014000f7b0 f i libcpmt:cin.obj
 0001:0000e894       ?seekoff@?$basic_streambuf@DU?$char_traits@D@std@@@std@@MEAA?AV?$fpos@U_Mbstatet@@@2@_JHH@Z 000000014000f894 f i libcpmt:cin.obj
 0001:0000e894       ?seekpos@?$basic_streambuf@DU?$char_traits@D@std@@@std@@MEAA?AV?$fpos@U_Mbstatet@@@2@V32@H@Z 000000014000f894 f i libcpmt:cin.obj
 0001:0000e8a8       ?seekpos@?$basic_filebuf@DU?$char_traits@D@std@@@std@@MEAA?AV?$fpos@U_Mbstatet@@@2@V32@H@Z 000000014000f8a8 f i libcpmt:cin.obj
 0001:0000e960       ?setbuf@?$basic_filebuf@DU?$char_traits@D@std@@@std@@MEAAPEAV?$basic_streambuf@DU?$char_traits@D@std@@@2@PEAD_J@Z 000000014000f960 f i libcpmt:cin.obj
 0001:0000e9b4       ?setbuf@?$basic_streambuf@DU?$char_traits@D@std@@@std@@MEAAPEAV12@PEAD_J@Z 000000014000f9b4 f i libcpmt:cin.obj
 0001:0000e9b8       ?showmanyc@?$basic_streambuf@DU?$char_traits@D@std@@@std@@MEAA_JXZ 000000014000f9b8 f i libcpmt:cin.obj
 0001:0000e9b8       ?sync@?$basic_streambuf@DU?$char_traits@D@std@@@std@@MEAAHXZ 000000014000f9b8 f i libcpmt:cin.obj
 0001:0000e9b8       __scrt_exe_initialize_mta  000000014000f9b8 f i LIBCMT:utility_desktop.obj
 0001:0000e9b8       __scrt_initialize_winrt    000000014000f9b8 f i LIBCMT:utility_desktop.obj
 0001:0000e9b8       __scrt_stub_for_initialize_mta 000000014000f9b8 f i LIBCMT:utility_desktop.obj
 0001:0000e9b8       _get_startup_commit_mode   000000014000f9b8 f i LIBCMT:commit_mode.obj
 0001:0000e9b8       _get_startup_new_mode      000000014000f9b8 f i LIBCMT:new_mode.obj
 0001:0000e9b8       _get_startup_thread_locale_mode 000000014000f9b8 f i LIBCMT:thread_locale.obj
 0001:0000e9b8       _matherr                   000000014000f9b8 f i LIBCMT:matherr.obj
 0001:0000e9bc       ?sync@?$basic_filebuf@DU?$char_traits@D@std@@@std@@MEAAHXZ 000000014000f9bc f i libcpmt:cin.obj
 0001:0000ea0c       ?uflow@?$basic_filebuf@DU?$char_traits@D@std@@@std@@MEAAHXZ 000000014000fa0c f i libcpmt:cin.obj
 0001:0000ec50       ?uflow@?$basic_streambuf@DU?$char_traits@D@std@@@std@@MEAAHXZ 000000014000fc50 f i libcpmt:cin.obj
 0001:0000ec8c       ?underflow@?$basic_filebuf@DU?$char_traits@D@std@@@std@@MEAAHXZ 000000014000fc8c f i libcpmt:cin.obj
 0001:0000ecf0       ?widen@?$basic_ios@DU?$char_traits@D@std@@@std@@QEBADD@Z 000000014000fcf0 f i libcpmt:cin.obj
 0001:0000ed7c       ?xsgetn@?$basic_filebuf@DU?$char_traits@D@std@@@std@@MEAA_JPEAD_J@Z 000000014000fd7c f i libcpmt:cin.obj
 0001:0000eeac       ?xsgetn@?$basic_streambuf@DU?$char_traits@D@std@@@std@@MEAA_JPEAD_J@Z 000000014000feac f i libcpmt:cin.obj
 0001:0000ef70       ?xsputn@?$basic_filebuf@DU?$char_traits@D@std@@@std@@MEAA_JPEBD_J@Z 000000014000ff70 f i libcpmt:cin.obj
 0001:0000f030       ?xsputn@?$basic_streambuf@DU?$char_traits@D@std@@@std@@MEAA_JPEBD_J@Z 0000000140010030 f i libcpmt:cin.obj
 0001:0000f0f8       ??0?$basic_ostream@DU?$char_traits@D@std@@@std@@QEAA@PEAV?$basic_streambuf@DU?$char_traits@D@std@@@1@_N@Z 00000001400100f8 f i libcpmt:cout.obj
 0001:0000f17c       ??_E?$basic_ostream@DU?$char_traits@D@std@@@std@@$4PPPPPPPM@A@EAAPEAXI@Z 000000014001017c f i libcpmt:cout.obj
 0001:0000f188       ??_E?$basic_ostream@DU?$char_traits@D@std@@@std@@UEAAPEAXI@Z 0000000140010188 f i libcpmt:cout.obj
 0001:0000f188       ??_G?$basic_ostream@DU?$char_traits@D@std@@@std@@UEAAPEAXI@Z 0000000140010188 f i libcpmt:cout.obj
 0001:0000f1ec       _Mtxdst                    00000001400101ec f   libcpmt:xmtx.obj
 0001:0000f1f4       _Mtxinit                   00000001400101f4 f   libcpmt:xmtx.obj
 0001:0000f204       _Mtxlock                   0000000140010204 f   libcpmt:xmtx.obj
 0001:0000f20c       _Mtxunlock                 000000014001020c f   libcpmt:xmtx.obj
 0001:0000f214       ?_Atexit@@YAXP6AXXZ@Z      0000000140010214 f   libcpmt:iosptrs.obj
 0001:0000f250       __crtLCMapStringA          0000000140010250 f   libcpmt:StlLCMapStringA.obj
 0001:0000f548       ?_Addstd@ios_base@std@@SAXPEAV12@@Z 0000000140010548 f   libcpmt:ios.obj
 0001:0000f5c0       ?_Ios_base_dtor@ios_base@std@@CAXPEAV12@@Z 00000001400105c0 f   libcpmt:ios.obj
 0001:0000f638       ?_Tidy@ios_base@std@@AEAAXXZ 0000000140010638 f i libcpmt:ios.obj
 0001:0000f6b8       ??2@YAPEAX_K@Z             00000001400106b8 f   LIBCMT:new_scalar.obj
 0001:0000f6f4       ??3@YAXPEAX_K@Z            00000001400106f4 f   LIBCMT:delete_scalar_size.obj
 0001:0000f6f4       ??_V@YAXPEAX@Z             00000001400106f4 f   LIBCMT:delete_array.obj
 0001:0000f6fc       __GSHandlerCheck           00000001400106fc f   LIBCMT:gshandler.obj
 0001:0000f71c       __GSHandlerCheckCommon     000000014001071c f   LIBCMT:gshandler.obj
 0001:0000f778       __GSHandlerCheck_EH4       0000000140010778 f   LIBCMT:gshandlereh4.obj
 0001:0000f810       __security_check_cookie    0000000140010810 f   LIBCMT:amdsecgs.obj
 0001:0000f830       ??_Etype_info@@UEAAPEAXI@Z 0000000140010830 f i LIBCMT:std_type_info_static.obj
 0001:0000f830       ??_Gtype_info@@UEAAPEAXI@Z 0000000140010830 f i LIBCMT:std_type_info_static.obj
 0001:0000fabc       mainCRTStartup             0000000140010abc f   LIBCMT:exe_main.obj
 0001:0000fad0       __scrt_acquire_startup_lock 0000000140010ad0 f   LIBCMT:utility.obj
 0001:0000fb0c       __scrt_initialize_crt      0000000140010b0c f   LIBCMT:utility.obj
 0001:0000fb58       __scrt_initialize_onexit_tables 0000000140010b58 f   LIBCMT:utility.obj
 0001:0000fbe4       __scrt_is_nonwritable_in_current_image 0000000140010be4 f   LIBCMT:utility.obj
 0001:0000fc7c       __scrt_release_startup_lock 0000000140010c7c f   LIBCMT:utility.obj
 0001:0000fca0       __scrt_uninitialize_crt    0000000140010ca0 f   LIBCMT:utility.obj
 0001:0000fccc       _onexit                    0000000140010ccc f   LIBCMT:utility.obj
 0001:0000fd08       atexit                     0000000140010d08 f   LIBCMT:utility.obj
 0001:0000fd20       __isa_available_init       0000000140010d20 f   LIBCMT:cpu_disp.obj
 0001:0000fee0       __chkstk                   0000000140010ee0 f   LIBCMT:chkstk.obj
 0001:0000fee0       _alloca_probe              0000000140010ee0 f   LIBCMT:chkstk.obj
 0001:0000ff30       ?__scrt_throw_std_bad_array_new_length@@YAXXZ 0000000140010f30 f   LIBCMT:throw_bad_alloc.obj
 0001:0000ff50       ??3@YAXPEAX@Z              0000000140010f50 f   LIBCMT:delete_scalar.obj
 0001:0000ff58       __raise_securityfailure    0000000140010f58 f   LIBCMT:gs_report.obj
 0001:0000ff8c       __report_gsfailure         0000000140010f8c f   LIBCMT:gs_report.obj
 0001:00010060       __report_rangecheckfailure 0000000140011060 f   LIBCMT:gs_report.obj
 0001:00010074       __report_securityfailure   0000000140011074 f   LIBCMT:gs_report.obj
 0001:000101f4       __security_init_cookie     00000001400111f4 f   LIBCMT:gs_support.obj
 0001:000102a0       _get_startup_file_mode     00000001400112a0 f   LIBCMT:file_mode.obj
 0001:000102a8       ?__scrt_initialize_type_info@@YAXXZ 00000001400112a8 f   LIBCMT:tncleanup.obj
 0001:000102b8       __local_stdio_scanf_options 00000001400112b8 f i LIBCMT:default_local_stdio_options.obj
 0001:000102c0       __scrt_initialize_default_local_stdio_options 00000001400112c0 f   LIBCMT:default_local_stdio_options.obj
 0001:000102dc       __scrt_is_user_matherr_present 00000001400112dc f   LIBCMT:matherr_detection.obj
 0001:000102e8       __scrt_get_dyn_tls_init_callback 00000001400112e8 f   LIBCMT:dyn_tls_init.obj
 0001:000102f0       __scrt_get_dyn_tls_dtor_callback 00000001400112f0 f   LIBCMT:dyn_tls_dtor.obj
 0001:000102f8       __crt_debugger_hook        00000001400112f8 f   LIBCMT:utility_desktop.obj
 0001:00010300       __scrt_fastfail            0000000140011300 f   LIBCMT:utility_desktop.obj
 0001:0001044c       __scrt_initialize_mta      000000014001144c f   LIBCMT:utility_desktop.obj
 0001:00010454       __scrt_is_managed_app      0000000140011454 f   LIBCMT:utility_desktop.obj
 0001:000104a8       __scrt_set_unhandled_exception_filter 00000001400114a8 f   LIBCMT:utility_desktop.obj
 0001:000104b8       __scrt_unhandled_exception_filter 00000001400114b8 f   LIBCMT:utility_desktop.obj
 0001:00010514       _RTC_Initialize            0000000140011514 f   LIBCMT:initsect.obj
 0001:00010550       _RTC_Terminate             0000000140011550 f   LIBCMT:initsect.obj
 0001:0001058c       __scrt_is_ucrt_dll_in_use  000000014001158c f   LIBCMT:ucrt_detection.obj
 0001:000105a0       _get_purecall_handler      00000001400115a0 f   libvcruntime:purevirt.obj
 0001:000105ac       _purecall                  00000001400115ac f   libvcruntime:purevirt.obj
 0001:000105e0       memcpy_repmovs             00000001400115e0 f   libvcruntime:memcpy.obj
 0001:00010600       memcpy                     0000000140011600 f   libvcruntime:memcpy.obj
 0001:00010600       memmove                    0000000140011600 f   libvcruntime:memcpy.obj
 0001:00010c90       memset_repstos             0000000140011c90 f   libvcruntime:memset.obj
 0001:00010cb0       memset                     0000000140011cb0 f   libvcruntime:memset.obj
 0001:00011038       __std_exception_copy       0000000140012038 f   libvcruntime:std_exception.obj
 0001:000110c8       __std_exception_destroy    00000001400120c8 f   libvcruntime:std_exception.obj
 0001:000110f0       _CxxThrowException         00000001400120f0 f   libvcruntime:throw.obj
 0001:00011190       ??$_CallSETranslator@V__FrameHandler3@@@@YAHPEAUEHExceptionRecord@@PEA_KPEAU_CONTEXT@@PEAU_xDISPATCHER_CONTEXT@@PEBU_s_FuncInfo@@K1H@Z 0000000140012190 f i libvcruntime:risctrnsctrl.obj
 0001:000111e4       ??$_CallSETranslator@V__FrameHandler4@@@@YAHPEAUEHExceptionRecord@@PEA_KPEAU_CONTEXT@@PEAU_xDISPATCHER_CONTEXT@@PEAUFuncInfo4@FH4@@K1H@Z 00000001400121e4 f i libvcruntime:risctrnsctrl.obj
 0001:00011238       ?CatchTryBlock@__FrameHandler3@@SAPEBU_s_TryBlockMapEntry@@PEBU_s_FuncInfo@@H@Z 0000000140012238 f   libvcruntime:risctrnsctrl.obj
 0001:0001129c       ?DecompFuncInfo@FH4@@YA_JPEAEAEAUFuncInfo4@1@_KH_N@Z 000000014001229c f i libvcruntime:risctrnsctrl.obj
 0001:000113c0       ?ExecutionInCatch@__FrameHandler3@@SA_NPEAU_xDISPATCHER_CONTEXT@@PEBU_s_FuncInfo@@@Z 00000001400123c0 f   libvcruntime:risctrnsctrl.obj
 0001:000113ec       ?ExecutionInCatch@__FrameHandler4@@SA_NPEAU_xDISPATCHER_CONTEXT@@PEAUFuncInfo4@FH4@@@Z 00000001400123ec f   libvcruntime:risctrnsctrl.obj
 0001:000113f4       ?FrameUnwindToEmptyState@__FrameHandler3@@SAXPEA_KPEAU_xDISPATCHER_CONTEXT@@PEBU_s_FuncInfo@@@Z 00000001400123f4 f   libvcruntime:risctrnsctrl.obj
 0001:00011458       ?FrameUnwindToEmptyState@__FrameHandler4@@SAXPEA_KPEAU_xDISPATCHER_CONTEXT@@PEAUFuncInfo4@FH4@@@Z 0000000140012458 f   libvcruntime:risctrnsctrl.obj
 0001:0001148c       ?GetEstablisherFrame@__FrameHandler3@@SAPEA_KPEA_KPEAU_xDISPATCHER_CONTEXT@@PEBU_s_FuncInfo@@0@Z 000000014001248c f   libvcruntime:risctrnsctrl.obj
 0001:00011558       ?GetEstablisherFrame@__FrameHandler4@@SAPEA_KPEA_KPEAU_xDISPATCHER_CONTEXT@@PEAUFuncInfo4@FH4@@0@Z 0000000140012558 f   libvcruntime:risctrnsctrl.obj
 0001:0001157c       ?GetRangeOfTrysToCheck@__FrameHandler3@@SA?AU?$pair@Viterator@TryBlockMap@__FrameHandler3@@V123@@std@@AEAVTryBlockMap@1@HPEAU_xDISPATCHER_CONTEXT@@PEBU_s_FuncInfo@@H@Z 000000014001257c f   libvcruntime:risctrnsctrl.obj
 0001:000116bc       ?GetRangeOfTrysToCheck@__FrameHandler4@@SA?AU?$pair@Viterator@TryBlockMap4@FH4@@V123@@std@@AEAVTryBlockMap4@FH4@@HPEAU_xDISPATCHER_CONTEXT@@PEAUFuncInfo4@5@H@Z 00000001400126bc f   libvcruntime:risctrnsctrl.obj
 0001:00011828       ?UnwindNestedFrames@__FrameHandler3@@SAXPEA_KPEAUEHExceptionRecord@@PEAU_CONTEXT@@0PEAXPEBU_s_FuncInfo@@HHPEBU_s_HandlerType@@PEAU_xDISPATCHER_CONTEXT@@E@Z 0000000140012828 f   libvcruntime:risctrnsctrl.obj
 0001:0001192c       ?UnwindNestedFrames@__FrameHandler4@@SAXPEA_KPEAUEHExceptionRecord@@PEAU_CONTEXT@@0PEAXPEAUFuncInfo4@FH4@@HHPEAUHandlerType4@5@PEAU_xDISPATCHER_CONTEXT@@E@Z 000000014001292c f   libvcruntime:risctrnsctrl.obj
 0001:00011a4c       ?setBuffer@TryBlockMap4@FH4@@QEAAXViterator@12@@Z 0000000140012a4c f i libvcruntime:risctrnsctrl.obj
 0001:00011c10       _CreateFrameInfo           0000000140012c10 f   libvcruntime:risctrnsctrl.obj
 0001:00011c4c       _FindAndUnlinkFrame        0000000140012c4c f   libvcruntime:risctrnsctrl.obj
 0001:00011ca0       _GetImageBase              0000000140012ca0 f   libvcruntime:risctrnsctrl.obj
 0001:00011cb4       _GetThrowImageBase         0000000140012cb4 f   libvcruntime:risctrnsctrl.obj
 0001:00011cc8       _SetImageBase              0000000140012cc8 f   libvcruntime:risctrnsctrl.obj
 0001:00011ce0       _SetThrowImageBase         0000000140012ce0 f   libvcruntime:risctrnsctrl.obj
 0001:00011cf8       __CxxFrameHandler3         0000000140012cf8 f   libvcruntime:risctrnsctrl.obj
 0001:00011d80       __CxxFrameHandler4         0000000140012d80 f   libvcruntime:risctrnsctrl.obj
 0001:00011e40       __uncaught_exception       0000000140012e40 f   libvcruntime:uncaught_exception.obj
 0001:00011e70       memchr                     0000000140012e70 f   libvcruntime:memchr.obj
 0001:00011ee0       __DestructExceptionObject  0000000140012ee0 f   libvcruntime:ehhelpers.obj
 0001:00011f50       ?_CallMemberFunction0@@YAXQEAX0@Z 0000000140012f50 f i libvcruntime:ehhelpers.obj
 0001:00011f54       _IsExceptionObjectToBeDestroyed 0000000140012f54 f   libvcruntime:ehhelpers.obj
 0001:00011f84       __AdjustPointer            0000000140012f84 f   libvcruntime:ehhelpers.obj
 0001:00011fa8       __FrameUnwindFilter        0000000140012fa8 f   libvcruntime:ehhelpers.obj
 0001:00012010       __current_exception        0000000140013010 f   libvcruntime:ehhelpers.obj
 0001:00012024       __current_exception_context 0000000140013024 f   libvcruntime:ehhelpers.obj
 0001:00012038       __std_terminate            0000000140013038 f   libvcruntime:ehhelpers.obj
 0001:00012060       memcmp                     0000000140013060 f   libvcruntime:memcmp.obj
 0001:00012128       __C_specific_handler       0000000140013128 f   libvcruntime:riscchandler.obj
 0001:00012320       __vcrt_initialize          0000000140013320 f   libvcruntime:initialization.obj
 0001:00012348       __vcrt_uninitialize        0000000140013348 f   libvcruntime:initialization.obj
 0001:00012364       __std_type_info_compare    0000000140013364 f   libvcruntime:std_type_info.obj
 0001:0001238c       __vcrt_freefls             000000014001338c f   libvcruntime:per_thread_data.obj
 0001:000123ac       __vcrt_getptd              00000001400133ac f   libvcruntime:per_thread_data.obj
 0001:000123c8       __vcrt_getptd_noexit       00000001400133c8 f   libvcruntime:per_thread_data.obj
 0001:00012488       __vcrt_getptd_noinit       0000000140013488 f   libvcruntime:per_thread_data.obj
 0001:000124d8       __vcrt_initialize_ptd      00000001400134d8 f   libvcruntime:per_thread_data.obj
 0001:00012520       __vcrt_uninitialize_ptd    0000000140013520 f   libvcruntime:per_thread_data.obj
 0001:00012544       ?GetCurrentState@__FrameHandler3@@SAHPEA_KPEAU_xDISPATCHER_CONTEXT@@PEBU_s_FuncInfo@@@Z 0000000140013544 f   libvcruntime:ehstate.obj
 0001:0001256c       ?GetUnwindTryBlock@__FrameHandler3@@SAHPEA_KPEAU_xDISPATCHER_CONTEXT@@PEBU_s_FuncInfo@@@Z 000000014001356c f   libvcruntime:ehstate.obj
 0001:00012598       ?SetState@__FrameHandler3@@SAXPEA_KPEBU_s_FuncInfo@@H@Z 0000000140013598 f   libvcruntime:ehstate.obj
 0001:000125a4       ?SetUnwindTryBlock@__FrameHandler3@@SAXPEA_KPEAU_xDISPATCHER_CONTEXT@@PEBU_s_FuncInfo@@H@Z 00000001400135a4 f   libvcruntime:ehstate.obj
 0001:000125e0       ?StateFromControlPc@__FrameHandler3@@SAHPEBU_s_FuncInfo@@PEAU_xDISPATCHER_CONTEXT@@@Z 00000001400135e0 f   libvcruntime:ehstate.obj
 0001:000125e8       ?StateFromControlPc@__FrameHandler4@@SAHPEAUFuncInfo4@FH4@@PEAU_xDISPATCHER_CONTEXT@@@Z 00000001400135e8 f   libvcruntime:ehstate.obj
 0001:000125f0       ?StateFromIp@__FrameHandler3@@SAHPEBU_s_FuncInfo@@PEAU_xDISPATCHER_CONTEXT@@_K@Z 00000001400135f0 f   libvcruntime:ehstate.obj
 0001:00012658       ?StateFromIp@__FrameHandler4@@SAHPEAUFuncInfo4@FH4@@PEAU_xDISPATCHER_CONTEXT@@_K@Z 0000000140013658 f   libvcruntime:ehstate.obj
 0001:00013d58       ??$TypeMatchHelper@V__FrameHandler3@@@@YAHPEBU_s_HandlerType@@PEBU_s_CatchableType@@PEBU_s_ThrowInfo@@@Z 0000000140014d58 f i libvcruntime:frame.obj
 0001:00013e98       ??$TypeMatchHelper@V__FrameHandler4@@@@YAHPEAUHandlerType4@FH4@@PEBU_s_CatchableType@@PEBU_s_ThrowInfo@@@Z 0000000140014e98 f i libvcruntime:frame.obj
 0001:00013fdc       ??$__InternalCxxFrameHandler@V__FrameHandler3@@@@YA?AW4_EXCEPTION_DISPOSITION@@PEAUEHExceptionRecord@@PEA_KPEAU_CONTEXT@@PEAU_xDISPATCHER_CONTEXT@@PEBU_s_FuncInfo@@H1E@Z 0000000140014fdc f i libvcruntime:frame.obj
 0001:00014214       ??$__InternalCxxFrameHandler@V__FrameHandler4@@@@YA?AW4_EXCEPTION_DISPOSITION@@PEAUEHExceptionRecord@@PEA_KPEAU_CONTEXT@@PEAU_xDISPATCHER_CONTEXT@@PEAUFuncInfo4@FH4@@H1E@Z 0000000140015214 f i libvcruntime:frame.obj
 0001:000144a8       ??0HandlerMap4@FH4@@QEAA@PEBUTryBlockMapEntry4@1@_KH@Z 00000001400154a8 f i libvcruntime:frame.obj
 0001:00014524       ??0TryBlockMap4@FH4@@QEAA@PEBUFuncInfo4@1@_K@Z 0000000140015524 f i libvcruntime:frame.obj
 0001:000145fc       ??0bad_exception@std@@QEAA@AEBV01@@Z 00000001400155fc f i libvcruntime:frame.obj
 0001:00014638       ??0bad_exception@std@@QEAA@XZ 0000000140015638 f i libvcruntime:frame.obj
 0001:00014658       ?CxxCallCatchBlock@__FrameHandler3@@SAPEAXPEAU_EXCEPTION_RECORD@@@Z 0000000140015658 f   libvcruntime:frame.obj
 0001:00014844       ?CxxCallCatchBlock@__FrameHandler4@@SAPEAXPEAU_EXCEPTION_RECORD@@@Z 0000000140015844 f   libvcruntime:frame.obj
 0001:00014a94       ?DecompHandler@HandlerMap4@FH4@@AEAAXXZ 0000000140015a94 f i libvcruntime:frame.obj
 0001:00014ce0       ?FrameUnwindToState@__FrameHandler3@@SAXPEA_KPEAU_xDISPATCHER_CONTEXT@@PEBU_s_FuncInfo@@H@Z 0000000140015ce0 f   libvcruntime:frame.obj
 0001:00014e6c       ?FrameUnwindToState@__FrameHandler4@@SAXPEA_KPEAU_xDISPATCHER_CONTEXT@@PEAUFuncInfo4@FH4@@H@Z 0000000140015e6c f   libvcruntime:frame.obj
 0001:00015168       ?GetHandlerSearchState@__FrameHandler3@@SAHPEA_KPEAU_xDISPATCHER_CONTEXT@@PEBU_s_FuncInfo@@@Z 0000000140016168 f i libvcruntime:frame.obj
 0001:00015378       ?ReadEntry@UWMap4@FH4@@AEAAXPEAPEAE@Z 0000000140016378 f i libvcruntime:frame.obj
 0001:00015414       ?_CallMemberFunction1@@YAXQEAX00@Z 0000000140016414 f i libvcruntime:frame.obj
 0001:00015420       ?_CallMemberFunction2@@YAXQEAX00H@Z 0000000140016420 f i libvcruntime:frame.obj
 0001:00015430       ?getStartStop@UWMap4@FH4@@QEAAXHHAEAViterator@12@0@Z 0000000140016430 f i libvcruntime:frame.obj
 0001:00015500       ?getStateFromIterators@UWMap4@FH4@@SAHAEBViterator@12@H0H0@Z 0000000140016500 f i libvcruntime:frame.obj
 0001:000155c0       _NLG_Notify                00000001400165c0 f   libvcruntime:notify.obj
 0001:000155e0       __NLG_Dispatch2            00000001400165e0 f   libvcruntime:notify.obj
 0001:000155f0       __NLG_Return2              00000001400165f0 f   libvcruntime:notify.obj
 0001:000155f4       __except_validate_context_record 00000001400165f4 f   libvcruntime:jbcxrval.obj
 0001:0001562c       __vcrt_initialize_locks    000000014001662c f   libvcruntime:locks.obj
 0001:00015674       __vcrt_uninitialize_locks  0000000140016674 f   libvcruntime:locks.obj
 0001:000157fc       __vcrt_FlsAlloc            00000001400167fc f   libvcruntime:winapi_downlevel.obj
 0001:00015844       __vcrt_FlsFree             0000000140016844 f   libvcruntime:winapi_downlevel.obj
 0001:0001588c       __vcrt_FlsGetValue         000000014001688c f   libvcruntime:winapi_downlevel.obj
 0001:000158d4       __vcrt_FlsSetValue         00000001400168d4 f   libvcruntime:winapi_downlevel.obj
 0001:00015928       __vcrt_InitializeCriticalSectionEx 0000000140016928 f   libvcruntime:winapi_downlevel.obj
 0001:000159a0       _CallSettingFrame          00000001400169a0 f   libvcruntime:handlers.obj
 0001:000159f0       _CallSettingFrame_LookupContinuationIndex 00000001400169f0 f   libvcruntime:handlers.obj
 0001:00015a20       _CallSettingFrame_NotifyContinuationAddr 0000000140016a20 f   libvcruntime:handlers.obj
 0001:00015a50       _CallSettingFrameEncoded   0000000140016a50 f   libvcruntime:handlers.obj
 0001:00015a98       __acrt_call_reportfault    0000000140016a98 f   libucrt:invalid_parameter.obj
 0001:00015bf4       __acrt_initialize_invalid_parameter_handler 0000000140016bf4 f   libucrt:invalid_parameter.obj
 0001:00015bfc       _invalid_parameter         0000000140016bfc f   libucrt:invalid_parameter.obj
 0001:00015cac       _invalid_parameter_noinfo  0000000140016cac f   libucrt:invalid_parameter.obj
 0001:00015ccc       _invalid_parameter_noinfo_noreturn 0000000140016ccc f   libucrt:invalid_parameter.obj
 0001:00015cfc       _invoke_watson             0000000140016cfc f   libucrt:invalid_parameter.obj
 0001:00015d44       abs                        0000000140016d44 f   libucrt:abs.obj
 0001:00015d4c       fabs                       0000000140016d4c f   libucrt:fabs.obj
 0001:00015d60       pow                        0000000140016d60 f   libucrt:pow.obj
 0001:000173f4       frexp                      00000001400183f4 f   libucrt:frexp.obj
 0001:000174ec       ldexp                      00000001400184ec f   libucrt:ldexp.obj
 0001:00017660       powf                       0000000140018660 f   libucrt:powf.obj
 0001:00018528       calloc                     0000000140019528 f   libucrt:calloc.obj
 0001:00018530       free                       0000000140019530 f   libucrt:free.obj
 0001:00018544       __acrt_errno_from_os_error 0000000140019544 f   libucrt:errno.obj
 0001:0001858c       __acrt_errno_map_os_error  000000014001958c f   libucrt:errno.obj
 0001:000185dc       __doserrno                 00000001400195dc f   libucrt:errno.obj
 0001:000185fc       _errno                     00000001400195fc f   libucrt:errno.obj
 0001:0001876c       ??$parse_floating_point@V?$c_string_character_source@D@__crt_strtox@@M@__crt_strtox@@YA?AW4SLD_STATUS@@QEAU__crt_locale_pointers@@V?$c_string_character_source@D@0@QEAM@Z 000000014001976c f i libucrt:strtod.obj
 0001:0001880c       ??$parse_floating_point@V?$c_string_character_source@D@__crt_strtox@@N@__crt_strtox@@YA?AW4SLD_STATUS@@QEAU__crt_locale_pointers@@V?$c_string_character_source@D@0@QEAN@Z 000000014001980c f i libucrt:strtod.obj
 0001:000188ac       ??$parse_floating_point_from_source@V?$c_string_character_source@D@__crt_strtox@@@__crt_strtox@@YA?AW4floating_point_parse_result@0@QEAU__crt_locale_pointers@@AEAV?$c_string_character_source@D@0@AEAUfloating_point_string@0@@Z 00000001400198ac f i libucrt:strtod.obj
 0001:00018d5c       ??$parse_floating_point_possible_infinity@DV?$c_string_character_source@D@__crt_strtox@@PEBD@__crt_strtox@@YA?AW4floating_point_parse_result@0@AEADAEAV?$c_string_character_source@D@0@PEBD@Z 0000000140019d5c f i libucrt:strtod.obj
 0001:00018eb8       ??$parse_floating_point_possible_nan@DV?$c_string_character_source@D@__crt_strtox@@PEBD@__crt_strtox@@YA?AW4floating_point_parse_result@0@AEADAEAV?$c_string_character_source@D@0@PEBD@Z 0000000140019eb8 f i libucrt:strtod.obj
 0001:000190a4       ??$parse_floating_point_possible_nan_is_ind@DV?$c_string_character_source@D@__crt_strtox@@@__crt_strtox@@YA_NAEADAEAV?$c_string_character_source@D@0@@Z 000000014001a0a4 f i libucrt:strtod.obj
 0001:000190e8       ??$parse_floating_point_possible_nan_is_snan@DV?$c_string_character_source@D@__crt_strtox@@@__crt_strtox@@YA_NAEADAEAV?$c_string_character_source@D@0@@Z 000000014001a0e8 f i libucrt:strtod.obj
 0001:0001912c       ??$parse_floating_point_write_result@M@__crt_strtox@@YA?AW4SLD_STATUS@@W4floating_point_parse_result@0@AEBUfloating_point_string@0@QEAM@Z 000000014001a12c f i libucrt:strtod.obj
 0001:0001929c       ??$parse_floating_point_write_result@N@__crt_strtox@@YA?AW4SLD_STATUS@@W4floating_point_parse_result@0@AEBUfloating_point_string@0@QEAN@Z 000000014001a29c f i libucrt:strtod.obj
 0001:0001947c       ??0_LocaleUpdate@@QEAA@QEAU__crt_locale_pointers@@@Z 000000014001a47c f i libucrt:strtod.obj
 0001:00019518       ??1_LocaleUpdate@@QEAA@XZ  000000014001a518 f i libucrt:strtod.obj
 0001:0001952c       ?as_double@floating_point_value@__crt_strtox@@QEBAAEANXZ 000000014001a52c f i libucrt:strtod.obj
 0001:00019568       ?as_float@floating_point_value@__crt_strtox@@QEBAAEAMXZ 000000014001a568 f i libucrt:strtod.obj
 0001:000195a4       ?assemble_floating_point_value@__crt_strtox@@YA?AW4SLD_STATUS@@_KH_N1AEBVfloating_point_value@1@@Z 000000014001a5a4 f i libucrt:strtod.obj
 0001:00019944       ?assemble_floating_point_value_from_big_integer@__crt_strtox@@YA?AW4SLD_STATUS@@AEBUbig_integer@1@I_N1AEBVfloating_point_value@1@@Z 000000014001a944 f i libucrt:strtod.obj
 0001:00019aa4       ?convert_decimal_string_to_floating_type_common@__crt_strtox@@YA?AW4SLD_STATUS@@AEBUfloating_point_string@1@AEBVfloating_point_value@1@@Z 000000014001aaa4 f i libucrt:strtod.obj
 0001:0001b8f4       ?convert_hexadecimal_string_to_floating_type_common@__crt_strtox@@YA?AW4SLD_STATUS@@AEBUfloating_point_string@1@AEBVfloating_point_value@1@@Z 000000014001c8f4 f i libucrt:strtod.obj
 0001:0001b9a0       ?divide@__crt_strtox@@YA_KAEAUbig_integer@1@AEBU21@@Z 000000014001c9a0 f i libucrt:strtod.obj
 0001:0001bdcc       _ischartype_l              000000014001cdcc f i libucrt:strtod.obj
 0001:0001becc       strtod                     000000014001cecc f   libucrt:strtod.obj
 0001:0001bed4       strtof                     000000014001ced4 f   libucrt:strtod.obj
 0001:0001c0a8       ??$ensure_buffer_is_big_enough@D@formatting_buffer@__crt_stdio_output@@QEAA_N_K@Z 000000014001d0a8 f i libucrt:output.obj
 0001:0001c150       ??$type_case_integer_parse_into_buffer@I@?$output_processor@DV?$string_output_adapter@D@__crt_stdio_output@@V?$format_validation_base@DV?$string_output_adapter@D@__crt_stdio_output@@@2@@__crt_stdio_output@@AEAAXII_N@Z 000000014001d150 f i libucrt:output.obj
 0001:0001c1d8       ??$type_case_integer_parse_into_buffer@_K@?$output_processor@DV?$string_output_adapter@D@__crt_stdio_output@@V?$format_validation_base@DV?$string_output_adapter@D@__crt_stdio_output@@@2@@__crt_stdio_output@@AEAAX_KI_N@Z 000000014001d1d8 f i libucrt:output.obj
 0001:0001c268       ??$write_multiple_characters@V?$string_output_adapter@D@__crt_stdio_output@@D@__crt_stdio_output@@YAXAEBV?$string_output_adapter@D@0@DHQEAH@Z 000000014001d268 f i libucrt:output.obj
 0001:0001c2e0       ?crop_zeroes@__crt_stdio_output@@YAXPEADQEAU__crt_locale_pointers@@@Z 000000014001d2e0 f i libucrt:output.obj
 0001:0001c380       ?force_decimal_point@__crt_stdio_output@@YAXPEADQEAU__crt_locale_pointers@@@Z 000000014001d380 f i libucrt:output.obj
 0001:0001c3f8       ?parse_int_from_format_string@?$output_processor@DV?$string_output_adapter@D@__crt_stdio_output@@V?$format_validation_base@DV?$string_output_adapter@D@__crt_stdio_output@@@2@@__crt_stdio_output@@AEAA_NQEAH@Z 000000014001d3f8 f i libucrt:output.obj
 0001:0001c49c       ?process@?$output_processor@DV?$string_output_adapter@D@__crt_stdio_output@@V?$format_validation_base@DV?$string_output_adapter@D@__crt_stdio_output@@@2@@__crt_stdio_output@@QEAAHXZ 000000014001d49c f i libucrt:output.obj
 0001:0001c6b0       ?state_case_normal@?$output_processor@DV?$string_output_adapter@D@__crt_stdio_output@@V?$format_validation_base@DV?$string_output_adapter@D@__crt_stdio_output@@@2@@__crt_stdio_output@@AEAA_NXZ 000000014001d6b0 f i libucrt:output.obj
 0001:0001c724       ?state_case_normal_tchar@?$output_processor@DV?$string_output_adapter@D@__crt_stdio_output@@V?$format_validation_base@DV?$string_output_adapter@D@__crt_stdio_output@@@2@@__crt_stdio_output@@AEAA_ND@Z 000000014001d724 f i libucrt:output.obj
 0001:0001c7cc       ?state_case_size@?$output_processor@DV?$string_output_adapter@D@__crt_stdio_output@@V?$format_validation_base@DV?$string_output_adapter@D@__crt_stdio_output@@@2@@__crt_stdio_output@@AEAA_NXZ 000000014001d7cc f i libucrt:output.obj
 0001:0001c93c       ?state_case_type@?$output_processor@DV?$string_output_adapter@D@__crt_stdio_output@@V?$format_validation_base@DV?$string_output_adapter@D@__crt_stdio_output@@@2@@__crt_stdio_output@@AEAA_NXZ 000000014001d93c f i libucrt:output.obj
 0001:0001cbb0       ?to_integer_size@__crt_stdio_output@@YA_KW4length_modifier@1@@Z 000000014001dbb0 f i libucrt:output.obj
 0001:0001cc18       ?type_case_Z@?$output_processor@DV?$string_output_adapter@D@__crt_stdio_output@@V?$format_validation_base@DV?$string_output_adapter@D@__crt_stdio_output@@@2@@__crt_stdio_output@@AEAA_NXZ 000000014001dc18 f i libucrt:output.obj
 0001:0001cc8c       ?type_case_a@?$output_processor@DV?$string_output_adapter@D@__crt_stdio_output@@V?$format_validation_base@DV?$string_output_adapter@D@__crt_stdio_output@@@2@@__crt_stdio_output@@AEAA_NXZ 000000014001dc8c f i libucrt:output.obj
 0001:0001ce48       ?type_case_c_tchar@?$output_processor@DV?$string_output_adapter@D@__crt_stdio_output@@V?$format_validation_base@DV?$string_output_adapter@D@__crt_stdio_output@@@2@@__crt_stdio_output@@AEAA_ND@Z 000000014001de48 f i libucrt:output.obj
 0001:0001cf10       ?type_case_integer@?$output_processor@DV?$string_output_adapter@D@__crt_stdio_output@@V?$format_validation_base@DV?$string_output_adapter@D@__crt_stdio_output@@@2@@__crt_stdio_output@@AEAA_NI_N@Z 000000014001df10 f i libucrt:output.obj
 0001:0001d090       ?type_case_n@?$output_processor@DV?$string_output_adapter@D@__crt_stdio_output@@V?$format_validation_base@DV?$string_output_adapter@D@__crt_stdio_output@@@2@@__crt_stdio_output@@AEAA_NXZ 000000014001e090 f i libucrt:output.obj
 0001:0001d118       ?type_case_s@?$output_processor@DV?$string_output_adapter@D@__crt_stdio_output@@V?$format_validation_base@DV?$string_output_adapter@D@__crt_stdio_output@@@2@@__crt_stdio_output@@AEAA_NXZ 000000014001e118 f i libucrt:output.obj
 0001:0001d1b0       ?write_stored_string_tchar@?$output_processor@DV?$string_output_adapter@D@__crt_stdio_output@@V?$format_validation_base@DV?$string_output_adapter@D@__crt_stdio_output@@@2@@__crt_stdio_output@@AEAA_ND@Z 000000014001e1b0 f i libucrt:output.obj
 0001:0001d28c       ?write_string@?$string_output_adapter@D@__crt_stdio_output@@QEBAXQEBDHQEAHAEAV__crt_deferred_errno_cache@@@Z 000000014001e28c f i libucrt:output.obj
 0001:0001d330       __stdio_common_vsprintf_s  000000014001e330 f   libucrt:output.obj
 0001:0001d440       strcspn                    000000014001e440 f   libucrt:strcspn.obj
 0001:0001d820       strlen                     000000014001e820 f   libucrt:strlen.obj
 0001:0001d8c8       localeconv                 000000014001e8c8 f   libucrt:localeconv.obj
 0001:0001d8fc       __acrt_initialize_locks    000000014001e8fc f   libucrt:locks.obj
 0001:0001d944       __acrt_lock                000000014001e944 f   libucrt:locks.obj
 0001:0001d960       __acrt_uninitialize_locks  000000014001e960 f   libucrt:locks.obj
 0001:0001d998       __acrt_unlock              000000014001e998 f   libucrt:locks.obj
 0001:0001d9b4       _lock_locales              000000014001e9b4 f   libucrt:locks.obj
 0001:0001d9d0       _unlock_locales            000000014001e9d0 f   libucrt:locks.obj
 0001:0001d9e0       malloc                     000000014001e9e0 f   libucrt:malloc.obj
 0001:0001dcc4       setlocale                  000000014001ecc4 f   libucrt:setlocale.obj
 0001:0001dd10       __pctype_func              000000014001ed10 f   libucrt:ctype.obj
 0001:0001dd40       islower                    000000014001ed40 f   libucrt:_ctype.obj
 0001:0001ddf0       isspace                    000000014001edf0 f   libucrt:_ctype.obj
 0001:0001dea0       isupper                    000000014001eea0 f   libucrt:_ctype.obj
 0001:0001df48       ___lc_codepage_func        000000014001ef48 f   libucrt:initctype.obj
 0001:0001df78       ___lc_locale_name_func     000000014001ef78 f   libucrt:initctype.obj
 0001:0001dfac       ___mb_cur_max_func         000000014001efac f   libucrt:initctype.obj
 0001:0001dfdc       __acrt_locale_initialize_ctype 000000014001efdc f   libucrt:initctype.obj
 0001:0001e640       _wcsdup                    000000014001f640 f   libucrt:wcsdup.obj
 0001:0001e6c4       _tolower_l                 000000014001f6c4 f   libucrt:tolower_toupper.obj
 0001:0001e800       tolower                    000000014001f800 f   libucrt:tolower_toupper.obj
 0001:0001e82c       __acrt_initialize_stdio    000000014001f82c f   libucrt:_file.obj
 0001:0001e94c       __acrt_iob_func            000000014001f94c f   libucrt:_file.obj
 0001:0001e960       __acrt_uninitialize_stdio  000000014001f960 f   libucrt:_file.obj
 0001:0001e9bc       _get_stream_buffer_pointers 000000014001f9bc f   libucrt:_file.obj
 0001:0001ea04       _lock_file                 000000014001fa04 f   libucrt:_file.obj
 0001:0001ea10       _unlock_file               000000014001fa10 f   libucrt:_file.obj
 0001:0001ea1c       _fclose_nolock             000000014001fa1c f   libucrt:fclose.obj
 0001:0001eaa0       fclose                     000000014001faa0 f   libucrt:fclose.obj
 0001:0001ed20       __acrt_stdio_flush_nolock  000000014001fd20 f   libucrt:fflush.obj
 0001:0001ed9c       _fflush_nolock             000000014001fd9c f   libucrt:fflush.obj
 0001:0001ede8       _flushall                  000000014001fde8 f   libucrt:fflush.obj
 0001:0001edf0       fflush                     000000014001fdf0 f   libucrt:fflush.obj
 0001:0001ee58       _fgetc_nolock              000000014001fe58 f   libucrt:fgetc.obj
 0001:0001ee9c       fgetc                      000000014001fe9c f   libucrt:fgetc.obj
 0001:0001efa4       fgetpos                    000000014001ffa4 f   libucrt:fgetpos.obj
 0001:0001eff0       fputc                      000000014001fff0 f   libucrt:fputc.obj
 0001:0001f114       _fread_nolock_s            0000000140020114 f   libucrt:fread.obj
 0001:0001f374       fread                      0000000140020374 f   libucrt:fread.obj
 0001:0001f394       fread_s                    0000000140020394 f   libucrt:fread.obj
 0001:0001f43c       fsetpos                    000000014002043c f   libucrt:fsetpos.obj
 0001:0001f67c       _fseeki64                  000000014002067c f   libucrt:fseek.obj
 0001:0001f728       _fwrite_nolock             0000000140020728 f   libucrt:fwrite.obj
 0001:0001f8d4       fwrite                     00000001400208d4 f   libucrt:fwrite.obj
 0001:0001fa7c       setvbuf                    0000000140020a7c f   libucrt:setvbuf.obj
 0001:0001fb18       _ungetc_nolock             0000000140020b18 f   libucrt:ungetc.obj
 0001:0001fc40       ungetc                     0000000140020c40 f   libucrt:ungetc.obj
 0001:0001fc98       abort                      0000000140020c98 f   libucrt:abort.obj
 0001:0001fcf0       __strncnt                  0000000140020cf0 f   libucrt:strncnt.obj
 0001:0001fd08       ??$__acrt_mbs_to_wcs_cp@U__crt_win32_buffer_internal_dynamic_resizing@@@@YAHQEBDAEAV?$__crt_win32_buffer@_WU__crt_win32_buffer_internal_dynamic_resizing@@@@I@Z 0000000140020d08 f i libucrt:strftime.obj
 0001:0001fe80       ??$__acrt_wcs_to_mbs_cp@U__crt_win32_buffer_no_resizing@@@@YAHQEB_WAEAV?$__crt_win32_buffer@DU__crt_win32_buffer_no_resizing@@@@I@Z 0000000140020e80 f i libucrt:strftime.obj
 0001:0001ff94       strnlen                    0000000140020f94 f   libucrt:strnlen.obj
 0001:000200e4       wcsnlen                    00000001400210e4 f   libucrt:strnlen.obj
 0001:000202bc       __acrt_initialize_new_handler 00000001400212bc f   libucrt:new_handler.obj
 0001:000202c4       _callnewh                  00000001400212c4 f   libucrt:new_handler.obj
 0001:000202f4       _query_new_handler         00000001400212f4 f   libucrt:new_handler.obj
 0001:00020328       _seh_filter_exe            0000000140021328 f   libucrt:exception_filter.obj
 0001:000204ac       _query_app_type            00000001400214ac f   libucrt:report_runtime_error.obj
 0001:000204b4       _set_app_type              00000001400214b4 f   libucrt:report_runtime_error.obj
 0001:000204bc       __acrt_has_user_matherr    00000001400214bc f   libucrt:matherr.obj
 0001:000204dc       __acrt_initialize_user_matherr 00000001400214dc f   libucrt:matherr.obj
 0001:000204e4       __acrt_invoke_user_matherr 00000001400214e4 f   libucrt:matherr.obj
 0001:00020514       __setusermatherr           0000000140021514 f   libucrt:matherr.obj
 0001:000206fc       __acrt_allocate_buffer_for_argv 00000001400216fc f   libucrt:argv_parsing.obj
 0001:0002075c       _configure_narrow_argv     000000014002175c f   libucrt:argv_parsing.obj
 0001:00020ba8       __dcrt_get_or_create_narrow_environment_nolock 0000000140021ba8 f   libucrt:environment_initialization.obj
 0001:00020be4       __dcrt_uninitialize_environments_nolock 0000000140021be4 f   libucrt:environment_initialization.obj
 0001:00020c1c       _get_initial_narrow_environment 0000000140021c1c f   libucrt:environment_initialization.obj
 0001:00020c6c       _initialize_narrow_environment 0000000140021c6c f   libucrt:environment_initialization.obj
 0001:00020c74       _initterm                  0000000140021c74 f   libucrt:initterm.obj
 0001:00020cd8       _initterm_e                0000000140021cd8 f   libucrt:initterm.obj
 0001:00020f84       __acrt_initialize_thread_local_exit_callback 0000000140021f84 f   libucrt:exit.obj
 0001:00020f8c       _c_exit                    0000000140021f8c f   libucrt:exit.obj
 0001:00020f9c       _cexit                     0000000140021f9c f   libucrt:exit.obj
 0001:00020fac       _exit                      0000000140021fac f   libucrt:exit.obj
 0001:00020fb8       _register_thread_local_exe_atexit_callback 0000000140021fb8 f   libucrt:exit.obj
 0001:00020ff4       exit                       0000000140021ff4 f   libucrt:exit.obj
 0001:00021000       _set_fmode                 0000000140022000 f   libucrt:setmode.obj
 0001:00021040       __acrt_initialize_command_line 0000000140022040 f   libucrt:argv_data.obj
 0001:00021068       __p___argc                 0000000140022068 f   libucrt:argv_data.obj
 0001:00021070       __p___argv                 0000000140022070 f   libucrt:argv_data.obj
 0001:000212e0       ?commit_locale_name@_expandlocale_locale_name_cache@@QEAAXQEB_W_K@Z 00000001400222e0 f i libucrt:wsetlocale.obj
 0001:00021358       __acrt_copy_locale_name    0000000140022358 f   libucrt:wsetlocale.obj
 0001:000213dc       __acrt_set_locale_changed  00000001400223dc f   libucrt:wsetlocale.obj
 0001:000213e8       __acrt_uninitialize_locale 00000001400223e8 f   libucrt:wsetlocale.obj
 0001:00021418       __lc_lctowcs               0000000140022418 f   libucrt:wsetlocale.obj
 0001:000214bc       __lc_wcstolc               00000001400224bc f   libucrt:wsetlocale.obj
 0001:00021624       _configthreadlocale        0000000140022624 f   libucrt:wsetlocale.obj
 0001:00021bd0       _wcscats                   0000000140022bd0 f   libucrt:wsetlocale.obj
 0001:00021c38       _wsetlocale                0000000140022c38 f   libucrt:wsetlocale.obj
 0001:00022988       _query_new_mode            0000000140023988 f   libucrt:new_mode.obj
 0001:00022990       _set_new_mode              0000000140023990 f   libucrt:new_mode.obj
 0001:000229bc       __p__commode               00000001400239bc f   libucrt:ncommode.obj
 0001:00022d04       _crt_atexit                0000000140023d04 f   libucrt:onexit.obj
 0001:00022d14       _execute_onexit_table      0000000140023d14 f   libucrt:onexit.obj
 0001:00022d50       _initialize_onexit_table   0000000140023d50 f   libucrt:onexit.obj
 0001:00022d78       _register_onexit_function  0000000140023d78 f   libucrt:onexit.obj
 0001:00022eec       __acrt_initialize          0000000140023eec f   libucrt:initialization.obj
 0001:00022f00       __acrt_uninitialize        0000000140023f00 f   libucrt:initialization.obj
 0001:00022f38       terminate                  0000000140023f38 f   libucrt:terminate.obj
 0001:00022f58       strcpy_s                   0000000140023f58 f   libucrt:strcpy_s.obj
 0001:00022fb8       ??$parse_integer@KV?$c_string_character_source@D@__crt_strtox@@@__crt_strtox@@YAKQEAU__crt_locale_pointers@@V?$c_string_character_source@D@0@H_N@Z 0000000140023fb8 f i libucrt:atox.obj
 0001:000232bc       ??$parse_integer@KV?$c_string_character_source@_W@__crt_strtox@@@__crt_strtox@@YAKQEAU__crt_locale_pointers@@V?$c_string_character_source@_W@0@H_N@Z 00000001400242bc f i libucrt:atox.obj
 0001:00023964       _wtol                      0000000140024964 f   libucrt:atox.obj
 0001:000239a0       strncmp                    00000001400249a0 f   libucrt:strncmp.obj
 0001:00023a20       wcsncmp                    0000000140024a20 f   libucrt:wcsncmp.obj
 0001:00023dc4       __acrt_getptd              0000000140024dc4 f   libucrt:per_thread_data.obj
 0001:00023e98       __acrt_getptd_head         0000000140024e98 f   libucrt:per_thread_data.obj
 0001:00023f40       __acrt_getptd_noexit       0000000140024f40 f   libucrt:per_thread_data.obj
 0001:0002400c       __acrt_initialize_ptd      000000014002500c f   libucrt:per_thread_data.obj
 0001:00024048       __acrt_uninitialize_ptd    0000000140025048 f   libucrt:per_thread_data.obj
 0001:00024070       __acrt_initialize_fma3     0000000140025070 f   libucrt:fma3_available.obj
 0001:000240e0       _pow_special               00000001400250e0 f   libucrt:pow_special.obj
 0001:00024204       _powf_special              0000000140025204 f   libucrt:pow_special.obj
 0001:00024390       _dsign                     0000000140025390 f   libucrt:nan.obj
 0001:000243a8       _errcode                   00000001400253a8 f   libucrt:fpexcept.obj
 0001:000243ec       _except1                   00000001400253ec f   libucrt:fpexcept.obj
 0001:000244e0       _except2                   00000001400254e0 f   libucrt:fpexcept.obj
 0001:000245e8       _handle_exc                00000001400255e8 f   libucrt:fpexcept.obj
 0001:00024850       _handle_qnan2              0000000140025850 f   libucrt:fpexcept.obj
 0001:00024858       _raise_exc                 0000000140025858 f   libucrt:fpexcept.obj
 0001:00024880       _raise_exc_ex              0000000140025880 f   libucrt:fpexcept.obj
 0001:00024b90       _raise_excf                0000000140025b90 f   libucrt:fpexcept.obj
 0001:00024bbc       _set_errno_from_matherr    0000000140025bbc f   libucrt:fpexcept.obj
 0001:00024bec       _umatherr                  0000000140025bec f   libucrt:fpexcept.obj
 0001:00024cc0       _decomp                    0000000140025cc0 f   libucrt:util.obj
 0001:00024df0       _set_exp                   0000000140025df0 f   libucrt:util.obj
 0001:00024e28       _sptype                    0000000140025e28 f   libucrt:util.obj
 0001:00024e9c       _clrfp                     0000000140025e9c f   libucrt:fpctrl.obj
 0001:00024ebc       _ctrlfp                    0000000140025ebc f   libucrt:fpctrl.obj
 0001:00024f38       _set_statfp                0000000140025f38 f   libucrt:fpctrl.obj
 0001:00024f58       _statfp                    0000000140025f58 f   libucrt:fpctrl.obj
 0001:00024f6c       _copysign                  0000000140025f6c f   libucrt:_copysign.obj
 0001:00024fa0       _calloc_base               0000000140025fa0 f   libucrt:calloc_base.obj
 0001:00025018       _free_base                 0000000140026018 f   libucrt:free_base.obj
 0001:00025058       iswctype                   0000000140026058 f   libucrt:iswctype.obj
 0001:000250c4       _isctype_l                 00000001400260c4 f   libucrt:isctype.obj
 0001:000251cc       __acrt_update_locale_info  00000001400261cc f   libucrt:locale_update.obj
 0001:00025200       __acrt_update_multibyte_info 0000000140026200 f   libucrt:locale_update.obj
 0001:00025234       fegetround                 0000000140026234 f   libucrt:fegetround.obj
 0001:00025248       _malloc_base               0000000140026248 f   libucrt:malloc_base.obj
 0001:000252a8       strtol                     00000001400262a8 f   libucrt:strtox.obj
 0001:000252d4       _mbtowc_l                  00000001400262d4 f   libucrt:mbtowc.obj
 0001:00025454       mbtowc                     0000000140026454 f   libucrt:mbtowc.obj
 0001:0002545c       _wctomb_s_l                000000014002645c f   libucrt:wctomb.obj
 0001:00026004       __acrt_fp_format           0000000140027004 f   libucrt:cvt.obj
 0001:0002633c       _fileno                    000000014002733c f   libucrt:fileno.obj
 0001:00026364       _get_printf_count_output   0000000140027364 f   libucrt:printf_count_output.obj
 0001:0002637c       __acrt_should_use_temporary_buffer 000000014002737c f   libucrt:_sftbuf.obj
 0001:000263c4       __acrt_stdio_begin_temporary_buffering_nolock 00000001400273c4 f   libucrt:_sftbuf.obj
 0001:0002648c       __acrt_stdio_end_temporary_buffering_nolock 000000014002748c f   libucrt:_sftbuf.obj
 0001:000266c4       __acrt_initialize_lowio    00000001400276c4 f   libucrt:ioinit.obj
 0001:00026700       __acrt_uninitialize_lowio  0000000140027700 f   libucrt:ioinit.obj
 0001:000269bc       __acrt_AppPolicyGetProcessTerminationMethodInternal 00000001400279bc f   libucrt:winapi_thunks.obj
 0001:00026a0c       __acrt_AreFileApisANSI     0000000140027a0c f   libucrt:winapi_thunks.obj
 0001:00026a48       __acrt_CompareStringEx     0000000140027a48 f   libucrt:winapi_thunks.obj
 0001:00026b24       __acrt_EnumSystemLocalesEx 0000000140027b24 f   libucrt:winapi_thunks.obj
 0001:00026bbc       __acrt_FlsAlloc            0000000140027bbc f   libucrt:winapi_thunks.obj
 0001:00026c04       __acrt_FlsFree             0000000140027c04 f   libucrt:winapi_thunks.obj
 0001:00026c4c       __acrt_FlsGetValue         0000000140027c4c f   libucrt:winapi_thunks.obj
 0001:00026c94       __acrt_FlsSetValue         0000000140027c94 f   libucrt:winapi_thunks.obj
 0001:00026ce8       __acrt_GetLocaleInfoEx     0000000140027ce8 f   libucrt:winapi_thunks.obj
 0001:00026d6c       __acrt_GetUserDefaultLocaleName 0000000140027d6c f   libucrt:winapi_thunks.obj
 0001:00026dd0       __acrt_InitializeCriticalSectionEx 0000000140027dd0 f   libucrt:winapi_thunks.obj
 0001:00026e34       __acrt_IsValidLocaleName   0000000140027e34 f   libucrt:winapi_thunks.obj
 0001:00026e8c       __acrt_LCIDToLocaleName    0000000140027e8c f   libucrt:winapi_thunks.obj
 0001:00026efc       __acrt_LCMapStringEx       0000000140027efc f   libucrt:winapi_thunks.obj
 0001:00026fd8       __acrt_LocaleNameToLCID    0000000140027fd8 f   libucrt:winapi_thunks.obj
 0001:00027028       __acrt_can_use_vista_locale_apis 0000000140028028 f   libucrt:winapi_thunks.obj
 0001:00027058       __acrt_eagerly_load_locale_apis 0000000140028058 f   libucrt:winapi_thunks.obj
 0001:000271b4       __acrt_initialize_winapi_thunks 00000001400281b4 f   libucrt:winapi_thunks.obj
 0001:000271e8       __acrt_uninitialize_winapi_thunks 00000001400281e8 f   libucrt:winapi_thunks.obj
 0001:0002742c       _mbstowcs_s_l              000000014002842c f   libucrt:mbstowcs.obj
 0001:00027560       mbstowcs_s                 0000000140028560 f   libucrt:mbstowcs.obj
 0001:000278dc       _wcstombs_s_l              00000001400288dc f   libucrt:wcstombs.obj
 0001:00027b40       __acrt_GetLocaleInfoA      0000000140028b40 f   libucrt:getlocaleinfoa.obj
 0001:00027d08       __acrt_GetStringTypeA      0000000140028d08 f   libucrt:getstringtypea.obj
 0001:000281b0       __acrt_LCMapStringA        00000001400291b0 f   libucrt:lcmapstringa.obj
 0001:00028248       wcscpy_s                   0000000140029248 f   libucrt:wcscpy_s.obj
 0001:000282b0       _isleadbyte_l              00000001400292b0 f i libucrt:_wctype.obj
 0001:000282fc       _fcloseall                 00000001400292fc f   libucrt:closeall.obj
 0001:000283b0       __acrt_stdio_free_buffer_nolock 00000001400293b0 f   libucrt:_freebuf.obj
 0001:00028464       _close                     0000000140029464 f   libucrt:close.obj
 0001:00028508       _close_nolock              0000000140029508 f   libucrt:close.obj
 0001:000285c8       ?__acrt_stdio_free_stream@@YAXV__crt_stdio_stream@@@Z 00000001400295c8 f   libucrt:stream.obj
 0001:00028670       _commit                    0000000140029670 f   libucrt:commit.obj
 0001:00028f80       _write                     0000000140029f80 f   libucrt:write.obj
 0001:0002906c       _write_nolock              000000014002a06c f   libucrt:write.obj
 0001:00029350       __acrt_stdio_refill_and_read_narrow_nolock 000000014002a350 f   libucrt:_filbuf.obj
 0001:0002998c       _ftelli64                  000000014002a98c f   libucrt:ftell.obj
 0001:00029994       _ftelli64_nolock           000000014002a994 f   libucrt:ftell.obj
 0001:00029afc       __acrt_stdio_flush_and_write_narrow_nolock 000000014002aafc f   libucrt:_flsbuf.obj
 0001:0002a11c       _read                      000000014002b11c f   libucrt:read.obj
 0001:0002a238       _read_nolock               000000014002b238 f   libucrt:read.obj
 0001:0002a81c       _lseeki64                  000000014002b81c f   libucrt:lseek.obj
 0001:0002a824       _lseeki64_nolock           000000014002b824 f   libucrt:lseek.obj
 0001:0002a82c       __acrt_stdio_allocate_buffer_nolock 000000014002b82c f   libucrt:_getbuf.obj
 0001:0002a898       _realloc_base              000000014002b898 f   libucrt:realloc_base.obj
 0001:0002a95c       __acrt_get_sigabrt_handler 000000014002b95c f   libucrt:signal.obj
 0001:0002a98c       __acrt_initialize_signal_handlers 000000014002b98c f   libucrt:signal.obj
 0001:0002a9ac       raise                      000000014002b9ac f   libucrt:signal.obj
 0001:0002ac18       __acrt_MultiByteToWideChar 000000014002bc18 f   libucrt:multibytetowidechar.obj
 0001:0002ac74       __acrt_WideCharToMultiByte 000000014002bc74 f   libucrt:widechartomultibyte.obj
 0001:0002ad24       __ascii_wcsicmp            000000014002bd24 f   libucrt:wcsicmp.obj
 0001:0002ad64       _wcsicmp                   000000014002bd64 f   libucrt:wcsicmp.obj
 0001:0002adac       _wcsicmp_l                 000000014002bdac f   libucrt:wcsicmp.obj
 0001:0002aed4       __acrt_initialize_timeset  000000014002bed4 f   libucrt:timeset.obj
 0001:0002af24       wcscat_s                   000000014002bf24 f   libucrt:wcscat_s.obj
 0001:0002afa4       wcsncpy_s                  000000014002bfa4 f   libucrt:wcsncpy_s.obj
 0001:0002b09c       ??$__acrt_wcs_to_mbs_cp@U__crt_win32_buffer_internal_dynamic_resizing@@@@YAHQEB_WAEAV?$__crt_win32_buffer@DU__crt_win32_buffer_internal_dynamic_resizing@@@@I@Z 000000014002c09c f i libucrt:argv_wildcards.obj
 0001:0002b8cc       __acrt_expand_narrow_argv_wildcards 000000014002c8cc f   libucrt:argv_wildcards.obj
 0001:0002b8d4       __acrt_GetModuleFileNameA  000000014002c8d4 f   libucrt:getmodulefilenamea.obj
 0001:0002c11c       __acrt_initialize_multibyte 000000014002d11c f   libucrt:mbctype.obj
 0001:0002c17c       __acrt_update_thread_multibyte_data 000000014002d17c f   libucrt:mbctype.obj
 0001:0002c198       _setmbcp_nolock            000000014002d198 f   libucrt:mbctype.obj
 0001:0002c4cc       _ismbblead                 000000014002d4cc f   libucrt:ismbbyte.obj
 0001:0002c4e0       __dcrt_get_narrow_environment_from_os 000000014002d4e0 f   libucrt:get_environment_from_os.obj
 0001:0002c9ec       __dcrt_set_variable_in_narrow_environment_nolock 000000014002d9ec f   libucrt:setenv.obj
 0001:0002c9f4       __acrt_get_process_end_policy 000000014002d9f4 f   libucrt:win_policies.obj
 0001:0002ca30       __acrt_lowio_create_handle_array 000000014002da30 f   libucrt:osfinfo.obj
 0001:0002cad8       __acrt_lowio_destroy_handle_array 000000014002dad8 f   libucrt:osfinfo.obj
 0001:0002cb28       __acrt_lowio_ensure_fh_exists 000000014002db28 f   libucrt:osfinfo.obj
 0001:0002cbd0       __acrt_lowio_lock_fh       000000014002dbd0 f   libucrt:osfinfo.obj
 0001:0002cbf8       __acrt_lowio_unlock_fh     000000014002dbf8 f   libucrt:osfinfo.obj
 0001:0002cc20       _free_osfhnd               000000014002dc20 f   libucrt:osfinfo.obj
 0001:0002ccdc       _get_osfhandle             000000014002dcdc f   libucrt:osfinfo.obj
 0001:0002cd54       __acrt_initialize_fmode    000000014002dd54 f   libucrt:txtmode.obj
 0001:0002cd70       __acrt_locale_free_monetary 000000014002dd70 f   libucrt:initmon.obj
 0001:0002ce7c       __acrt_locale_initialize_monetary 000000014002de7c f   libucrt:initmon.obj
 0001:0002d3b0       __acrt_locale_free_numeric 000000014002e3b0 f   libucrt:initnum.obj
 0001:0002d41c       __acrt_locale_initialize_numeric 000000014002e41c f   libucrt:initnum.obj
 0001:0002da9c       __acrt_locale_free_time    000000014002ea9c f   libucrt:inittime.obj
 0001:0002dba4       __acrt_locale_initialize_time 000000014002eba4 f   libucrt:inittime.obj
 0001:0002dc40       wcsncat_s                  000000014002ec40 f   libucrt:wcsncat_s.obj
 0001:0002dd40       wcscspn                    000000014002ed40 f   libucrt:wcscspn.obj
 0001:0002dd80       wcspbrk                    000000014002ed80 f   libucrt:wcspbrk.obj
 0001:0002ddb4       __acrt_add_locale_ref      000000014002edb4 f   libucrt:locale_refcounting.obj
 0001:0002de40       __acrt_free_locale         000000014002ee40 f   libucrt:locale_refcounting.obj
 0001:0002dfb8       __acrt_locale_add_lc_time_reference 000000014002efb8 f   libucrt:locale_refcounting.obj
 0001:0002dfe0       __acrt_locale_free_lc_time_if_unreferenced 000000014002efe0 f   libucrt:locale_refcounting.obj
 0001:0002e018       __acrt_locale_release_lc_time_reference 000000014002f018 f   libucrt:locale_refcounting.obj
 0001:0002e040       __acrt_release_locale_ref  000000014002f040 f   libucrt:locale_refcounting.obj
 0001:0002e0e8       __acrt_update_thread_locale_data 000000014002f0e8 f   libucrt:locale_refcounting.obj
 0001:0002e158       _updatetlocinfoEx_nolock   000000014002f158 f   libucrt:locale_refcounting.obj
 0001:0002e974       __acrt_get_qualified_locale 000000014002f974 f   libucrt:get_qualified_locale.obj
 0001:0002f3a8       __acrt_get_qualified_locale_downlevel 00000001400303a8 f   libucrt:getqloc_downlevel.obj
 0001:0002f628       _recalloc_base             0000000140030628 f   libucrt:recalloc.obj
 0001:0002f6c0       __acrt_initialize_heap     00000001400306c0 f   libucrt:heap_handle.obj
 0001:0002f6dc       __acrt_uninitialize_heap   00000001400306dc f   libucrt:heap_handle.obj
 0001:0002f6e8       __acrt_execute_initializers 00000001400306e8 f   libucrt:shared_initialization.obj
 0001:0002f768       __acrt_execute_uninitializers 0000000140030768 f   libucrt:shared_initialization.obj
 0001:0002f8c8       _handle_error              00000001400308c8 f   libucrt:libm_error.obj
 0001:0002f9f0       _handle_errorf             00000001400309f0 f   libucrt:libm_error.obj
 0001:0002fb24       _handle_nan                0000000140030b24 f   libucrt:libm_error.obj
 0001:0002fb40       _handle_nanf               0000000140030b40 f   libucrt:libm_error.obj
 0001:0002fb60       _get_fpsr                  0000000140030b60 f   libucrt:fpsr.obj
 0001:0002fb70       _set_fpsr                  0000000140030b70 f   libucrt:fpsr.obj
 0001:0002fb7a       _fclrf                     0000000140030b7a f   libucrt:fpsr.obj
 0001:0002fb8e       _frnd                      0000000140030b8e f   libucrt:fpsr.obj
 0001:0002fbb0       __acrt_GetStringTypeW      0000000140030bb0 f   libucrt:getstringtypew.obj
 0001:0002fbb8       __acrt_fenv_get_common_round_control 0000000140030bb8 f   libucrt:_fenvutils.obj
 0001:0002fbc4       __acrt_fenv_get_control    0000000140030bc4 f   libucrt:_fenvutils.obj
 0001:0002fcb8       __acrt_fenv_get_status     0000000140030cb8 f   libucrt:_fenvutils.obj
 0001:0002fd0c       __acrt_fenv_set_control    0000000140030d0c f   libucrt:_fenvutils.obj
 0001:0002fe54       __acrt_fenv_set_status     0000000140030e54 f   libucrt:_fenvutils.obj
 0001:0002fed8       ?__mbrtowc_utf8@__crt_mbstring@@YA_KPEA_WPEBD_KPEAU_Mbstatet@@@Z 0000000140030ed8 f   libucrt:mbrtowc.obj
 0001:0002ff14       ?__mbsrtowcs_utf8@__crt_mbstring@@YA_KPEA_WPEAPEBD_KPEAU_Mbstatet@@@Z 0000000140030f14 f   libucrt:mbrtowc.obj
 0001:0003008c       ?__c32rtomb_utf8@__crt_mbstring@@YA_KPEAD_UPEAU_Mbstatet@@@Z 000000014003108c f   libucrt:c32rtomb.obj
 0001:00030140       c32rtomb                   0000000140031140 f   libucrt:c32rtomb.obj
 0001:00030148       __acrt_fp_strflt_to_string 0000000140031148 f   libucrt:_fptostr.obj
 0001:000302a4       __acrt_fltout              00000001400312a4 f   libucrt:cfout.obj
 0001:000314e8       _isatty                    00000001400324e8 f   libucrt:isatty.obj
 0001:00031548       __acrt_DownlevelLCIDToLocaleName 0000000140032548 f   libucrt:lcidtoname_downlevel.obj
 0001:0003163c       __acrt_DownlevelLocaleNameToLCID 000000014003263c f   libucrt:lcidtoname_downlevel.obj
 0001:000316ec       ?__wcsrtombs_utf8@__crt_mbstring@@YA_KPEADPEAPEB_W_KPEAU_Mbstatet@@@Z 00000001400326ec f   libucrt:wcrtomb.obj
 0001:00031808       strncpy_s                  0000000140032808 f   libucrt:strncpy_s.obj
 0001:000318dc       _putwch_nolock             00000001400328dc f   libucrt:putwch.obj
 0001:00031918       _towlower_l                0000000140032918 f   libucrt:towlower.obj
 0001:000319e0       qsort                      00000001400329e0 f   libucrt:qsort.obj
 0001:00031e20       strpbrk                    0000000140032e20 f   libucrt:strpbrk.obj
 0001:000321e8       _mbsdec                    00000001400331e8 f   libucrt:mbsdec.obj
 0001:000321f0       _mbsdec_l                  00000001400331f0 f   libucrt:mbsdec.obj
 0001:0003229c       _strnicoll                 000000014003329c f   libucrt:strnicol.obj
 0001:000322b4       _strnicoll_l               00000001400332b4 f   libucrt:strnicol.obj
 0001:000323b4       __acrt_SetEnvironmentVariableA 00000001400333b4 f   libucrt:setenvironmentvariablea.obj
 0001:0003268c       _itow_s                    000000014003368c f   libucrt:xtoa.obj
 0001:000326ac       __ascii_wcsnicmp           00000001400336ac f   libucrt:wcsnicmp.obj
 0001:000326f8       _wcsnicmp                  00000001400336f8 f   libucrt:wcsnicmp.obj
 0001:00032740       _wcsnicmp_l                0000000140033740 f   libucrt:wcsnicmp.obj
 0001:00032890       wcscmp                     0000000140033890 f   libucrt:wcscmp.obj
 0001:000328c8       _msize_base                00000001400338c8 f   libucrt:msize.obj
 0001:00032904       ?__mbrtoc32_utf8@__crt_mbstring@@YA_KPEA_UPEBD_KPEAU_Mbstatet@@@Z 0000000140033904 f   libucrt:mbrtoc32.obj
 0001:00032adc       _controlfp_s               0000000140033adc f   libucrt:contrlfp.obj
 0001:00032b40       fegetenv                   0000000140033b40 f   libucrt:fegetenv.obj
 0001:00032b60       fesetenv                   0000000140033b60 f   libucrt:fesetenv.obj
 0001:00032bac       feholdexcept               0000000140033bac f   libucrt:feholdexcept.obj
 0001:00032bfc       ceil                       0000000140033bfc f   libucrt:ceil.obj
 0001:00032cc0       log10                      0000000140033cc0 f   libucrt:log10.obj
 0001:0003326c       ?__c16rtomb_utf8@__crt_mbstring@@YA_KPEAD_SPEAU_Mbstatet@@@Z 000000014003426c f   libucrt:c16rtomb.obj
 0001:00033310       __dcrt_lowio_ensure_console_output_initialized 0000000140034310 f   libucrt:initcon.obj
 0001:00033364       __dcrt_terminate_console_output 0000000140034364 f   libucrt:initcon.obj
 0001:00033380       __dcrt_write_console       0000000140034380 f   libucrt:initcon.obj
 0001:00033440       __acrt_LCMapStringW        0000000140034440 f   libucrt:lcmapstringw.obj
 0001:000334c8       __ascii_strnicmp           00000001400344c8 f   libucrt:strnicmp.obj
 0001:00033514       _strnicmp                  0000000140034514 f   libucrt:strnicmp.obj
 0001:00033564       _strnicmp_l                0000000140034564 f   libucrt:strnicmp.obj
 0001:00033974       __acrt_CompareStringA      0000000140034974 f   libucrt:comparestringa.obj
 0001:00033a00       _clearfp                   0000000140034a00 f   libucrt:ieee.obj
 0001:00033a70       _control87                 0000000140034a70 f   libucrt:ieee.obj
 0001:00033d40       _log10_special             0000000140034d40 f   libucrt:log_special.obj
 0001:00033e00       _FindPESection             0000000140034e00 f   LIBCMT:pesect.obj
 0001:00033e50       _IsNonwritableInCurrentImage 0000000140034e50 f   LIBCMT:pesect.obj
 0001:00033ea0       _ValidateImageBase         0000000140034ea0 f   LIBCMT:pesect.obj
 0001:00033ecc       __GSHandlerCheck_SEH       0000000140034ecc f   LIBCMT:gshandlerseh.obj
 0001:00033f54       __GSHandlerCheck_EH        0000000140034f54 f   LIBCMT:gshandlereh.obj
 0001:00033fd4       _local_unwind              0000000140034fd4 f   libvcruntime:jmpuwind.obj
 0001:00034000       strrchr                    0000000140035000 f   libvcruntime:strrchr.obj
 0001:0003413c       strchr                     000000014003513c f   libvcruntime:strchr.obj
 0001:000341bc       wcschr                     00000001400351bc f   libvcruntime:wcschr.obj
 0001:00034250       _guard_dispatch_icall_nop  0000000140035250 f   LIBCMT:guard_dispatch.obj
 0001:00034270       _guard_xfg_dispatch_icall_nop 0000000140035270 f   LIBCMT:guard_xfg_dispatch.obj
 0002:00000000       __imp_WideCharToMultiByte  0000000140037000     kernel32:KERNEL32.dll
 0002:00000008       __imp_EnterCriticalSection 0000000140037008     kernel32:KERNEL32.dll
 0002:00000010       __imp_LeaveCriticalSection 0000000140037010     kernel32:KERNEL32.dll
 0002:00000018       __imp_InitializeCriticalSectionEx 0000000140037018     kernel32:KERNEL32.dll
 0002:00000020       __imp_DeleteCriticalSection 0000000140037020     kernel32:KERNEL32.dll
 0002:00000028       __imp_EncodePointer        0000000140037028     kernel32:KERNEL32.dll
 0002:00000030       __imp_DecodePointer        0000000140037030     kernel32:KERNEL32.dll
 0002:00000038       __imp_MultiByteToWideChar  0000000140037038     kernel32:KERNEL32.dll
 0002:00000040       __imp_LCMapStringEx        0000000140037040     kernel32:KERNEL32.dll
 0002:00000048       __imp_GetStringTypeW       0000000140037048     kernel32:KERNEL32.dll
 0002:00000050       __imp_GetCPInfo            0000000140037050     kernel32:KERNEL32.dll
 0002:00000058       __imp_RtlCaptureContext    0000000140037058     kernel32:KERNEL32.dll
 0002:00000060       __imp_RtlLookupFunctionEntry 0000000140037060     kernel32:KERNEL32.dll
 0002:00000068       __imp_RtlVirtualUnwind     0000000140037068     kernel32:KERNEL32.dll
 0002:00000070       __imp_UnhandledExceptionFilter 0000000140037070     kernel32:KERNEL32.dll
 0002:00000078       __imp_SetUnhandledExceptionFilter 0000000140037078     kernel32:KERNEL32.dll
 0002:00000080       __imp_GetCurrentProcess    0000000140037080     kernel32:KERNEL32.dll
 0002:00000088       __imp_TerminateProcess     0000000140037088     kernel32:KERNEL32.dll
 0002:00000090       __imp_IsProcessorFeaturePresent 0000000140037090     kernel32:KERNEL32.dll
 0002:00000098       __imp_QueryPerformanceCounter 0000000140037098     kernel32:KERNEL32.dll
 0002:000000a0       __imp_GetCurrentProcessId  00000001400370a0     kernel32:KERNEL32.dll
 0002:000000a8       __imp_GetCurrentThreadId   00000001400370a8     kernel32:KERNEL32.dll
 0002:000000b0       __imp_GetSystemTimeAsFileTime 00000001400370b0     kernel32:KERNEL32.dll
 0002:000000b8       __imp_InitializeSListHead  00000001400370b8     kernel32:KERNEL32.dll
 0002:000000c0       __imp_IsDebuggerPresent    00000001400370c0     kernel32:KERNEL32.dll
 0002:000000c8       __imp_GetStartupInfoW      00000001400370c8     kernel32:KERNEL32.dll
 0002:000000d0       __imp_GetModuleHandleW     00000001400370d0     kernel32:KERNEL32.dll
 0002:000000d8       __imp_WriteConsoleW        00000001400370d8     kernel32:KERNEL32.dll
 0002:000000e0       __imp_RtlPcToFileHeader    00000001400370e0     kernel32:KERNEL32.dll
 0002:000000e8       __imp_RaiseException       00000001400370e8     kernel32:KERNEL32.dll
 0002:000000f0       __imp_RtlUnwindEx          00000001400370f0     kernel32:KERNEL32.dll
 0002:000000f8       __imp_GetLastError         00000001400370f8     kernel32:KERNEL32.dll
 0002:00000100       __imp_SetLastError         0000000140037100     kernel32:KERNEL32.dll
 0002:00000108       __imp_InitializeCriticalSectionAndSpinCount 0000000140037108     kernel32:KERNEL32.dll
 0002:00000110       __imp_TlsAlloc             0000000140037110     kernel32:KERNEL32.dll
 0002:00000118       __imp_TlsGetValue          0000000140037118     kernel32:KERNEL32.dll
 0002:00000120       __imp_TlsSetValue          0000000140037120     kernel32:KERNEL32.dll
 0002:00000128       __imp_TlsFree              0000000140037128     kernel32:KERNEL32.dll
 0002:00000130       __imp_FreeLibrary          0000000140037130     kernel32:KERNEL32.dll
 0002:00000138       __imp_GetProcAddress       0000000140037138     kernel32:KERNEL32.dll
 0002:00000140       __imp_LoadLibraryExW       0000000140037140     kernel32:KERNEL32.dll
 0002:00000148       __imp_GetStdHandle         0000000140037148     kernel32:KERNEL32.dll
 0002:00000150       __imp_WriteFile            0000000140037150     kernel32:KERNEL32.dll
 0002:00000158       __imp_GetModuleFileNameW   0000000140037158     kernel32:KERNEL32.dll
 0002:00000160       __imp_ExitProcess          0000000140037160     kernel32:KERNEL32.dll
 0002:00000168       __imp_GetModuleHandleExW   0000000140037168     kernel32:KERNEL32.dll
 0002:00000170       __imp_GetCommandLineA      0000000140037170     kernel32:KERNEL32.dll
 0002:00000178       __imp_GetCommandLineW      0000000140037178     kernel32:KERNEL32.dll
 0002:00000180       __imp_HeapAlloc            0000000140037180     kernel32:KERNEL32.dll
 0002:00000188       __imp_HeapFree             0000000140037188     kernel32:KERNEL32.dll
 0002:00000190       __imp_GetFileType          0000000140037190     kernel32:KERNEL32.dll
 0002:00000198       __imp_CompareStringW       0000000140037198     kernel32:KERNEL32.dll
 0002:000001a0       __imp_LCMapStringW         00000001400371a0     kernel32:KERNEL32.dll
 0002:000001a8       __imp_GetLocaleInfoW       00000001400371a8     kernel32:KERNEL32.dll
 0002:000001b0       __imp_IsValidLocale        00000001400371b0     kernel32:KERNEL32.dll
 0002:000001b8       __imp_GetUserDefaultLCID   00000001400371b8     kernel32:KERNEL32.dll
 0002:000001c0       __imp_EnumSystemLocalesW   00000001400371c0     kernel32:KERNEL32.dll
 0002:000001c8       __imp_CloseHandle          00000001400371c8     kernel32:KERNEL32.dll
 0002:000001d0       __imp_FlushFileBuffers     00000001400371d0     kernel32:KERNEL32.dll
 0002:000001d8       __imp_GetConsoleOutputCP   00000001400371d8     kernel32:KERNEL32.dll
 0002:000001e0       __imp_GetConsoleMode       00000001400371e0     kernel32:KERNEL32.dll
 0002:000001e8       __imp_ReadFile             00000001400371e8     kernel32:KERNEL32.dll
 0002:000001f0       __imp_GetFileSizeEx        00000001400371f0     kernel32:KERNEL32.dll
 0002:000001f8       __imp_SetFilePointerEx     00000001400371f8     kernel32:KERNEL32.dll
 0002:00000200       __imp_ReadConsoleW         0000000140037200     kernel32:KERNEL32.dll
 0002:00000208       __imp_HeapReAlloc          0000000140037208     kernel32:KERNEL32.dll
 0002:00000210       __imp_FindClose            0000000140037210     kernel32:KERNEL32.dll
 0002:00000218       __imp_FindFirstFileExW     0000000140037218     kernel32:KERNEL32.dll
 0002:00000220       __imp_FindNextFileW        0000000140037220     kernel32:KERNEL32.dll
 0002:00000228       __imp_IsValidCodePage      0000000140037228     kernel32:KERNEL32.dll
 0002:00000230       __imp_GetACP               0000000140037230     kernel32:KERNEL32.dll
 0002:00000238       __imp_GetOEMCP             0000000140037238     kernel32:KERNEL32.dll
 0002:00000240       __imp_GetEnvironmentStringsW 0000000140037240     kernel32:KERNEL32.dll
 0002:00000248       __imp_FreeEnvironmentStringsW 0000000140037248     kernel32:KERNEL32.dll
 0002:00000250       __imp_SetEnvironmentVariableW 0000000140037250     kernel32:KERNEL32.dll
 0002:00000258       __imp_SetStdHandle         0000000140037258     kernel32:KERNEL32.dll
 0002:00000260       __imp_GetProcessHeap       0000000140037260     kernel32:KERNEL32.dll
 0002:00000268       __imp_HeapSize             0000000140037268     kernel32:KERNEL32.dll
 0002:00000270       __imp_CreateFileW          0000000140037270     kernel32:KERNEL32.dll
 0002:00000278       __imp_RtlUnwind            0000000140037278     kernel32:KERNEL32.dll
 0002:00000280       \177KERNEL32_NULL_THUNK_DATA 0000000140037280     kernel32:KERNEL32.dll
 0002:00000288       __guard_check_icall_fptr   0000000140037288     LIBCMT:guard_support.obj
 0002:00000290       __guard_xfg_check_icall_fptr 0000000140037290     LIBCMT:guard_support.obj
 0002:00000298       __guard_dispatch_icall_fptr 0000000140037298     LIBCMT:guard_support.obj
 0002:000002a0       __guard_xfg_dispatch_icall_fptr 00000001400372a0     LIBCMT:guard_support.obj
 0002:000002a8       __guard_xfg_table_dispatch_icall_fptr 00000001400372a8     LIBCMT:guard_support.obj
 0002:000002b0       __castguard_check_failure_os_handled_fptr 00000001400372b0     LIBCMT:guard_support.obj
 0002:000002b8       __guard_memcpy_fptr        00000001400372b8     libvcruntime:softmemtag.obj
 0002:000002c0       __xc_a                     00000001400372c0     LIBCMT:initializers.obj
 0002:00000350       __xc_z                     0000000140037350     LIBCMT:initializers.obj
 0002:00000358       __xi_a                     0000000140037358     LIBCMT:initializers.obj
 0002:00000370       __acrt_stdio_initializer   0000000140037370     libucrt:stdio_initializer.obj
 0002:00000378       __acrt_tran_fma3_initializer 0000000140037378     libucrt:fma3_initializer.obj
 0002:00000380       __acrt_timeset_initializer 0000000140037380     libucrt:timeset_initializer.obj
 0002:00000388       __acrt_multibyte_initializer 0000000140037388     libucrt:multibyte_initializer.obj
 0002:00000390       __acrt_fmode_initializer   0000000140037390     libucrt:fmode_initializer.obj
 0002:00000398       __xi_z                     0000000140037398     LIBCMT:initializers.obj
 0002:000003a0       __xp_a                     00000001400373a0     LIBCMT:initializers.obj
 0002:000003a8       __acrt_locale_terminator   00000001400373a8     libucrt:locale_initializer.obj
 0002:000003b0       __dcrt_console_output_terminator 00000001400373b0     libucrt:console_output_initializer.obj
 0002:000003b8       __acrt_stdio_terminator    00000001400373b8     libucrt:stdio_initializer.obj
 0002:000003c0       __xp_z                     00000001400373c0     LIBCMT:initializers.obj
 0002:000003c8       __xt_a                     00000001400373c8     LIBCMT:initializers.obj
 0002:000003d0       __xt_z                     00000001400373d0     LIBCMT:initializers.obj
 0002:00000480       ??_7exception@std@@6B@     0000000140037480     main.obj
 0002:00000490       ??_C@_0BC@EOODALEL@Unknown?5exception@ 0000000140037490     main.obj
 0002:000004b0       ??_7bad_alloc@std@@6B@     00000001400374b0     main.obj
 0002:000004c8       ??_7bad_array_new_length@std@@6B@ 00000001400374c8     main.obj
 0002:000004d8       ??_C@_0BF@KINCDENJ@bad?5array?5new?5length@ 00000001400374d8     main.obj
 0002:000004f0       ??_C@_0BA@JFNIOLAK@string?5too?5long@ 00000001400374f0     main.obj
 0002:00000508       ??_7runtime_error@std@@6B@ 0000000140037508     main.obj
 0002:00000520       ??_7_System_error@std@@6B@ 0000000140037520     main.obj
 0002:00000530       ??_C@_02LMMGGCAJ@?3?5@     0000000140037530     main.obj
 0002:00000540       ??_7system_error@std@@6B@  0000000140037540     main.obj
 0002:00000550       ??_C@_00CNPNBAHC@@         0000000140037550     main.obj
 0002:00000560       ??_7_Iostream_error_category2@std@@6B@ 0000000140037560     main.obj
 0002:00000590       ??_C@_08LLGCOLLL@iostream@ 0000000140037590     main.obj
 0002:000005a0       ?_Iostream_error@?4??message@_Iostream_error_category2@std@@UEBA?AV?$basic_string@DU?$char_traits@D@std@@V?$allocator@D@2@@3@H@Z@4QBDB 00000001400375a0     main.obj
 0002:000005c0       ??_7bad_cast@std@@6B@      00000001400375c0     main.obj
 0002:000005d0       ??_C@_08EPJLHIJG@bad?5cast@ 00000001400375d0     main.obj
 0002:000005e8       ??_7_Facet_base@std@@6B@   00000001400375e8     main.obj
 0002:00000600       ??_C@_0BA@ELKIONDK@bad?5locale?5name@ 0000000140037600     main.obj
 0002:00000610       ??_C@_05LAPONLG@false@     0000000140037610     main.obj
 0002:00000618       ??_C@_04LOAJBDKD@true@     0000000140037618     main.obj
 0002:00000628       ??_7facet@locale@std@@6B@  0000000140037628     main.obj
 0002:00000648       ??_7ctype_base@std@@6B@    0000000140037648     main.obj
 0002:00000668       ??_7?$ctype@D@std@@6B@     0000000140037668     main.obj
 0002:000006c8       ??_7failure@ios_base@std@@6B@ 00000001400376c8     main.obj
 0002:000006d8       ??_C@_0BF@PHHKMMFD@ios_base?3?3badbit?5set@ 00000001400376d8     main.obj
 0002:000006f0       ??_C@_0BG@FMKFHCIL@ios_base?3?3failbit?5set@ 00000001400376f0     main.obj
 0002:00000708       ??_C@_0BF@OOHOMBOF@ios_base?3?3eofbit?5set@ 0000000140037708     main.obj
 0002:00000728       ??_7?$num_put@DV?$ostreambuf_iterator@DU?$char_traits@D@std@@@std@@@std@@6B@ 0000000140037728     main.obj
 0002:00000780       ??_C@_02BBAHNLBA@?$CFp@    0000000140037780     main.obj
 0002:00000784       ??_C@_02CLHGNPPK@Lu@       0000000140037784     main.obj
 0002:00000788       ??_C@_02HIKPPMOK@Ld@       0000000140037788     main.obj
 0002:0000078c       ??_C@_02BDDLJJBK@lu@       000000014003778c     main.obj
 0002:00000790       ??_C@_02EAOCLKAK@ld@       0000000140037790     main.obj
 0002:000007a0       ??_7?$numpunct@D@std@@6B@  00000001400377a0     main.obj
 0002:000007e0       ??_C@_02MDKMJEGG@eE@       00000001400377e0     main.obj
 0002:000007e4       ??_C@_02OOPEBDOJ@pP@       00000001400377e4     main.obj
 0002:000007e8       ??_C@_01LFCBOECM@?4@       00000001400377e8     main.obj
 0002:000007f0       ??_C@_0BI@CFPLBAOH@invalid?5string?5position@ 00000001400377f0     main.obj
 0002:00000810       ??_7?$num_get@DV?$istreambuf_iterator@DU?$char_traits@D@std@@@std@@@std@@6B@ 0000000140037810     main.obj
 0002:00000880       ?_Src@?1??_Getffld@?$num_get@DV?$istreambuf_iterator@DU?$char_traits@D@std@@@std@@@std@@AEBAHPEADAEAV?$istreambuf_iterator@DU?$char_traits@D@std@@@3@1AEAVios_base@3@PEAH@Z@4QBDB 0000000140037880     main.obj
 0002:00000890       ?_Src@?1??_Getifld@?$num_get@DV?$istreambuf_iterator@DU?$char_traits@D@std@@@std@@@std@@AEBAHPEADAEAV?$istreambuf_iterator@DU?$char_traits@D@std@@@3@1HAEBVlocale@3@@Z@4QBDB 0000000140037890     main.obj
 0002:000008b0       ?_Src@?1??_Getffldx@?$num_get@DV?$istreambuf_iterator@DU?$char_traits@D@std@@@std@@@std@@AEBAHPEADAEAV?$istreambuf_iterator@DU?$char_traits@D@std@@@3@1AEAVios_base@3@PEAH@Z@4QBDB 00000001400378b0     main.obj
 0002:000008d0       __real@4024000000000000    00000001400378d0     main.obj
 0002:000008d8       __real@41200000            00000001400378d8     main.obj
 0002:000008e0       __real@4202a05f20000000    00000001400378e0     main.obj
 0002:000008e8       ??_C@_0P@GHFPNOJB@bad?5allocation@ 00000001400378e8     libcpmt:xthrow.obj
 0002:00000900       ??_7logic_error@std@@6B@   0000000140037900     libcpmt:xthrow.obj
 0002:00000918       ??_7length_error@std@@6B@  0000000140037918     libcpmt:xthrow.obj
 0002:00000930       ??_7out_of_range@std@@6B@  0000000140037930     libcpmt:xthrow.obj
 0002:000010a0       ??_C@_0BN@LKKBCCDB@address?5family?5not?5supported@ 00000001400380a0     libcpmt:syserror.obj
 0002:000010c0       ??_C@_0P@LDMLAFHI@address?5in?5use@ 00000001400380c0     libcpmt:syserror.obj
 0002:000010d0       ??_C@_0BG@DHPCNBJB@address?5not?5available@ 00000001400380d0     libcpmt:syserror.obj
 0002:000010e8       ??_C@_0BC@DFIBIBIL@already?5connected@ 00000001400380e8     libcpmt:syserror.obj
 0002:00001100       ??_C@_0BH@CAKOHOMI@argument?5list?5too?5long@ 0000000140038100     libcpmt:syserror.obj
 0002:00001118       ??_C@_0BH@CGIMPKIM@argument?5out?5of?5domain@ 0000000140038118     libcpmt:syserror.obj
 0002:00001130       ??_C@_0M@KGHGGJGL@bad?5address@ 0000000140038130     libcpmt:syserror.obj
 0002:00001140       ??_C@_0BE@MPJPGCEO@bad?5file?5descriptor@ 0000000140038140     libcpmt:syserror.obj
 0002:00001158       ??_C@_0M@PMMIEFCP@bad?5message@ 0000000140038158     libcpmt:syserror.obj
 0002:00001168       ??_C@_0M@KPHOFDBE@broken?5pipe@ 0000000140038168     libcpmt:syserror.obj
 0002:00001178       ??_C@_0BD@MGNDDEGM@connection?5aborted@ 0000000140038178     libcpmt:syserror.obj
 0002:00001190       ??_C@_0BP@KAIHPOGN@connection?5already?5in?5progress@ 0000000140038190     libcpmt:syserror.obj
 0002:000011b0       ??_C@_0BD@PJLIIJEL@connection?5refused@ 00000001400381b0     libcpmt:syserror.obj
 0002:000011c8       ??_C@_0BB@IECNJNOI@connection?5reset@ 00000001400381c8     libcpmt:syserror.obj
 0002:000011e0       ??_C@_0BC@PPHBOELF@cross?5device?5link@ 00000001400381e0     libcpmt:syserror.obj
 0002:000011f8       ??_C@_0BN@KDMIFEIP@destination?5address?5required@ 00000001400381f8     libcpmt:syserror.obj
 0002:00001218       ??_C@_0BI@NGCEHDD@device?5or?5resource?5busy@ 0000000140038218     libcpmt:syserror.obj
 0002:00001230       ??_C@_0BE@JIDOCPHM@directory?5not?5empty@ 0000000140038230     libcpmt:syserror.obj
 0002:00001248       ??_C@_0BI@BNCLIGPB@executable?5format?5error@ 0000000140038248     libcpmt:syserror.obj
 0002:00001260       ??_C@_0M@MIDIAGJP@file?5exists@ 0000000140038260     libcpmt:syserror.obj
 0002:00001270       ??_C@_0P@DNAJLBJK@file?5too?5large@ 0000000140038270     libcpmt:syserror.obj
 0002:00001280       ??_C@_0BC@EJHOMAAK@filename?5too?5long@ 0000000140038280     libcpmt:syserror.obj
 0002:00001298       ??_C@_0BH@KEFGLDAF@function?5not?5supported@ 0000000140038298     libcpmt:syserror.obj
 0002:000012b0       ??_C@_0BB@DHFDFGDM@host?5unreachable@ 00000001400382b0     libcpmt:syserror.obj
 0002:000012c8       ??_C@_0BD@JPHBMONG@identifier?5removed@ 00000001400382c8     libcpmt:syserror.obj
 0002:000012e0       ??_C@_0BG@CDNPAGJK@illegal?5byte?5sequence@ 00000001400382e0     libcpmt:syserror.obj
 0002:000012f8       ??_C@_0CD@BNPLBMNA@inappropriate?5io?5control?5operat@ 00000001400382f8     libcpmt:syserror.obj
 0002:00001320       ??_C@_0M@EGEKIIMP@interrupted@ 0000000140038320     libcpmt:syserror.obj
 0002:00001330       ??_C@_0BB@FCMFBGOM@invalid?5argument@ 0000000140038330     libcpmt:syserror.obj
 0002:00001348       ??_C@_0N@OHAFKDEK@invalid?5seek@ 0000000140038348     libcpmt:syserror.obj
 0002:00001358       ??_C@_08GLNPIFBN@io?5error@ 0000000140038358     libcpmt:syserror.obj
 0002:00001368       ??_C@_0P@FLLDBIDK@is?5a?5directory@ 0000000140038368     libcpmt:syserror.obj
 0002:00001378       ??_C@_0N@IFLPBIOP@message?5size@ 0000000140038378     libcpmt:syserror.obj
 0002:00001388       ??_C@_0N@KIIEAAIO@network?5down@ 0000000140038388     libcpmt:syserror.obj
 0002:00001398       ??_C@_0O@FNPDBHEE@network?5reset@ 0000000140038398     libcpmt:syserror.obj
 0002:000013a8       ??_C@_0BE@IFNCKGE@network?5unreachable@ 00000001400383a8     libcpmt:syserror.obj
 0002:000013c0       ??_C@_0BA@PFFCAOFK@no?5buffer?5space@ 00000001400383c0     libcpmt:syserror.obj
 0002:000013d0       ??_C@_0BB@IEPBLJHK@no?5child?5process@ 00000001400383d0     libcpmt:syserror.obj
 0002:000013e8       ??_C@_07PLECNNKG@no?5link@ 00000001400383e8     libcpmt:syserror.obj
 0002:000013f0       ??_C@_0BC@NJECKMKE@no?5lock?5available@ 00000001400383f0     libcpmt:syserror.obj
 0002:00001408       ??_C@_0BF@PBGGPKKE@no?5message?5available@ 0000000140038408     libcpmt:syserror.obj
 0002:00001420       ??_C@_0L@EDOLMPAK@no?5message@ 0000000140038420     libcpmt:syserror.obj
 0002:00001430       ??_C@_0BD@EAMBFIDF@no?5protocol?5option@ 0000000140038430     libcpmt:syserror.obj
 0002:00001448       ??_C@_0BD@IJDJKDEA@no?5space?5on?5device@ 0000000140038448     libcpmt:syserror.obj
 0002:00001460       ??_C@_0BE@MKFDAFMP@no?5stream?5resources@ 0000000140038460     libcpmt:syserror.obj
 0002:00001478       ??_C@_0BK@IMCPHCBI@no?5such?5device?5or?5address@ 0000000140038478     libcpmt:syserror.obj
 0002:00001498       ??_C@_0P@FDINDDOK@no?5such?5device@ 0000000140038498     libcpmt:syserror.obj
 0002:000014a8       ??_C@_0BK@NDOCBPGE@no?5such?5file?5or?5directory@ 00000001400384a8     libcpmt:syserror.obj
 0002:000014c8       ??_C@_0BA@ENLPPKBN@no?5such?5process@ 00000001400384c8     libcpmt:syserror.obj
 0002:000014d8       ??_C@_0BA@DOCPFFJG@not?5a?5directory@ 00000001400384d8     libcpmt:syserror.obj
 0002:000014e8       ??_C@_0N@POEIPGGF@not?5a?5socket@ 00000001400384e8     libcpmt:syserror.obj
 0002:000014f8       ??_C@_0N@LGAPMMPI@not?5a?5stream@ 00000001400384f8     libcpmt:syserror.obj
 0002:00001508       ??_C@_0O@GLMIBBEG@not?5connected@ 0000000140038508     libcpmt:syserror.obj
 0002:00001518       ??_C@_0BC@ENOOLCNF@not?5enough?5memory@ 0000000140038518     libcpmt:syserror.obj
 0002:00001530       ??_C@_0O@NHEDABJP@not?5supported@ 0000000140038530     libcpmt:syserror.obj
 0002:00001540       ??_C@_0BD@MOLBPMEA@operation?5canceled@ 0000000140038540     libcpmt:syserror.obj
 0002:00001558       ??_C@_0BG@KDKHOPCO@operation?5in?5progress@ 0000000140038558     libcpmt:syserror.obj
 0002:00001570       ??_C@_0BI@OHIEJAAB@operation?5not?5permitted@ 0000000140038570     libcpmt:syserror.obj
 0002:00001588       ??_C@_0BI@LNEGIFLN@operation?5not?5supported@ 0000000140038588     libcpmt:syserror.obj
 0002:000015a0       ??_C@_0BG@OEMDKMEE@operation?5would?5block@ 00000001400385a0     libcpmt:syserror.obj
 0002:000015b8       ??_C@_0L@BLPOFLNJ@owner?5dead@ 00000001400385b8     libcpmt:syserror.obj
 0002:000015c8       ??_C@_0BC@CIJDGCDI@permission?5denied@ 00000001400385c8     libcpmt:syserror.obj
 0002:000015e0       ??_C@_0P@FNPOCJBE@protocol?5error@ 00000001400385e0     libcpmt:syserror.obj
 0002:000015f0       ??_C@_0BH@JPPPLHJB@protocol?5not?5supported@ 00000001400385f0     libcpmt:syserror.obj
 0002:00001608       ??_C@_0BG@EICBIHDP@read?5only?5file?5system@ 0000000140038608     libcpmt:syserror.obj
 0002:00001620       ??_C@_0BO@BJBOMOEJ@resource?5deadlock?5would?5occur@ 0000000140038620     libcpmt:syserror.obj
 0002:00001640       ??_C@_0BP@LKNGHENJ@resource?5unavailable?5try?5again@ 0000000140038640     libcpmt:syserror.obj
 0002:00001660       ??_C@_0BE@GOIPJJHG@result?5out?5of?5range@ 0000000140038660     libcpmt:syserror.obj
 0002:00001678       ??_C@_0BG@MPLKFPAE@state?5not?5recoverable@ 0000000140038678     libcpmt:syserror.obj
 0002:00001690       ??_C@_0P@DIIFGFCG@stream?5timeout@ 0000000140038690     libcpmt:syserror.obj
 0002:000016a0       ??_C@_0P@IPFDMIFL@text?5file?5busy@ 00000001400386a0     libcpmt:syserror.obj
 0002:000016b0       ??_C@_09KJPPMAOI@timed?5out@ 00000001400386b0     libcpmt:syserror.obj
 0002:000016c0       ??_C@_0BO@HACHBEKI@too?5many?5files?5open?5in?5system@ 00000001400386c0     libcpmt:syserror.obj
 0002:000016e0       ??_C@_0BE@GHAFMPAH@too?5many?5files?5open@ 00000001400386e0     libcpmt:syserror.obj
 0002:000016f8       ??_C@_0P@HCOMKFCC@too?5many?5links@ 00000001400386f8     libcpmt:syserror.obj
 0002:00001708       ??_C@_0BO@EFGOJEF@too?5many?5symbolic?5link?5levels@ 0000000140038708     libcpmt:syserror.obj
 0002:00001728       ??_C@_0BA@KGKGOOJA@value?5too?5large@ 0000000140038728     libcpmt:syserror.obj
 0002:00001738       ??_C@_0BE@MIEJDDNH@wrong?5protocol?5type@ 0000000140038738     libcpmt:syserror.obj
 0002:00001750       ??_C@_0O@BFJCFAAK@unknown?5error@ 0000000140038750     libcpmt:syserror.obj
 0002:00001768       ??_7_Locimp@locale@std@@6B@ 0000000140038768     libcpmt:locale0.obj
 0002:00001780       ??_C@_01NBENCBCI@?$CK@     0000000140038780     libcpmt:locale0.obj
 0002:00001784       ??_C@_01GFHCPBMG@C@        0000000140038784     libcpmt:locale0.obj
 0002:00001830       ??_7ios_base@std@@6B@      0000000140038830     libcpmt:cin.obj
 0002:00001840       ??_7?$basic_streambuf@DU?$char_traits@D@std@@@std@@6B@ 0000000140038840     libcpmt:cin.obj
 0002:000018c0       ??_7?$basic_filebuf@DU?$char_traits@D@std@@@std@@6B@ 00000001400388c0     libcpmt:cin.obj
 0002:00001940       ??_7?$basic_ios@DU?$char_traits@D@std@@@std@@6B@ 0000000140038940     libcpmt:cin.obj
 0002:00001950       ??_7?$basic_istream@DU?$char_traits@D@std@@@std@@6B@ 0000000140038950     libcpmt:cin.obj
 0002:00001958       ??_8?$basic_istream@DU?$char_traits@D@std@@@std@@7B@ 0000000140038958     libcpmt:cin.obj
 0002:00001968       ??_7?$codecvt@DDU_Mbstatet@@@std@@6B@ 0000000140038968     libcpmt:cin.obj
 0002:000019c0       ??_7?$basic_ostream@DU?$char_traits@D@std@@@std@@6B@ 00000001400389c0     libcpmt:cout.obj
 0002:000019c8       ??_8?$basic_ostream@DU?$char_traits@D@std@@@std@@7B@ 00000001400389c8     libcpmt:cout.obj
 0002:00001ad0       __xmm@7fffffffffffffff7fffffffffffffff 0000000140038ad0     libcpmt:locale.obj
 0002:00001ae0       ?_BADOFF@std@@3_JB         0000000140038ae0     libcpmt:ios.obj
 0002:00001ae8       ??_C@_11LOCGONAA@@         0000000140038ae8     libcpmt:wlocale.obj
 0002:00001aec       ??_C@_13IMODFHAA@?$AA?9@   0000000140038aec     libcpmt:wlocale.obj
 0002:00001af0       ??_C@_01JOAMLHOP@?9@       0000000140038af0     libcpmt:wlocale.obj
 0002:00001b00       __xmm@80000000000000008000000000000000 0000000140038b00     libcpmt:wlocale.obj
 0002:00001b18       ??_7type_info@@6B@         0000000140038b18     LIBCMT:std_type_info_static.obj
 0002:00001b20       __xmm@ffffffffffffffffffffffffffffffff 0000000140038b20     LIBCMT:utility.obj
 0002:00001b40       ?s_negLengthTab@FH4@@3QBCB 0000000140038b40     libvcruntime:risctrnsctrl.obj
 0002:00001b50       ?s_shiftTab@FH4@@3QBEB     0000000140038b50     libvcruntime:risctrnsctrl.obj
 0002:00001c98       _pDestructExceptionObject  0000000140038c98     libvcruntime:ehhelpers.obj
 0002:00001ca8       ??_7bad_exception@std@@6B@ 0000000140038ca8     libvcruntime:frame.obj
 0002:00001cb8       ??_C@_0O@DPKOEFFH@bad?5exception@ 0000000140038cb8     libvcruntime:frame.obj
 0002:000023e0       ??_C@_08EHJDFFNH@__based?$CI@ 00000001400393e0     libvcruntime:undname.obj
 0002:000023f0       ??_C@_07KOLFKCDI@__cdecl@  00000001400393f0     libvcruntime:undname.obj
 0002:000023f8       ??_C@_08GHMPAG@__pascal@   00000001400393f8     libvcruntime:undname.obj
 0002:00002408       ??_C@_09IFJBGAPI@__stdcall@ 0000000140039408     libvcruntime:undname.obj
 0002:00002418       ??_C@_0L@NPHFGOKO@__thiscall@ 0000000140039418     libvcruntime:undname.obj
 0002:00002428       ??_C@_0L@JMKHOMEK@__fastcall@ 0000000140039428     libvcruntime:undname.obj
 0002:00002438       ??_C@_0N@BCKKPABJ@__vectorcall@ 0000000140039438     libvcruntime:undname.obj
 0002:00002448       ??_C@_09HIJEGCPM@__clrcall@ 0000000140039448     libvcruntime:undname.obj
 0002:00002454       ??_C@_06GHPCKEAG@__eabi@   0000000140039454     libvcruntime:undname.obj
 0002:00002460       ??_C@_09IOPIDJLG@__swift_1@ 0000000140039460     libvcruntime:undname.obj
 0002:00002470       ??_C@_09KFNFGKHF@__swift_2@ 0000000140039470     libvcruntime:undname.obj
 0002:00002480       ??_C@_09LMMOFLDE@__swift_3@ 0000000140039480     libvcruntime:undname.obj
 0002:00002490       ??_C@_07JOMMBBKO@__ptr64@  0000000140039490     libvcruntime:undname.obj
 0002:00002498       ??_C@_0L@PILCLIHE@__restrict@ 0000000140039498     libvcruntime:undname.obj
 0002:000024a8       ??_C@_0M@GFIIJFMG@__unaligned@ 00000001400394a8     libvcruntime:undname.obj
 0002:000024b8       ??_C@_09DHDLOLLB@restrict?$CI@ 00000001400394b8     libvcruntime:undname.obj
 0002:000024c4       ??_C@_04NIHEBCM@?5new@     00000001400394c4     libvcruntime:undname.obj
 0002:000024d0       ??_C@_07FPCDHGMM@?5delete@ 00000001400394d0     libvcruntime:undname.obj
 0002:000024d8       ??_C@_01NEMOKFLO@?$DN@     00000001400394d8     libvcruntime:undname.obj
 0002:000024dc       ??_C@_02GPIOPFAK@?$DO?$DO@ 00000001400394dc     libvcruntime:undname.obj
 0002:000024e0       ??_C@_02FODMEDOG@?$DM?$DM@ 00000001400394e0     libvcruntime:undname.obj
 0002:000024e4       ??_C@_01DCLJPIOD@?$CB@     00000001400394e4     libvcruntime:undname.obj
 0002:000024e8       ??_C@_02EGOFBIJA@?$DN?$DN@ 00000001400394e8     libvcruntime:undname.obj
 0002:000024ec       ??_C@_02FDNJECIE@?$CB?$DN@ 00000001400394ec     libvcruntime:undname.obj
 0002:000024f0       ??_C@_02GPECMEKF@?$FL?$FN@ 00000001400394f0     libvcruntime:undname.obj
 0002:000024f8       ??_C@_08LHJFAFGD@operator@ 00000001400394f8     libvcruntime:undname.obj
 0002:00002504       ??_C@_02HBOOOICD@?9?$DO@   0000000140039504     libvcruntime:undname.obj
 0002:00002508       ??_C@_02ECNGHCIF@?$CL?$CL@ 0000000140039508     libvcruntime:undname.obj
 0002:0000250c       ??_C@_02BAABKJLB@?9?9@     000000014003950c     libvcruntime:undname.obj
 0002:00002510       ??_C@_01MIFGBAGJ@?$CL@     0000000140039510     libvcruntime:undname.obj
 0002:00002514       ??_C@_01HNPIGOCE@?$CG@     0000000140039514     libvcruntime:undname.obj
 0002:00002518       ??_C@_03MNHNFDLC@?9?$DO?$CK@ 0000000140039518     libvcruntime:undname.obj
 0002:0000251c       ??_C@_01KMDKNFGN@?1@       000000014003951c     libvcruntime:undname.obj
 0002:00002520       ??_C@_01FGNFDNOH@?$CF@     0000000140039520     libvcruntime:undname.obj
 0002:00002524       ??_C@_01MNNFJEPP@?$DM@     0000000140039524     libvcruntime:undname.obj
 0002:00002528       ??_C@_02EHCHHCKH@?$DM?$DN@ 0000000140039528     libvcruntime:undname.obj
 0002:0000252c       ??_C@_01PPODPGHN@?$DO@     000000014003952c     libvcruntime:undname.obj
 0002:00002530       ??_C@_02EEKDKGMJ@?$DO?$DN@ 0000000140039530     libvcruntime:undname.obj
 0002:00002534       ??_C@_01IHBHIGKO@?0@       0000000140039534     libvcruntime:undname.obj
 0002:00002538       ??_C@_02HCKGKOFO@?$CI?$CJ@ 0000000140039538     libvcruntime:undname.obj
 0002:0000253c       ??_C@_01PJKLJHI@?$HO@      000000014003953c     libvcruntime:undname.obj
 0002:00002540       ??_C@_01JKBOJNNK@?$FO@     0000000140039540     libvcruntime:undname.obj
 0002:00002544       ??_C@_01DNKMNLPK@?$HM@     0000000140039544     libvcruntime:undname.obj
 0002:00002548       ??_C@_02PPKAJPJL@?$CG?$CG@ 0000000140039548     libvcruntime:undname.obj
 0002:0000254c       ??_C@_02NONPIBCD@?$HM?$HM@ 000000014003954c     libvcruntime:undname.obj
 0002:00002550       ??_C@_02FPIMKNGF@?$CK?$DN@ 0000000140039550     libvcruntime:undname.obj
 0002:00002554       ??_C@_02FOEOMHFC@?$CL?$DN@ 0000000140039554     libvcruntime:undname.obj
 0002:00002558       ??_C@_02FKMDLLOA@?9?$DN@   0000000140039558     libvcruntime:undname.obj
 0002:0000255c       ??_C@_02FJEHGPIO@?1?$DN@   000000014003955c     libvcruntime:undname.obj
 0002:00002560       ??_C@_02FENAOKFI@?$CF?$DN@ 0000000140039560     libvcruntime:undname.obj
 0002:00002564       ??_C@_03IKFCCPFF@?$DO?$DO?$DN@ 0000000140039564     libvcruntime:undname.obj
 0002:00002568       ??_C@_03CDNPDDLA@?$DM?$DM?$DN@ 0000000140039568     libvcruntime:undname.obj
 0002:0000256c       ??_C@_02FGJGFEAB@?$CG?$DN@ 000000014003956c     libvcruntime:undname.obj
 0002:00002570       ??_C@_02DHLNPPGH@?$HM?$DN@ 0000000140039570     libvcruntime:undname.obj
 0002:00002574       ??_C@_02MHEGNOJ@?$FO?$DN@  0000000140039574     libvcruntime:undname.obj
 0002:00002578       ??_C@_09IFPLHPGF@?$GAvftable?8@ 0000000140039578     libvcruntime:undname.obj
 0002:00002588       ??_C@_09BLBHBJP@?$GAvbtable?8@ 0000000140039588     libvcruntime:undname.obj
 0002:00002598       ??_C@_07FEEIOKP@?$GAvcall?8@ 0000000140039598     libvcruntime:undname.obj
 0002:000025a0       ??_C@_08LLFFHHDJ@?$GAtypeof?8@ 00000001400395a0     libvcruntime:undname.obj
 0002:000025b0       ??_C@_0BF@KDPPACIK@?$GAlocal?5static?5guard?8@ 00000001400395b0     libvcruntime:undname.obj
 0002:000025c8       ??_C@_08OBABFOLI@?$GAstring?8@ 00000001400395c8     libvcruntime:undname.obj
 0002:000025d8       ??_C@_0BD@JDLKDPAB@?$GAvbase?5destructor?8@ 00000001400395d8     libvcruntime:undname.obj
 0002:000025f0       ??_C@_0BN@DEGPLNFK@?$GAvector?5deleting?5destructor?8@ 00000001400395f0     libvcruntime:undname.obj
 0002:00002610       ??_C@_0BO@OBMKPJIG@?$GAdefault?5constructor?5closure?8@ 0000000140039610     libvcruntime:undname.obj
 0002:00002630       ??_C@_0BN@IMDCHIKM@?$GAscalar?5deleting?5destructor?8@ 0000000140039630     libvcruntime:undname.obj
 0002:00002650       ??_C@_0BO@PFGOCPJJ@?$GAvector?5constructor?5iterator?8@ 0000000140039650     libvcruntime:undname.obj
 0002:00002670       ??_C@_0BN@LFPFMEDL@?$GAvector?5destructor?5iterator?8@ 0000000140039670     libvcruntime:undname.obj
 0002:00002690       ??_C@_0CE@IKBNEHA@?$GAvector?5vbase?5constructor?5itera@ 0000000140039690     libvcruntime:undname.obj
 0002:000026b8       ??_C@_0BL@NILFHHPC@?$GAvirtual?5displacement?5map?8@ 00000001400396b8     libvcruntime:undname.obj
 0002:000026d8       ??_C@_0CB@JONCMFFK@?$GAeh?5vector?5constructor?5iterator@ 00000001400396d8     libvcruntime:undname.obj
 0002:00002700       ??_C@_0CA@GCEOPDGL@?$GAeh?5vector?5destructor?5iterator?8@ 0000000140039700     libvcruntime:undname.obj
 0002:00002720       ??_C@_0CH@OOJPLCPH@?$GAeh?5vector?5vbase?5constructor?5it@ 0000000140039720     libvcruntime:undname.obj
 0002:00002748       ??_C@_0BL@LLKPOHJI@?$GAcopy?5constructor?5closure?8@ 0000000140039748     libvcruntime:undname.obj
 0002:00002768       ??_C@_0BA@KBCDOMBN@?$GAudt?5returning?8@ 0000000140039768     libvcruntime:undname.obj
 0002:00002778       ??_C@_03KLGMFNMG@?$GAEH@   0000000140039778     libvcruntime:undname.obj
 0002:0000277c       ??_C@_05KHLCHHI@?$GARTTI@  000000014003977c     libvcruntime:undname.obj
 0002:00002788       ??_C@_0BA@KKLDJDLB@?$GAlocal?5vftable?8@ 0000000140039788     libvcruntime:undname.obj
 0002:00002798       ??_C@_0CE@IIHCMGGL@?$GAlocal?5vftable?5constructor?5clos@ 0000000140039798     libvcruntime:undname.obj
 0002:000027bc       ??_C@_06FHBGPFGH@?5new?$FL?$FN@ 00000001400397bc     libvcruntime:undname.obj
 0002:000027c8       ??_C@_09LBNFPBCA@?5delete?$FL?$FN@ 00000001400397c8     libvcruntime:undname.obj
 0002:000027d8       ??_C@_0P@HJKNJFNN@?$GAomni?5callsig?8@ 00000001400397d8     libvcruntime:undname.obj
 0002:000027e8       ??_C@_0BL@CNOONJFP@?$GAplacement?5delete?5closure?8@ 00000001400397e8     libvcruntime:undname.obj
 0002:00002808       ??_C@_0BN@CKNJLHMB@?$GAplacement?5delete?$FL?$FN?5closure?8@ 0000000140039808     libvcruntime:undname.obj
 0002:00002828       ??_C@_0CG@CFDHKGGD@?$GAmanaged?5vector?5constructor?5ite@ 0000000140039828     libvcruntime:undname.obj
 0002:00002850       ??_C@_0CF@IMGKMJNO@?$GAmanaged?5vector?5destructor?5iter@ 0000000140039850     libvcruntime:undname.obj
 0002:00002878       ??_C@_0CG@HLDDJMAG@?$GAeh?5vector?5copy?5constructor?5ite@ 0000000140039878     libvcruntime:undname.obj
 0002:000028a0       ??_C@_0CM@FCBBDIGB@?$GAeh?5vector?5vbase?5copy?5construct@ 00000001400398a0     libvcruntime:undname.obj
 0002:000028d0       ??_C@_0BL@CLIPGLGB@?$GAdynamic?5initializer?5for?5?8@ 00000001400398d0     libvcruntime:undname.obj
 0002:000028f0       ??_C@_0CB@PDBIFEP@?$GAdynamic?5atexit?5destructor?5for?5@ 00000001400398f0     libvcruntime:undname.obj
 0002:00002918       ??_C@_0CD@CGAJBKEJ@?$GAvector?5copy?5constructor?5iterat@ 0000000140039918     libvcruntime:undname.obj
 0002:00002940       ??_C@_0CJ@GJELGAMM@?$GAvector?5vbase?5copy?5constructor?5@ 0000000140039940     libvcruntime:undname.obj
 0002:00002970       ??_C@_0CL@FGIJHLCE@?$GAmanaged?5vector?5copy?5constructo@ 0000000140039970     libvcruntime:undname.obj
 0002:000029a0       ??_C@_0BM@PMGGMLDN@?$GAlocal?5static?5thread?5guard?8@ 00000001400399a0     libvcruntime:undname.obj
 0002:000029c0       ??_C@_0N@BDNMDMOL@operator?5?$CC?$CC?5@ 00000001400399c0     libvcruntime:undname.obj
 0002:000029d0       ??_C@_0BC@GGEBGALA@operator?5co_await@ 00000001400399d0     libvcruntime:undname.obj
 0002:000029e8       ??_C@_0M@GAAIMMOH@operator?$DM?$DN?$DO@ 00000001400399e8     libvcruntime:undname.obj
 0002:000029f8       ??_C@_0BC@DAFEJGAK@?5Type?5Descriptor?8@ 00000001400399f8     libvcruntime:undname.obj
 0002:00002a10       ??_C@_0BM@LDKODKLH@?5Base?5Class?5Descriptor?5at?5?$CI@ 0000000140039a10     libvcruntime:undname.obj
 0002:00002a30       ??_C@_0BD@LGICGFMM@?5Base?5Class?5Array?8@ 0000000140039a30     libvcruntime:undname.obj
 0002:00002a48       ??_C@_0BN@MECKDCOJ@?5Class?5Hierarchy?5Descriptor?8@ 0000000140039a48     libvcruntime:undname.obj
 0002:00002a68       ??_C@_0BK@CFCOFLF@?5Complete?5Object?5Locator?8@ 0000000140039a68     libvcruntime:undname.obj
 0002:00002a88       ??_C@_0BG@JNJLAMPM@?$GAanonymous?5namespace?8@ 0000000140039a88     libvcruntime:undname.obj
 0002:00002ab8       ??_C@_1DM@KHCHBNEB@?$AAa?$AAp?$AAi?$AA?9?$AAm?$AAs?$AA?9?$AAw?$AAi?$AAn?$AA?9?$AAc?$AAo?$AAr?$AAe@ 0000000140039ab8     libvcruntime:winapi_downlevel.obj
 0002:00002af8       ??_C@_1DK@LPPGFMPP@?$AAa?$AAp?$AAi?$AA?9?$AAm?$AAs?$AA?9?$AAw?$AAi?$AAn?$AA?9?$AAc?$AAo?$AAr?$AAe@ 0000000140039af8     libvcruntime:winapi_downlevel.obj
 0002:00002b38       ??_C@_1BC@GDMECMAK@?$AAk?$AAe?$AAr?$AAn?$AAe?$AAl?$AA3?$AA2@ 0000000140039b38     libvcruntime:winapi_downlevel.obj
 0002:00002b50       ??_C@_1BA@PFFKHIOG@?$AAa?$AAp?$AAi?$AA?9?$AAm?$AAs?$AA?9@ 0000000140039b50     libvcruntime:winapi_downlevel.obj
 0002:00002b68       ??_C@_08KNHFBNJ@FlsAlloc@  0000000140039b68     libvcruntime:winapi_downlevel.obj
 0002:00002b80       ??_C@_07PEJMOBNF@FlsFree@  0000000140039b80     libvcruntime:winapi_downlevel.obj
 0002:00002b90       ??_C@_0M@GDNOONDI@FlsGetValue@ 0000000140039b90     libvcruntime:winapi_downlevel.obj
 0002:00002ba8       ??_C@_0M@JCPCPOEF@FlsSetValue@ 0000000140039ba8     libvcruntime:winapi_downlevel.obj
 0002:00002bc0       ??_C@_0BM@HCFOFFN@InitializeCriticalSectionEx@ 0000000140039bc0     libvcruntime:winapi_downlevel.obj
 0002:00003f90       __real@0000000000000000    000000014003af90     libucrt:frexp.obj
 0002:00003f98       __real@3ff0000000000000    000000014003af98     libucrt:frexp.obj
 0002:00003fa0       __real@8000000000000000    000000014003afa0     libucrt:frexp.obj
 0002:00004a20       ?large_power_data@?1??multiply_by_power_of_ten@__crt_strtox@@YA_NAEAUbig_integer@2@I@Z@4QBIB 000000014003ba20     libucrt:strtod.obj
 0002:00005330       ?large_power_indices@?1??multiply_by_power_of_ten@__crt_strtox@@YA_NAEAUbig_integer@2@I@Z@4QBUunpack_index@?1??12@YA_N0I@Z@B 000000014003c330     libucrt:strtod.obj
 0002:000053c8       ?small_powers_of_ten@?1??multiply_by_power_of_ten@__crt_strtox@@YA_NAEAUbig_integer@2@I@Z@4QBIB 000000014003c3c8     libucrt:strtod.obj
 0002:000053f0       ??_C@_1GE@DPGDJKLM@?$AAm?$AAi?$AAn?$AAk?$AAe?$AAr?$AAn?$AAe?$AAl?$AA?2?$AAc?$AAr?$AAt?$AAs?$AA?2@ 000000014003c3f0     libucrt:strtod.obj
 0002:00005460       ??_C@_1FM@FELNCOBF@?$AA_?$AA_?$AAc?$AAr?$AAt?$AA_?$AAs?$AAt?$AAr?$AAt?$AAo?$AAx?$AA?3?$AA?3?$AAf@ 000000014003c460     libucrt:strtod.obj
 0002:000054c0       ??_C@_1BG@GEMHBGAF@?$AA_?$AAi?$AAs?$AA_?$AAd?$AAo?$AAu?$AAb?$AAl?$AAe@ 000000014003c4c0     libucrt:strtod.obj
 0002:000054e0       ??_C@_1FK@JOJELFFO@?$AA_?$AA_?$AAc?$AAr?$AAt?$AA_?$AAs?$AAt?$AAr?$AAt?$AAo?$AAx?$AA?3?$AA?3?$AAf@ 000000014003c4e0     libucrt:strtod.obj
 0002:00005540       ??_C@_1BI@BANMPGJI@?$AA?$CB?$AA_?$AAi?$AAs?$AA_?$AAd?$AAo?$AAu?$AAb?$AAl?$AAe@ 000000014003c540     libucrt:strtod.obj
 0002:00005558       ?inf_uppercase@?1???$parse_floating_point_possible_infinity@DV?$c_string_character_source@D@__crt_strtox@@PEBD@__crt_strtox@@YA?AW4floating_point_parse_result@1@AEADAEAV?$c_string_character_source@D@1@PEBD@Z@4QBDB 000000014003c558     libucrt:strtod.obj
 0002:0000555c       ?inf_lowercase@?1???$parse_floating_point_possible_infinity@DV?$c_string_character_source@D@__crt_strtox@@PEBD@__crt_strtox@@YA?AW4floating_point_parse_result@1@AEADAEAV?$c_string_character_source@D@1@PEBD@Z@4QBDB 000000014003c55c     libucrt:strtod.obj
 0002:00005560       ?inity_uppercase@?1???$parse_floating_point_possible_infinity@DV?$c_string_character_source@D@__crt_strtox@@PEBD@__crt_strtox@@YA?AW4floating_point_parse_result@1@AEADAEAV?$c_string_character_source@D@1@PEBD@Z@4QBDB 000000014003c560     libucrt:strtod.obj
 0002:00005568       ?inity_lowercase@?1???$parse_floating_point_possible_infinity@DV?$c_string_character_source@D@__crt_strtox@@PEBD@__crt_strtox@@YA?AW4floating_point_parse_result@1@AEADAEAV?$c_string_character_source@D@1@PEBD@Z@4QBDB 000000014003c568     libucrt:strtod.obj
 0002:00005570       ?uppercase@?1???$parse_floating_point_possible_nan@DV?$c_string_character_source@D@__crt_strtox@@PEBD@__crt_strtox@@YA?AW4floating_point_parse_result@1@AEADAEAV?$c_string_character_source@D@1@PEBD@Z@4QBDB 000000014003c570     libucrt:strtod.obj
 0002:00005574       ?lowercase@?1???$parse_floating_point_possible_nan@DV?$c_string_character_source@D@__crt_strtox@@PEBD@__crt_strtox@@YA?AW4floating_point_parse_result@1@AEADAEAV?$c_string_character_source@D@1@PEBD@Z@4QBDB 000000014003c574     libucrt:strtod.obj
 0002:00005578       ?uppercase@?1???$parse_floating_point_possible_nan_is_snan@DV?$c_string_character_source@D@__crt_strtox@@@__crt_strtox@@YA_NAEADAEAV?$c_string_character_source@D@1@@Z@4QBDB 000000014003c578     libucrt:strtod.obj
 0002:00005580       ?lowercase@?1???$parse_floating_point_possible_nan_is_snan@DV?$c_string_character_source@D@__crt_strtox@@@__crt_strtox@@YA_NAEADAEAV?$c_string_character_source@D@1@@Z@4QBDB 000000014003c580     libucrt:strtod.obj
 0002:00005588       ?uppercase@?1???$parse_floating_point_possible_nan_is_ind@DV?$c_string_character_source@D@__crt_strtox@@@__crt_strtox@@YA_NAEADAEAV?$c_string_character_source@D@1@@Z@4QBDB 000000014003c588     libucrt:strtod.obj
 0002:0000558c       ?lowercase@?1???$parse_floating_point_possible_nan_is_ind@DV?$c_string_character_source@D@__crt_strtox@@@__crt_strtox@@YA_NAEADAEAV?$c_string_character_source@D@1@@Z@4QBDB 000000014003c58c     libucrt:strtod.obj
 0002:00005590       ?format_validation_lookup_table_spectre@__crt_stdio_output@@3V?$spectre_mitigated_lookup_table@Ustate_transition_pair@__crt_stdio_output@@$0IA@@1@B 000000014003c590     libucrt:output.obj
 0002:00005990       ??_C@_1O@CEDCILHN@?$AA?$CI?$AAn?$AAu?$AAl?$AAl?$AA?$CJ@ 000000014003c990     libucrt:output.obj
 0002:000059a0       ??_C@_06OJHGLDPL@?$CInull?$CJ@ 000000014003c9a0     libucrt:output.obj
 0002:000059b0       __newctype                 000000014003c9b0     libucrt:ctype.obj
 0002:00005cb0       __newclmap                 000000014003ccb0     libucrt:ctype.obj
 0002:00005e30       __newcumap                 000000014003ce30     libucrt:ctype.obj
 0002:00005fb0       _wctype                    000000014003cfb0     libucrt:ctype.obj
 0002:000061c0       __acrt_exception_action_table 000000014003d1c0     libucrt:exception_filter.obj
 0002:00006280       __acrt_signal_action_table_count 000000014003d280     libucrt:exception_filter.obj
 0002:00006288       __acrt_signal_action_first_fpe_index 000000014003d288     libucrt:exception_filter.obj
 0002:00006290       __acrt_signal_action_fpe_count 000000014003d290     libucrt:exception_filter.obj
 0002:00006298       ??_C@_1BI@BGOHAHKC@?$AAm?$AAs?$AAc?$AAo?$AAr?$AAe?$AAe?$AA?4?$AAd?$AAl?$AAl@ 000000014003d298     libucrt:exit.obj
 0002:000062b0       ??_C@_0P@MIGLKIOC@CorExitProcess@ 000000014003d2b0     libucrt:exit.obj
 0002:00006340       __lc_category              000000014003d340     libucrt:wsetlocale.obj
 0002:000063d0       ??_C@_1O@GIFLHMA@?$AAL?$AAC?$AA_?$AAA?$AAL?$AAL@ 000000014003d3d0     libucrt:wsetlocale.obj
 0002:000063e0       ??_C@_1BG@PPOMIBNJ@?$AAL?$AAC?$AA_?$AAC?$AAO?$AAL?$AAL?$AAA?$AAT?$AAE@ 000000014003d3e0     libucrt:wsetlocale.obj
 0002:000063f8       ??_C@_1BC@FFJGAPJM@?$AAL?$AAC?$AA_?$AAC?$AAT?$AAY?$AAP?$AAE@ 000000014003d3f8     libucrt:wsetlocale.obj
 0002:00006410       ??_C@_1BI@PCKFNJFB@?$AAL?$AAC?$AA_?$AAM?$AAO?$AAN?$AAE?$AAT?$AAA?$AAR?$AAY@ 000000014003d410     libucrt:wsetlocale.obj
 0002:00006428       ??_C@_1BG@ENIEDKID@?$AAL?$AAC?$AA_?$AAN?$AAU?$AAM?$AAE?$AAR?$AAI?$AAC@ 000000014003d428     libucrt:wsetlocale.obj
 0002:00006440       ??_C@_1BA@HAAOMIIG@?$AAL?$AAC?$AA_?$AAT?$AAI?$AAM?$AAE@ 000000014003d440     libucrt:wsetlocale.obj
 0002:00006450       ??_C@_15NBPDDFIP@?$AA?$DN?$AA?$DL@ 000000014003d450     libucrt:wsetlocale.obj
 0002:00006458       ??_C@_13PJJBFPED@?$AA?$DL@ 000000014003d458     libucrt:wsetlocale.obj
 0002:0000645c       ??_C@_13NMPKAAJP@?$AA?$DN@ 000000014003d45c     libucrt:wsetlocale.obj
 0002:00006460       ??_C@_17EFJLDFDO@?$AA?9?$AA_?$AA?4@ 000000014003d460     libucrt:wsetlocale.obj
 0002:00006468       ??_C@_13FHBKNHDA@?$AAC@    000000014003d468     libucrt:wsetlocale.obj
 0002:00006470       ??_C@_17MBJJLFDM@?$AA_?$AA?4?$AA?0@ 000000014003d470     libucrt:wsetlocale.obj
 0002:00006478       ??_C@_13ENNFDPBH@?$AA_@    000000014003d478     libucrt:wsetlocale.obj
 0002:0000647c       ??_C@_13JOFGPIOO@?$AA?4@   000000014003d47c     libucrt:wsetlocale.obj
 0002:00006580       __log_256_lead             000000014003d580     libucrt:log_256_lead_tail_table.obj
 0002:00006d90       __log_256_tail             000000014003dd90     libucrt:log_256_lead_tail_table.obj
 0002:000075a0       __two_to_jby64_head_table  000000014003e5a0     libucrt:two_to_jby64_head_tail_table.obj
 0002:000077a0       __two_to_jby64_tail_table  000000014003e7a0     libucrt:two_to_jby64_head_tail_table.obj
 0002:000079a0       ??_C@_04MBFDLNIM@powf@     000000014003e9a0     libucrt:pow_special.obj
 0002:000079a8       ??_C@_03JGHBODFD@pow@      000000014003e9a8     libucrt:pow_special.obj
 0002:00007b80       ??_C@_03KHJOGHMM@exp@      000000014003eb80     libucrt:fpexcept.obj
 0002:00007b84       ??_C@_03MGHMBJCF@log@      000000014003eb84     libucrt:fpexcept.obj
 0002:00007b88       ??_C@_05HGHHAHAP@log10@    000000014003eb88     libucrt:fpexcept.obj
 0002:00007b90       ??_C@_04COOMCNPB@sinh@     000000014003eb90     libucrt:fpexcept.obj
 0002:00007b98       ??_C@_04HPJJNFIM@cosh@     000000014003eb98     libucrt:fpexcept.obj
 0002:00007ba0       ??_C@_04FJHINJAO@tanh@     000000014003eba0     libucrt:fpexcept.obj
 0002:00007ba8       ??_C@_04FIHNOPOL@asin@     000000014003eba8     libucrt:fpexcept.obj
 0002:00007bb0       ??_C@_04PDIFKINK@acos@     000000014003ebb0     libucrt:fpexcept.obj
 0002:00007bb8       ??_C@_04MLLJIGOK@atan@     000000014003ebb8     libucrt:fpexcept.obj
 0002:00007bc0       ??_C@_05KNGEOGJB@atan2@    000000014003ebc0     libucrt:fpexcept.obj
 0002:00007bc8       ??_C@_04EIAKFFMI@sqrt@     000000014003ebc8     libucrt:fpexcept.obj
 0002:00007bd0       ??_C@_03BLEJJJBH@sin@      000000014003ebd0     libucrt:fpexcept.obj
 0002:00007bd4       ??_C@_03LALBNOCG@cos@      000000014003ebd4     libucrt:fpexcept.obj
 0002:00007bd8       ??_C@_03IIINPABG@tan@      000000014003ebd8     libucrt:fpexcept.obj
 0002:00007bdc       ??_C@_04GFPJNGEK@ceil@     000000014003ebdc     libucrt:fpexcept.obj
 0002:00007be4       ??_C@_05PBJFFIGL@floor@    000000014003ebe4     libucrt:fpexcept.obj
 0002:00007bec       ??_C@_04ODHECPBC@fabs@     000000014003ebec     libucrt:fpexcept.obj
 0002:00007bf4       ??_C@_04EHEDPDJG@modf@     000000014003ebf4     libucrt:fpexcept.obj
 0002:00007bfc       ??_C@_05CEJMAHNP@ldexp@    000000014003ebfc     libucrt:fpexcept.obj
 0002:00007c04       ??_C@_05KBKMEMPO@_cabs@    000000014003ec04     libucrt:fpexcept.obj
 0002:00007c0c       ??_C@_06MEIMCGCF@_hypot@   000000014003ec0c     libucrt:fpexcept.obj
 0002:00007c14       ??_C@_04KEPJIHGP@fmod@     000000014003ec14     libucrt:fpexcept.obj
 0002:00007c1c       ??_C@_05GKKHEGJL@frexp@    000000014003ec1c     libucrt:fpexcept.obj
 0002:00007c24       ??_C@_03MJLDFKDL@_y0@      000000014003ec24     libucrt:fpexcept.obj
 0002:00007c28       ??_C@_03NAKIGLHK@_y1@      000000014003ec28     libucrt:fpexcept.obj
 0002:00007c2c       ??_C@_03ONILCKOB@_yn@      000000014003ec2c     libucrt:fpexcept.obj
 0002:00007c30       ??_C@_05JGDBENOH@_logb@    000000014003ec30     libucrt:fpexcept.obj
 0002:00007c38       ??_C@_0L@KDOEJCKC@_nextafter@ 000000014003ec38     libucrt:fpexcept.obj
 0002:00007c48       _d_inf                     000000014003ec48     libucrt:util.obj
 0002:00007c50       _d_max                     000000014003ec50     libucrt:util.obj
 0002:00007c60       __two_to_jby64_table       000000014003ec60     libucrt:two_to_jby64_table.obj
 0002:00007e60       __log_F_inv_qword          000000014003ee60     libucrt:log_f_inv_qword_table.obj
 0002:00008670       __lc_time_c                000000014003f670     libucrt:nlsdata.obj
 0002:00008930       ??_C@_03KOEHGMDN@Sun@      000000014003f930     libucrt:nlsdata.obj
 0002:00008934       ??_C@_03PDAGKDH@Mon@       000000014003f934     libucrt:nlsdata.obj
 0002:00008938       ??_C@_03NAGEINEP@Tue@      000000014003f938     libucrt:nlsdata.obj
 0002:0000893c       ??_C@_03MHOMLAJA@Wed@      000000014003f93c     libucrt:nlsdata.obj
 0002:00008940       ??_C@_03IOFIKPDN@Thu@      000000014003f940     libucrt:nlsdata.obj
 0002:00008944       ??_C@_03IDIOELNC@Fri@      000000014003f944     libucrt:nlsdata.obj
 0002:00008948       ??_C@_03FEFJNEK@Sat@       000000014003f948     libucrt:nlsdata.obj
 0002:0000894c       ??_C@_06OOPIFAJ@Sunday@    000000014003f94c     libucrt:nlsdata.obj
 0002:00008954       ??_C@_06JLEDEDGH@Monday@   000000014003f954     libucrt:nlsdata.obj
 0002:00008960       ??_C@_07BAAGCFCM@Tuesday@  000000014003f960     libucrt:nlsdata.obj
 0002:00008968       ??_C@_09DLIGFAKA@Wednesday@ 000000014003f968     libucrt:nlsdata.obj
 0002:00008978       ??_C@_08HACCIKIA@Thursday@ 000000014003f978     libucrt:nlsdata.obj
 0002:00008984       ??_C@_06JECMNKMI@Friday@   000000014003f984     libucrt:nlsdata.obj
 0002:00008990       ??_C@_08INBOOONO@Saturday@ 000000014003f990     libucrt:nlsdata.obj
 0002:0000899c       ??_C@_03JIHJHPIE@Jan@      000000014003f99c     libucrt:nlsdata.obj
 0002:000089a0       ??_C@_03HJBDCHOM@Feb@      000000014003f9a0     libucrt:nlsdata.obj
 0002:000089a4       ??_C@_03ODNJBKGA@Mar@      000000014003f9a4     libucrt:nlsdata.obj
 0002:000089a8       ??_C@_03LEOLGMJP@Apr@      000000014003f9a8     libucrt:nlsdata.obj
 0002:000089ac       ??_C@_03CNMDKL@May@        000000014003f9ac     libucrt:nlsdata.obj
 0002:000089b0       ??_C@_03IDFGHECI@Jun@      000000014003f9b0     libucrt:nlsdata.obj
 0002:000089b4       ??_C@_03LBGABGKK@Jul@      000000014003f9b4     libucrt:nlsdata.obj
 0002:000089b8       ??_C@_03IFJFEIGA@Aug@      000000014003f9b8     libucrt:nlsdata.obj
 0002:000089bc       ??_C@_03GGCAPAJC@Sep@      000000014003f9bc     libucrt:nlsdata.obj
 0002:000089c0       ??_C@_03BMAOKBAD@Oct@      000000014003f9c0     libucrt:nlsdata.obj
 0002:000089c4       ??_C@_03JPJOFNIA@Nov@      000000014003f9c4     libucrt:nlsdata.obj
 0002:000089c8       ??_C@_03MKABNOCG@Dec@      000000014003f9c8     libucrt:nlsdata.obj
 0002:000089d0       ??_C@_07CGJPFGJA@January@  000000014003f9d0     libucrt:nlsdata.obj
 0002:000089d8       ??_C@_08GNJGEPFN@February@ 000000014003f9d8     libucrt:nlsdata.obj
 0002:000089e4       ??_C@_05HPCKOFNC@March@    000000014003f9e4     libucrt:nlsdata.obj
 0002:000089ec       ??_C@_05DMJDNLEJ@April@    000000014003f9ec     libucrt:nlsdata.obj
 0002:000089f4       ??_C@_04CNLMGBGM@June@     000000014003f9f4     libucrt:nlsdata.obj
 0002:000089fc       ??_C@_04MIEPOIFP@July@     000000014003f9fc     libucrt:nlsdata.obj
 0002:00008a04       ??_C@_06LBBHFDDG@August@   000000014003fa04     libucrt:nlsdata.obj
 0002:00008a10       ??_C@_09BHHEALKD@September@ 000000014003fa10     libucrt:nlsdata.obj
 0002:00008a20       ??_C@_07JJNFCEND@October@  000000014003fa20     libucrt:nlsdata.obj
 0002:00008a28       ??_C@_08HCHEGEOA@November@ 000000014003fa28     libucrt:nlsdata.obj
 0002:00008a38       ??_C@_08EDHMEBNP@December@ 000000014003fa38     libucrt:nlsdata.obj
 0002:00008a44       ??_C@_02DEDBPAFC@AM@       000000014003fa44     libucrt:nlsdata.obj
 0002:00008a48       ??_C@_02CJNFDJBF@PM@       000000014003fa48     libucrt:nlsdata.obj
 0002:00008a50       ??_C@_08BPBNCDIB@MM?1dd?1yy@ 000000014003fa50     libucrt:nlsdata.obj
 0002:00008a60       ??_C@_0BE@CKGJFCPC@dddd?0?5MMMM?5dd?0?5yyyy@ 000000014003fa60     libucrt:nlsdata.obj
 0002:00008a78       ??_C@_08JCCMCCIL@HH?3mm?3ss@ 000000014003fa78     libucrt:nlsdata.obj
 0002:00008a88       ??_C@_17MBGCMIPB@?$AAS?$AAu?$AAn@ 000000014003fa88     libucrt:nlsdata.obj
 0002:00008a90       ??_C@_17KBOMKBF@?$AAM?$AAo?$AAn@ 000000014003fa90     libucrt:nlsdata.obj
 0002:00008a98       ??_C@_17BMKGEGOJ@?$AAT?$AAu?$AAe@ 000000014003fa98     libucrt:nlsdata.obj
 0002:00008aa0       ??_C@_17CJEDCEPE@?$AAW?$AAe?$AAd@ 000000014003faa0     libucrt:nlsdata.obj
 0002:00008aa8       ??_C@_17PDPHAADD@?$AAT?$AAh?$AAu@ 000000014003faa8     libucrt:nlsdata.obj
 0002:00008ab0       ??_C@_17HFOLPPLP@?$AAF?$AAr?$AAi@ 000000014003fab0     libucrt:nlsdata.obj
 0002:00008ab8       ??_C@_17GGIBDPIH@?$AAS?$AAa?$AAt@ 000000014003fab8     libucrt:nlsdata.obj
 0002:00008ac0       ??_C@_1O@IHNHDHPB@?$AAS?$AAu?$AAn?$AAd?$AAa?$AAy@ 000000014003fac0     libucrt:nlsdata.obj
 0002:00008ad0       ??_C@_1O@MMNBFLIA@?$AAM?$AAo?$AAn?$AAd?$AAa?$AAy@ 000000014003fad0     libucrt:nlsdata.obj
 0002:00008ae0       ??_C@_1BA@ENFBFFEK@?$AAT?$AAu?$AAe?$AAs?$AAd?$AAa?$AAy@ 000000014003fae0     libucrt:nlsdata.obj
 0002:00008af0       ??_C@_1BE@EBOGMDOH@?$AAW?$AAe?$AAd?$AAn?$AAe?$AAs?$AAd?$AAa?$AAy@ 000000014003faf0     libucrt:nlsdata.obj
 0002:00008b08       ??_C@_1BC@HHMNLIHE@?$AAT?$AAh?$AAu?$AAr?$AAs?$AAd?$AAa?$AAy@ 000000014003fb08     libucrt:nlsdata.obj
 0002:00008b20       ??_C@_1O@PDICJHAG@?$AAF?$AAr?$AAi?$AAd?$AAa?$AAy@ 000000014003fb20     libucrt:nlsdata.obj
 0002:00008b30       ??_C@_1BC@ENMNNPAJ@?$AAS?$AAa?$AAt?$AAu?$AAr?$AAd?$AAa?$AAy@ 000000014003fb30     libucrt:nlsdata.obj
 0002:00008b48       ??_C@_17DKNBKCHM@?$AAJ?$AAa?$AAn@ 000000014003fb48     libucrt:nlsdata.obj
 0002:00008b50       ??_C@_17LMDJEKJN@?$AAF?$AAe?$AAb@ 000000014003fb50     libucrt:nlsdata.obj
 0002:00008b58       ??_C@_17CKNLEDEC@?$AAM?$AAa?$AAr@ 000000014003fb58     libucrt:nlsdata.obj
 0002:00008b60       ??_C@_17LFPOIHDD@?$AAA?$AAp?$AAr@ 000000014003fb60     libucrt:nlsdata.obj
 0002:00008b68       ??_C@_17PNNKMEED@?$AAM?$AAa?$AAy@ 000000014003fb68     libucrt:nlsdata.obj
 0002:00008b70       ??_C@_17KCJGOCPB@?$AAJ?$AAu?$AAn@ 000000014003fb70     libucrt:nlsdata.obj
 0002:00008b78       ??_C@_17IJPCKHK@?$AAJ?$AAu?$AAl@ 000000014003fb78     libucrt:nlsdata.obj
 0002:00008b80       ??_C@_17ICPELBCN@?$AAA?$AAu?$AAg@ 000000014003fb80     libucrt:nlsdata.obj
 0002:00008b88       ??_C@_17HCHCOKMG@?$AAS?$AAe?$AAp@ 000000014003fb88     libucrt:nlsdata.obj
 0002:00008b90       ??_C@_17FNLKOI@?$AAO?$AAc?$AAt@ 000000014003fb90     libucrt:nlsdata.obj
 0002:00008b98       ??_C@_17BBDMLCIG@?$AAN?$AAo?$AAv@ 000000014003fb98     libucrt:nlsdata.obj
 0002:00008ba0       ??_C@_17EGKACKIF@?$AAD?$AAe?$AAc@ 000000014003fba0     libucrt:nlsdata.obj
 0002:00008ba8       ??_C@_1BA@EFMEIEBA@?$AAJ?$AAa?$AAn?$AAu?$AAa?$AAr?$AAy@ 000000014003fba8     libucrt:nlsdata.obj
 0002:00008bb8       ??_C@_1BC@JGDDFFAM@?$AAF?$AAe?$AAb?$AAr?$AAu?$AAa?$AAr?$AAy@ 000000014003fbb8     libucrt:nlsdata.obj
 0002:00008bd0       ??_C@_1M@IKEENEDF@?$AAM?$AAa?$AAr?$AAc?$AAh@ 000000014003fbd0     libucrt:nlsdata.obj
 0002:00008be0       ??_C@_1M@GJNLMHFD@?$AAA?$AAp?$AAr?$AAi?$AAl@ 000000014003fbe0     libucrt:nlsdata.obj
 0002:00008bf0       ??_C@_19EPFLPGAP@?$AAJ?$AAu?$AAn?$AAe@ 000000014003fbf0     libucrt:nlsdata.obj
 0002:00008c00       ??_C@_19BIFMLPCD@?$AAJ?$AAu?$AAl?$AAy@ 000000014003fc00     libucrt:nlsdata.obj
 0002:00008c10       ??_C@_1O@PAHLKOAC@?$AAA?$AAu?$AAg?$AAu?$AAs?$AAt@ 000000014003fc10     libucrt:nlsdata.obj
 0002:00008c20       ??_C@_1BE@DKAAMBJL@?$AAS?$AAe?$AAp?$AAt?$AAe?$AAm?$AAb?$AAe?$AAr@ 000000014003fc20     libucrt:nlsdata.obj
 0002:00008c38       ??_C@_1BA@EPANDLNG@?$AAO?$AAc?$AAt?$AAo?$AAb?$AAe?$AAr@ 000000014003fc38     libucrt:nlsdata.obj
 0002:00008c48       ??_C@_1BC@BGLIFPF@?$AAN?$AAo?$AAv?$AAe?$AAm?$AAb?$AAe?$AAr@ 000000014003fc48     libucrt:nlsdata.obj
 0002:00008c60       ??_C@_1BC@FEMKIFH@?$AAD?$AAe?$AAc?$AAe?$AAm?$AAb?$AAe?$AAr@ 000000014003fc60     libucrt:nlsdata.obj
 0002:00008c74       ??_C@_15ODEHAHHF@?$AAA?$AAM@ 000000014003fc74     libucrt:nlsdata.obj
 0002:00008c7c       ??_C@_15CLMNNGEL@?$AAP?$AAM@ 000000014003fc7c     libucrt:nlsdata.obj
 0002:00008c88       ??_C@_1BC@IEBCMHCM@?$AAM?$AAM?$AA?1?$AAd?$AAd?$AA?1?$AAy?$AAy@ 000000014003fc88     libucrt:nlsdata.obj
 0002:00008ca0       ??_C@_1CI@KNAKOEBC@?$AAd?$AAd?$AAd?$AAd?$AA?0?$AA?5?$AAM?$AAM?$AAM?$AAM?$AA?5?$AAd?$AAd?$AA?0?$AA?5@ 000000014003fca0     libucrt:nlsdata.obj
 0002:00008cc8       ??_C@_1BC@GDGBMEMK@?$AAH?$AAH?$AA?3?$AAm?$AAm?$AA?3?$AAs?$AAs@ 000000014003fcc8     libucrt:nlsdata.obj
 0002:00008ce0       ??_C@_1M@BMHNFIME@?$AAe?$AAn?$AA?9?$AAU?$AAS@ 000000014003fce0     libucrt:nlsdata.obj
 0002:00008d70       ??_C@_03OEIAHPBN@INF@      000000014003fd70     libucrt:cvt.obj
 0002:00008d74       ??_C@_03OJHLLCGB@inf@      000000014003fd74     libucrt:cvt.obj
 0002:00008d78       ??_C@_03LKNCIKJB@NAN@      000000014003fd78     libucrt:cvt.obj
 0002:00008d7c       ??_C@_03LHCJEHON@nan@      000000014003fd7c     libucrt:cvt.obj
 0002:00008d80       ??_C@_09OFJJIMPC@NAN?$CISNAN?$CJ@ 000000014003fd80     libucrt:cvt.obj
 0002:00008d90       ??_C@_09IPFBKMDL@nan?$CIsnan?$CJ@ 000000014003fd90     libucrt:cvt.obj
 0002:00008da0       ??_C@_08IKHNHAJ@NAN?$CIIND?$CJ@ 000000014003fda0     libucrt:cvt.obj
 0002:00008db0       ??_C@_08OFCDMILK@nan?$CIind?$CJ@ 000000014003fdb0     libucrt:cvt.obj
 0002:00008dbc       ??_C@_05KLBDPFGC@e?$CL000@ 000000014003fdbc     libucrt:cvt.obj
 0002:00008e70       ??_C@_1EA@JGEFHKEI@?$AAa?$AAp?$AAi?$AA?9?$AAm?$AAs?$AA?9?$AAw?$AAi?$AAn?$AA?9?$AAc?$AAo?$AAr?$AAe@ 000000014003fe70     libucrt:winapi_thunks.obj
 0002:00008eb0       ??_C@_1DI@IJCEHOCB@?$AAa?$AAp?$AAi?$AA?9?$AAm?$AAs?$AA?9?$AAw?$AAi?$AAn?$AA?9?$AAc?$AAo?$AAr?$AAe@ 000000014003feb0     libucrt:winapi_thunks.obj
 0002:00008ef0       ??_C@_1EI@MPIAOHOC@?$AAa?$AAp?$AAi?$AA?9?$AAm?$AAs?$AA?9?$AAw?$AAi?$AAn?$AA?9?$AAc?$AAo?$AAr?$AAe@ 000000014003fef0     libucrt:winapi_thunks.obj
 0002:00008f40       ??_C@_1FK@FPHCKFIE@?$AAa?$AAp?$AAi?$AA?9?$AAm?$AAs?$AA?9?$AAw?$AAi?$AAn?$AA?9?$AAc?$AAo?$AAr?$AAe@ 000000014003ff40     libucrt:winapi_thunks.obj
 0002:00008fa0       ??_C@_1EM@DILCGIIO@?$AAa?$AAp?$AAi?$AA?9?$AAm?$AAs?$AA?9?$AAw?$AAi?$AAn?$AA?9?$AAc?$AAo?$AAr?$AAe@ 000000014003ffa0     libucrt:winapi_thunks.obj
 0002:00008ff0       ??_C@_1DM@LNCGDDPN@?$AAa?$AAp?$AAi?$AA?9?$AAm?$AAs?$AA?9?$AAw?$AAi?$AAn?$AA?9?$AAc?$AAo?$AAr?$AAe@ 000000014003fff0     libucrt:winapi_thunks.obj
 0002:00009030       ??_C@_1DO@FPAPJEMD@?$AAa?$AAp?$AAi?$AA?9?$AAm?$AAs?$AA?9?$AAw?$AAi?$AAn?$AA?9?$AAc?$AAo?$AAr?$AAe@ 0000000140040030     libucrt:winapi_thunks.obj
 0002:00009070       ??_C@_1DK@NDHNAHIO@?$AAa?$AAp?$AAi?$AA?9?$AAm?$AAs?$AA?9?$AAw?$AAi?$AAn?$AA?9?$AAc?$AAo?$AAr?$AAe@ 0000000140040070     libucrt:winapi_thunks.obj
 0002:000090b0       ??_C@_1DM@KGHDGBCM@?$AAa?$AAp?$AAi?$AA?9?$AAm?$AAs?$AA?9?$AAw?$AAi?$AAn?$AA?9?$AAc?$AAo?$AAr?$AAe@ 00000001400400b0     libucrt:winapi_thunks.obj
 0002:000090f0       ??_C@_1EO@IJIOEFOH@?$AAa?$AAp?$AAi?$AA?9?$AAm?$AAs?$AA?9?$AAw?$AAi?$AAn?$AA?9?$AAr?$AAt?$AAc?$AAo@ 00000001400400f0     libucrt:winapi_thunks.obj
 0002:00009140       ??_C@_1FG@HHGEKANL@?$AAa?$AAp?$AAi?$AA?9?$AAm?$AAs?$AA?9?$AAw?$AAi?$AAn?$AA?9?$AAs?$AAe?$AAc?$AAu@ 0000000140040140     libucrt:winapi_thunks.obj
 0002:000091a0       ??_C@_1EG@DBIOJECG@?$AAe?$AAx?$AAt?$AA?9?$AAm?$AAs?$AA?9?$AAw?$AAi?$AAn?$AA?9?$AAn?$AAt?$AAu?$AAs@ 00000001400401a0     libucrt:winapi_thunks.obj
 0002:000091f0       ??_C@_1EO@FIHMJCLF@?$AAe?$AAx?$AAt?$AA?9?$AAm?$AAs?$AA?9?$AAw?$AAi?$AAn?$AA?9?$AAn?$AAt?$AAu?$AAs@ 00000001400401f0     libucrt:winapi_thunks.obj
 0002:00009240       ??_C@_1BC@DNHGCMLG@?$AAa?$AAd?$AAv?$AAa?$AAp?$AAi?$AA3?$AA2@ 0000000140040240     libucrt:winapi_thunks.obj
 0002:00009258       ??_C@_1M@OAIMIKLP@?$AAn?$AAt?$AAd?$AAl?$AAl@ 0000000140040258     libucrt:winapi_thunks.obj
 0002:00009270       ??_C@_1EG@DPGNFKGC@?$AAa?$AAp?$AAi?$AA?9?$AAm?$AAs?$AA?9?$AAw?$AAi?$AAn?$AA?9?$AAa?$AAp?$AAp?$AAm@ 0000000140040270     libucrt:winapi_thunks.obj
 0002:000092b8       ??_C@_1O@BCCLBEOE@?$AAu?$AAs?$AAe?$AAr?$AA3?$AA2@ 00000001400402b8     libucrt:winapi_thunks.obj
 0002:000092c8       ??_C@_1BA@IAIFMGEF@?$AAe?$AAx?$AAt?$AA?9?$AAm?$AAs?$AA?9@ 00000001400402c8     libucrt:winapi_thunks.obj
 0002:000092e0       ??_C@_0BA@FHFNEAED@AreFileApisANSI@ 00000001400402e0     libucrt:winapi_thunks.obj
 0002:000092f8       ??_C@_0BA@IHGNDAEB@CompareStringEx@ 00000001400402f8     libucrt:winapi_thunks.obj
 0002:00009310       ??_C@_0BE@LJANKFHF@EnumSystemLocalesEx@ 0000000140040310     libucrt:winapi_thunks.obj
 0002:00009350       ??_C@_0BA@EPCJIIPD@GetDateFormatEx@ 0000000140040350     libucrt:winapi_thunks.obj
 0002:00009368       ??_C@_0BA@ONOKGCMP@GetLocaleInfoEx@ 0000000140040368     libucrt:winapi_thunks.obj
 0002:00009380       ??_C@_0BA@CIJJKCJJ@GetTimeFormatEx@ 0000000140040380     libucrt:winapi_thunks.obj
 0002:00009398       ??_C@_0BJ@PBCCBIPI@GetUserDefaultLocaleName@ 0000000140040398     libucrt:winapi_thunks.obj
 0002:000093c8       ??_C@_0BC@CELBKLLA@IsValidLocaleName@ 00000001400403c8     libucrt:winapi_thunks.obj
 0002:000093e8       ??_C@_0O@KKBNKAPF@LCMapStringEx@ 00000001400403e8     libucrt:winapi_thunks.obj
 0002:00009400       ??_C@_0BB@CDHDDLLP@LCIDToLocaleName@ 0000000140040400     libucrt:winapi_thunks.obj
 0002:00009420       ??_C@_0BB@HBDEELFH@LocaleNameToLCID@ 0000000140040420     libucrt:winapi_thunks.obj
 0002:00009438       ??_C@_0CF@OJOFEIGO@AppPolicyGetProcessTerminationM@ 0000000140040438     libucrt:winapi_thunks.obj
 0002:000094a8       ??_C@_1M@HPNHIDJI@?$AAj?$AAa?$AA?9?$AAJ?$AAP@ 00000001400404a8     libucrt:mbctype.obj
 0002:000094b8       ??_C@_1M@BIBDDEMK@?$AAz?$AAh?$AA?9?$AAC?$AAN@ 00000001400404b8     libucrt:mbctype.obj
 0002:000094c8       ??_C@_1M@JLOOOEGK@?$AAk?$AAo?$AA?9?$AAK?$AAR@ 00000001400404c8     libucrt:mbctype.obj
 0002:000094d8       ??_C@_1M@CLNBBOPM@?$AAz?$AAh?$AA?9?$AAT?$AAW@ 00000001400404d8     libucrt:mbctype.obj
 0002:000094f0       __acrt_rg_language         00000001400404f0     libucrt:get_qualified_locale.obj
 0002:00009900       __acrt_rg_language_count   0000000140040900     libucrt:get_qualified_locale.obj
 0002:00009910       __acrt_rg_country          0000000140040910     libucrt:get_qualified_locale.obj
 0002:00009a80       __acrt_rg_country_count    0000000140040a80     libucrt:get_qualified_locale.obj
 0002:00009a88       ??_C@_1BC@LLOKLNP@?$AAa?$AAm?$AAe?$AAr?$AAi?$AAc?$AAa?$AAn@ 0000000140040a88     libucrt:get_qualified_locale.obj
 0002:00009aa0       ??_C@_1CC@HEIGCDGG@?$AAa?$AAm?$AAe?$AAr?$AAi?$AAc?$AAa?$AAn?$AA?5?$AAe?$AAn?$AAg?$AAl?$AAi?$AAs@ 0000000140040aa0     libucrt:get_qualified_locale.obj
 0002:00009ac8       ??_C@_1CC@IHCNOMIN@?$AAa?$AAm?$AAe?$AAr?$AAi?$AAc?$AAa?$AAn?$AA?9?$AAe?$AAn?$AAg?$AAl?$AAi?$AAs@ 0000000140040ac8     libucrt:get_qualified_locale.obj
 0002:00009af0       ??_C@_1BG@GKAGPCGG@?$AAa?$AAu?$AAs?$AAt?$AAr?$AAa?$AAl?$AAi?$AAa?$AAn@ 0000000140040af0     libucrt:get_qualified_locale.obj
 0002:00009b08       ??_C@_1BA@GMENCENF@?$AAb?$AAe?$AAl?$AAg?$AAi?$AAa?$AAn@ 0000000140040b08     libucrt:get_qualified_locale.obj
 0002:00009b18       ??_C@_1BC@PJMIIAAN@?$AAc?$AAa?$AAn?$AAa?$AAd?$AAi?$AAa?$AAn@ 0000000140040b18     libucrt:get_qualified_locale.obj
 0002:00009b30       ??_C@_17NOIMNFBF@?$AAc?$AAh?$AAh@ 0000000140040b30     libucrt:get_qualified_locale.obj
 0002:00009b38       ??_C@_17GGDALCHA@?$AAc?$AAh?$AAi@ 0000000140040b38     libucrt:get_qualified_locale.obj
 0002:00009b40       ??_C@_1BA@NPNJKIBL@?$AAc?$AAh?$AAi?$AAn?$AAe?$AAs?$AAe@ 0000000140040b40     libucrt:get_qualified_locale.obj
 0002:00009b50       ??_C@_1CC@DINBAMMJ@?$AAc?$AAh?$AAi?$AAn?$AAe?$AAs?$AAe?$AA?9?$AAh?$AAo?$AAn?$AAg?$AAk?$AAo?$AAn@ 0000000140040b50     libucrt:get_qualified_locale.obj
 0002:00009b78       ??_C@_1CG@IOBJPACO@?$AAc?$AAh?$AAi?$AAn?$AAe?$AAs?$AAe?$AA?9?$AAs?$AAi?$AAm?$AAp?$AAl?$AAi?$AAf@ 0000000140040b78     libucrt:get_qualified_locale.obj
 0002:00009ba0       ??_C@_1CE@GAJNDCKG@?$AAc?$AAh?$AAi?$AAn?$AAe?$AAs?$AAe?$AA?9?$AAs?$AAi?$AAn?$AAg?$AAa?$AAp?$AAo@ 0000000140040ba0     libucrt:get_qualified_locale.obj
 0002:00009bc8       ??_C@_1CI@PAJPIOOD@?$AAc?$AAh?$AAi?$AAn?$AAe?$AAs?$AAe?$AA?9?$AAt?$AAr?$AAa?$AAd?$AAi?$AAt?$AAi@ 0000000140040bc8     libucrt:get_qualified_locale.obj
 0002:00009bf0       ??_C@_1BM@NILJBMMD@?$AAd?$AAu?$AAt?$AAc?$AAh?$AA?9?$AAb?$AAe?$AAl?$AAg?$AAi?$AAa?$AAn@ 0000000140040bf0     libucrt:get_qualified_locale.obj
 0002:00009c10       ??_C@_1CC@OOJPJNEJ@?$AAe?$AAn?$AAg?$AAl?$AAi?$AAs?$AAh?$AA?9?$AAa?$AAm?$AAe?$AAr?$AAi?$AAc?$AAa@ 0000000140040c10     libucrt:get_qualified_locale.obj
 0002:00009c38       ??_C@_1BI@IOLFEEM@?$AAe?$AAn?$AAg?$AAl?$AAi?$AAs?$AAh?$AA?9?$AAa?$AAu?$AAs@ 0000000140040c38     libucrt:get_qualified_locale.obj
 0002:00009c50       ??_C@_1BO@HFFNLENJ@?$AAe?$AAn?$AAg?$AAl?$AAi?$AAs?$AAh?$AA?9?$AAb?$AAe?$AAl?$AAi?$AAz?$AAe@ 0000000140040c50     libucrt:get_qualified_locale.obj
 0002:00009c70       ??_C@_1BI@HAPKJMPO@?$AAe?$AAn?$AAg?$AAl?$AAi?$AAs?$AAh?$AA?9?$AAc?$AAa?$AAn@ 0000000140040c70     libucrt:get_qualified_locale.obj
 0002:00009c88       ??_C@_1CE@HLNDMIOJ@?$AAe?$AAn?$AAg?$AAl?$AAi?$AAs?$AAh?$AA?9?$AAc?$AAa?$AAr?$AAi?$AAb?$AAb?$AAe@ 0000000140040c88     libucrt:get_qualified_locale.obj
 0002:00009cb0       ??_C@_1BI@LDHJHHAC@?$AAe?$AAn?$AAg?$AAl?$AAi?$AAs?$AAh?$AA?9?$AAi?$AAr?$AAe@ 0000000140040cb0     libucrt:get_qualified_locale.obj
 0002:00009cc8       ??_C@_1CA@NJMMCFOC@?$AAe?$AAn?$AAg?$AAl?$AAi?$AAs?$AAh?$AA?9?$AAj?$AAa?$AAm?$AAa?$AAi?$AAc?$AAa@ 0000000140040cc8     libucrt:get_qualified_locale.obj
 0002:00009ce8       ??_C@_1BG@BHJEBBGG@?$AAe?$AAn?$AAg?$AAl?$AAi?$AAs?$AAh?$AA?9?$AAn?$AAz@ 0000000140040ce8     libucrt:get_qualified_locale.obj
 0002:00009d00       ??_C@_1CK@FGOEJJCO@?$AAe?$AAn?$AAg?$AAl?$AAi?$AAs?$AAh?$AA?9?$AAs?$AAo?$AAu?$AAt?$AAh?$AA?5?$AAa@ 0000000140040d00     libucrt:get_qualified_locale.obj
 0002:00009d30       ??_C@_1DE@PDBJPCJ@?$AAe?$AAn?$AAg?$AAl?$AAi?$AAs?$AAh?$AA?9?$AAt?$AAr?$AAi?$AAn?$AAi?$AAd?$AAa@ 0000000140040d30     libucrt:get_qualified_locale.obj
 0002:00009d68       ??_C@_1BG@JGCANDME@?$AAe?$AAn?$AAg?$AAl?$AAi?$AAs?$AAh?$AA?9?$AAu?$AAk@ 0000000140040d68     libucrt:get_qualified_locale.obj
 0002:00009d80       ??_C@_1BG@DINKMLE@?$AAe?$AAn?$AAg?$AAl?$AAi?$AAs?$AAh?$AA?9?$AAu?$AAs@ 0000000140040d80     libucrt:get_qualified_locale.obj
 0002:00009d98       ??_C@_1BI@NMFDBHJE@?$AAe?$AAn?$AAg?$AAl?$AAi?$AAs?$AAh?$AA?9?$AAu?$AAs?$AAa@ 0000000140040d98     libucrt:get_qualified_locale.obj
 0002:00009db0       ??_C@_1BO@OIHKJKII@?$AAf?$AAr?$AAe?$AAn?$AAc?$AAh?$AA?9?$AAb?$AAe?$AAl?$AAg?$AAi?$AAa?$AAn@ 0000000140040db0     libucrt:get_qualified_locale.obj
 0002:00009dd0       ??_C@_1CA@NKAELJKI@?$AAf?$AAr?$AAe?$AAn?$AAc?$AAh?$AA?9?$AAc?$AAa?$AAn?$AAa?$AAd?$AAi?$AAa?$AAn@ 0000000140040dd0     libucrt:get_qualified_locale.obj
 0002:00009df0       ??_C@_1CE@MGKCNLGN@?$AAf?$AAr?$AAe?$AAn?$AAc?$AAh?$AA?9?$AAl?$AAu?$AAx?$AAe?$AAm?$AAb?$AAo?$AAu@ 0000000140040df0     libucrt:get_qualified_locale.obj
 0002:00009e18       ??_C@_1BK@CEGEAILM@?$AAf?$AAr?$AAe?$AAn?$AAc?$AAh?$AA?9?$AAs?$AAw?$AAi?$AAs?$AAs@ 0000000140040e18     libucrt:get_qualified_locale.obj
 0002:00009e38       ??_C@_1CA@PAFKEOCC@?$AAg?$AAe?$AAr?$AAm?$AAa?$AAn?$AA?9?$AAa?$AAu?$AAs?$AAt?$AAr?$AAi?$AAa?$AAn@ 0000000140040e38     libucrt:get_qualified_locale.obj
 0002:00009e58       ??_C@_1CI@HCFHGOFD@?$AAg?$AAe?$AAr?$AAm?$AAa?$AAn?$AA?9?$AAl?$AAi?$AAc?$AAh?$AAt?$AAe?$AAn?$AAs@ 0000000140040e58     libucrt:get_qualified_locale.obj
 0002:00009e80       ??_C@_1CE@FEDDNPDG@?$AAg?$AAe?$AAr?$AAm?$AAa?$AAn?$AA?9?$AAl?$AAu?$AAx?$AAe?$AAm?$AAb?$AAo?$AAu@ 0000000140040e80     libucrt:get_qualified_locale.obj
 0002:00009ea8       ??_C@_1BK@LIMINNMN@?$AAg?$AAe?$AAr?$AAm?$AAa?$AAn?$AA?9?$AAs?$AAw?$AAi?$AAs?$AAs@ 0000000140040ea8     libucrt:get_qualified_locale.obj
 0002:00009ec8       ??_C@_1BM@LGMDBEPD@?$AAi?$AAr?$AAi?$AAs?$AAh?$AA?9?$AAe?$AAn?$AAg?$AAl?$AAi?$AAs?$AAh@ 0000000140040ec8     libucrt:get_qualified_locale.obj
 0002:00009ee8       ??_C@_1BM@NNCFBAEE@?$AAi?$AAt?$AAa?$AAl?$AAi?$AAa?$AAn?$AA?9?$AAs?$AAw?$AAi?$AAs?$AAs@ 0000000140040ee8     libucrt:get_qualified_locale.obj
 0002:00009f08       ??_C@_1BE@FEDJNPIB@?$AAn?$AAo?$AAr?$AAw?$AAe?$AAg?$AAi?$AAa?$AAn@ 0000000140040f08     libucrt:get_qualified_locale.obj
 0002:00009f20       ??_C@_1CC@CILKDEIE@?$AAn?$AAo?$AAr?$AAw?$AAe?$AAg?$AAi?$AAa?$AAn?$AA?9?$AAb?$AAo?$AAk?$AAm?$AAa@ 0000000140040f20     libucrt:get_qualified_locale.obj
 0002:00009f48       ??_C@_1CE@DHMMHEPL@?$AAn?$AAo?$AAr?$AAw?$AAe?$AAg?$AAi?$AAa?$AAn?$AA?9?$AAn?$AAy?$AAn?$AAo?$AAr@ 0000000140040f48     libucrt:get_qualified_locale.obj
 0002:00009f70       ??_C@_1CK@OPNMHECD@?$AAp?$AAo?$AAr?$AAt?$AAu?$AAg?$AAu?$AAe?$AAs?$AAe?$AA?9?$AAb?$AAr?$AAa?$AAz@ 0000000140040f70     libucrt:get_qualified_locale.obj
 0002:00009fa0       ??_C@_1CE@KEEHCDB@?$AAs?$AAp?$AAa?$AAn?$AAi?$AAs?$AAh?$AA?9?$AAa?$AAr?$AAg?$AAe?$AAn?$AAt?$AAi@ 0000000140040fa0     libucrt:get_qualified_locale.obj
 0002:00009fc8       ??_C@_1CA@GIAOLHJD@?$AAs?$AAp?$AAa?$AAn?$AAi?$AAs?$AAh?$AA?9?$AAb?$AAo?$AAl?$AAi?$AAv?$AAi?$AAa@ 0000000140040fc8     libucrt:get_qualified_locale.obj
 0002:00009fe8       ??_C@_1BM@OJNDFNPD@?$AAs?$AAp?$AAa?$AAn?$AAi?$AAs?$AAh?$AA?9?$AAc?$AAh?$AAi?$AAl?$AAe@ 0000000140040fe8     libucrt:get_qualified_locale.obj
 0002:0000a008       ??_C@_1CC@OCOLPALL@?$AAs?$AAp?$AAa?$AAn?$AAi?$AAs?$AAh?$AA?9?$AAc?$AAo?$AAl?$AAo?$AAm?$AAb?$AAi@ 0000000140041008     libucrt:get_qualified_locale.obj
 0002:0000a030       ??_C@_1CG@BPOFMKBB@?$AAs?$AAp?$AAa?$AAn?$AAi?$AAs?$AAh?$AA?9?$AAc?$AAo?$AAs?$AAt?$AAa?$AA?5?$AAr@ 0000000140041030     libucrt:get_qualified_locale.obj
 0002:0000a058       ??_C@_1DG@IGOBAPBB@?$AAs?$AAp?$AAa?$AAn?$AAi?$AAs?$AAh?$AA?9?$AAd?$AAo?$AAm?$AAi?$AAn?$AAi?$AAc@ 0000000140041058     libucrt:get_qualified_locale.obj
 0002:0000a090       ??_C@_1CA@JHAPGEGI@?$AAs?$AAp?$AAa?$AAn?$AAi?$AAs?$AAh?$AA?9?$AAe?$AAc?$AAu?$AAa?$AAd?$AAo?$AAr@ 0000000140041090     libucrt:get_qualified_locale.obj
 0002:0000a0b0       ??_C@_1CI@LAPALJPP@?$AAs?$AAp?$AAa?$AAn?$AAi?$AAs?$AAh?$AA?9?$AAe?$AAl?$AA?5?$AAs?$AAa?$AAl?$AAv@ 00000001400410b0     libucrt:get_qualified_locale.obj
 0002:0000a0d8       ??_C@_1CE@PDGBOFOM@?$AAs?$AAp?$AAa?$AAn?$AAi?$AAs?$AAh?$AA?9?$AAg?$AAu?$AAa?$AAt?$AAe?$AAm?$AAa@ 00000001400410d8     libucrt:get_qualified_locale.obj
 0002:0000a100       ??_C@_1CC@NBEBAODI@?$AAs?$AAp?$AAa?$AAn?$AAi?$AAs?$AAh?$AA?9?$AAh?$AAo?$AAn?$AAd?$AAu?$AAr?$AAa@ 0000000140041100     libucrt:get_qualified_locale.obj
 0002:0000a128       ??_C@_1CA@LLKGHBMF@?$AAs?$AAp?$AAa?$AAn?$AAi?$AAs?$AAh?$AA?9?$AAm?$AAe?$AAx?$AAi?$AAc?$AAa?$AAn@ 0000000140041128     libucrt:get_qualified_locale.obj
 0002:0000a148       ??_C@_1BO@LKNDOIGD@?$AAs?$AAp?$AAa?$AAn?$AAi?$AAs?$AAh?$AA?9?$AAm?$AAo?$AAd?$AAe?$AAr?$AAn@ 0000000140041148     libucrt:get_qualified_locale.obj
 0002:0000a168       ??_C@_1CE@NMDMOEEB@?$AAs?$AAp?$AAa?$AAn?$AAi?$AAs?$AAh?$AA?9?$AAn?$AAi?$AAc?$AAa?$AAr?$AAa?$AAg@ 0000000140041168     libucrt:get_qualified_locale.obj
 0002:0000a190       ??_C@_1BO@LLCBEJGB@?$AAs?$AAp?$AAa?$AAn?$AAi?$AAs?$AAh?$AA?9?$AAp?$AAa?$AAn?$AAa?$AAm?$AAa@ 0000000140041190     libucrt:get_qualified_locale.obj
 0002:0000a1b0       ??_C@_1CC@FKPGGIHO@?$AAs?$AAp?$AAa?$AAn?$AAi?$AAs?$AAh?$AA?9?$AAp?$AAa?$AAr?$AAa?$AAg?$AAu?$AAa@ 00000001400411b0     libucrt:get_qualified_locale.obj
 0002:0000a1d8       ??_C@_1BK@CDEIHOOP@?$AAs?$AAp?$AAa?$AAn?$AAi?$AAs?$AAh?$AA?9?$AAp?$AAe?$AAr?$AAu@ 00000001400411d8     libucrt:get_qualified_locale.obj
 0002:0000a1f8       ??_C@_1CI@GAHAKKGP@?$AAs?$AAp?$AAa?$AAn?$AAi?$AAs?$AAh?$AA?9?$AAp?$AAu?$AAe?$AAr?$AAt?$AAo?$AA?5@ 00000001400411f8     libucrt:get_qualified_locale.obj
 0002:0000a220       ??_C@_1CA@NKJBCAGP@?$AAs?$AAp?$AAa?$AAn?$AAi?$AAs?$AAh?$AA?9?$AAu?$AAr?$AAu?$AAg?$AAu?$AAa?$AAy@ 0000000140041220     libucrt:get_qualified_locale.obj
 0002:0000a240       ??_C@_1CE@ODILCONM@?$AAs?$AAp?$AAa?$AAn?$AAi?$AAs?$AAh?$AA?9?$AAv?$AAe?$AAn?$AAe?$AAz?$AAu?$AAe@ 0000000140041240     libucrt:get_qualified_locale.obj
 0002:0000a268       ??_C@_1CA@OBNMCGFO@?$AAs?$AAw?$AAe?$AAd?$AAi?$AAs?$AAh?$AA?9?$AAf?$AAi?$AAn?$AAl?$AAa?$AAn?$AAd@ 0000000140041268     libucrt:get_qualified_locale.obj
 0002:0000a288       ??_C@_1M@PIPDDPPI@?$AAs?$AAw?$AAi?$AAs?$AAs@ 0000000140041288     libucrt:get_qualified_locale.obj
 0002:0000a294       ??_C@_15PJPFLCCM@?$AAu?$AAk@ 0000000140041294     libucrt:get_qualified_locale.obj
 0002:0000a29c       ??_C@_15GMFIMNFM@?$AAu?$AAs@ 000000014004129c     libucrt:get_qualified_locale.obj
 0002:0000a2a8       ??_C@_17HAEBFAGL@?$AAu?$AAs?$AAa@ 00000001400412a8     libucrt:get_qualified_locale.obj
 0002:0000a2b0       ??_C@_1BA@DPFJEPHB@?$AAa?$AAm?$AAe?$AAr?$AAi?$AAc?$AAa@ 00000001400412b0     libucrt:get_qualified_locale.obj
 0002:0000a2c0       ??_C@_1BA@ELOGGFK@?$AAb?$AAr?$AAi?$AAt?$AAa?$AAi?$AAn@ 00000001400412c0     libucrt:get_qualified_locale.obj
 0002:0000a2d0       ??_C@_1M@GHBGIGDA@?$AAc?$AAh?$AAi?$AAn?$AAa@ 00000001400412d0     libucrt:get_qualified_locale.obj
 0002:0000a2e0       ??_C@_1M@NCHEJOPO@?$AAc?$AAz?$AAe?$AAc?$AAh@ 00000001400412e0     libucrt:get_qualified_locale.obj
 0002:0000a2f0       ??_C@_1BA@BKPAPBLA@?$AAe?$AAn?$AAg?$AAl?$AAa?$AAn?$AAd@ 00000001400412f0     libucrt:get_qualified_locale.obj
 0002:0000a300       ??_C@_1BM@HKBCKIPC@?$AAg?$AAr?$AAe?$AAa?$AAt?$AA?5?$AAb?$AAr?$AAi?$AAt?$AAa?$AAi?$AAn@ 0000000140041300     libucrt:get_qualified_locale.obj
 0002:0000a320       ??_C@_1BA@PPCHPGJB@?$AAh?$AAo?$AAl?$AAl?$AAa?$AAn?$AAd@ 0000000140041320     libucrt:get_qualified_locale.obj
 0002:0000a330       ??_C@_1BE@JBMPEGDG@?$AAh?$AAo?$AAn?$AAg?$AA?9?$AAk?$AAo?$AAn?$AAg@ 0000000140041330     libucrt:get_qualified_locale.obj
 0002:0000a348       ??_C@_1BI@KOELBBPJ@?$AAn?$AAe?$AAw?$AA?9?$AAz?$AAe?$AAa?$AAl?$AAa?$AAn?$AAd@ 0000000140041348     libucrt:get_qualified_locale.obj
 0002:0000a360       ??_C@_15HIEBHAIO@?$AAn?$AAz@ 0000000140041360     libucrt:get_qualified_locale.obj
 0002:0000a368       ??_C@_1BC@CHBCPFPI@?$AAp?$AAr?$AA?5?$AAc?$AAh?$AAi?$AAn?$AAa@ 0000000140041368     libucrt:get_qualified_locale.obj
 0002:0000a380       ??_C@_1BC@JAOIIFKD@?$AAp?$AAr?$AA?9?$AAc?$AAh?$AAi?$AAn?$AAa@ 0000000140041380     libucrt:get_qualified_locale.obj
 0002:0000a398       ??_C@_1BI@BEHPPHKC@?$AAp?$AAu?$AAe?$AAr?$AAt?$AAo?$AA?9?$AAr?$AAi?$AAc?$AAo@ 0000000140041398     libucrt:get_qualified_locale.obj
 0002:0000a3b0       ??_C@_1O@PAEOFKDI@?$AAs?$AAl?$AAo?$AAv?$AAa?$AAk@ 00000001400413b0     libucrt:get_qualified_locale.obj
 0002:0000a3c0       ??_C@_1BK@FIHMCKAM@?$AAs?$AAo?$AAu?$AAt?$AAh?$AA?5?$AAa?$AAf?$AAr?$AAi?$AAc?$AAa@ 00000001400413c0     libucrt:get_qualified_locale.obj
 0002:0000a3e0       ??_C@_1BI@NAEOODKB@?$AAs?$AAo?$AAu?$AAt?$AAh?$AA?5?$AAk?$AAo?$AAr?$AAe?$AAa@ 00000001400413e0     libucrt:get_qualified_locale.obj
 0002:0000a3f8       ??_C@_1BK@FBDGGIFF@?$AAs?$AAo?$AAu?$AAt?$AAh?$AA?9?$AAa?$AAf?$AAr?$AAi?$AAc?$AAa@ 00000001400413f8     libucrt:get_qualified_locale.obj
 0002:0000a418       ??_C@_1BI@GHLEJDPK@?$AAs?$AAo?$AAu?$AAt?$AAh?$AA?9?$AAk?$AAo?$AAr?$AAe?$AAa@ 0000000140041418     libucrt:get_qualified_locale.obj
 0002:0000a430       ??_C@_1CE@PLHLOMJF@?$AAt?$AAr?$AAi?$AAn?$AAi?$AAd?$AAa?$AAd?$AA?5?$AA?$CG?$AA?5?$AAt?$AAo?$AAb?$AAa@ 0000000140041430     libucrt:get_qualified_locale.obj
 0002:0000a458       ??_C@_1BO@MODIMHHI@?$AAu?$AAn?$AAi?$AAt?$AAe?$AAd?$AA?9?$AAk?$AAi?$AAn?$AAg?$AAd?$AAo?$AAm@ 0000000140041458     libucrt:get_qualified_locale.obj
 0002:0000a478       ??_C@_1BM@FFHJONBJ@?$AAu?$AAn?$AAi?$AAt?$AAe?$AAd?$AA?9?$AAs?$AAt?$AAa?$AAt?$AAe?$AAs@ 0000000140041478     libucrt:get_qualified_locale.obj
 0002:0000a498       ??_C@_19MPDNHKDG@?$AAu?$AAt?$AAf?$AA8@ 0000000140041498     libucrt:get_qualified_locale.obj
 0002:0000a4a8       ??_C@_17DNCLJFIF@?$AAA?$AAC?$AAP@ 00000001400414a8     libucrt:get_qualified_locale.obj
 0002:0000a4b0       ??_C@_1M@FPEIIFAM@?$AAu?$AAt?$AAf?$AA?9?$AA8@ 00000001400414b0     libucrt:get_qualified_locale.obj
 0002:0000a4c0       ??_C@_17CIKBIHLH@?$AAO?$AAC?$AAP@ 00000001400414c0     libucrt:get_qualified_locale.obj
 0002:0000a4c8       __rglangidNotDefault       00000001400414c8     libucrt:getqloc_downlevel.obj
 0002:0000a4f0       ??_C@_01GBGANLPD@0@        00000001400414f0     libucrt:cfout.obj
 0002:0000a4f4       ??_C@_05DNEBIAHO@1?$CDINF@ 00000001400414f4     libucrt:cfout.obj
 0002:0000a4fc       ??_C@_06IMKFLFPG@1?$CDQNAN@ 00000001400414fc     libucrt:cfout.obj
 0002:0000a504       ??_C@_06PGGFOGJG@1?$CDSNAN@ 0000000140041504     libucrt:cfout.obj
 0002:0000a50c       ??_C@_05PHHOCPM@1?$CDIND@  000000014004150c     libucrt:cfout.obj
 0002:0000b360       ??_C@_15EMKDOKLE@?$AAa?$AAr@ 0000000140042360     libucrt:lcidtoname_downlevel.obj
 0002:0000b368       ??_C@_15KNPADPLH@?$AAb?$AAg@ 0000000140042368     libucrt:lcidtoname_downlevel.obj
 0002:0000b370       ??_C@_15EDMHLDMO@?$AAc?$AAa@ 0000000140042370     libucrt:lcidtoname_downlevel.obj
 0002:0000b378       ??_C@_1O@BPEAJADD@?$AAz?$AAh?$AA?9?$AAC?$AAH?$AAS@ 0000000140042378     libucrt:lcidtoname_downlevel.obj
 0002:0000b388       ??_C@_15LJNHCMNK@?$AAc?$AAs@ 0000000140042388     libucrt:lcidtoname_downlevel.obj
 0002:0000b390       ??_C@_15FOMCIDHG@?$AAd?$AAa@ 0000000140042390     libucrt:lcidtoname_downlevel.obj
 0002:0000b398       ??_C@_15NBKABECB@?$AAd?$AAe@ 0000000140042398     libucrt:lcidtoname_downlevel.obj
 0002:0000b3a0       ??_C@_15GHPEIIAO@?$AAe?$AAl@ 00000001400423a0     libucrt:lcidtoname_downlevel.obj
 0002:0000b3a8       ??_C@_15MNPNEAIF@?$AAe?$AAn@ 00000001400423a8     libucrt:lcidtoname_downlevel.obj
 0002:0000b3b0       ??_C@_15GPIOMPMH@?$AAe?$AAs@ 00000001400423b0     libucrt:lcidtoname_downlevel.obj
 0002:0000b3b8       ??_C@_15NGLOAKJC@?$AAf?$AAi@ 00000001400423b8     libucrt:lcidtoname_downlevel.obj
 0002:0000b3c0       ??_C@_15FBKGNKAM@?$AAf?$AAr@ 00000001400423c0     libucrt:lcidtoname_downlevel.obj
 0002:0000b3c8       ??_C@_15KGGCNEFK@?$AAh?$AAe@ 00000001400423c8     libucrt:lcidtoname_downlevel.obj
 0002:0000b3d0       ??_C@_15PGHLIDMF@?$AAh?$AAu@ 00000001400423d0     libucrt:lcidtoname_downlevel.obj
 0002:0000b3d8       ??_C@_15BIEMAPLM@?$AAi?$AAs@ 00000001400423d8     libucrt:lcidtoname_downlevel.obj
 0002:0000b3e0       ??_C@_15IFJLDHAF@?$AAi?$AAt@ 00000001400423e0     libucrt:lcidtoname_downlevel.obj
 0002:0000b3e8       ??_C@_15GEMIOCAG@?$AAj?$AAa@ 00000001400423e8     libucrt:lcidtoname_downlevel.obj
 0002:0000b3f0       ??_C@_15EPELEGJA@?$AAk?$AAo@ 00000001400423f0     libucrt:lcidtoname_downlevel.obj
 0002:0000b3f8       ??_C@_15NDDHIMN@?$AAn?$AAl@ 00000001400423f8     libucrt:lcidtoname_downlevel.obj
 0002:0000b400       ??_C@_15BPIGNHCD@?$AAn?$AAo@ 0000000140042400     libucrt:lcidtoname_downlevel.obj
 0002:0000b408       ??_C@_15DEOPBLCG@?$AAp?$AAl@ 0000000140042408     libucrt:lcidtoname_downlevel.obj
 0002:0000b410       ??_C@_15KBECGEFG@?$AAp?$AAt@ 0000000140042410     libucrt:lcidtoname_downlevel.obj
 0002:0000b418       ??_C@_15GLJCBFMD@?$AAr?$AAo@ 0000000140042418     libucrt:lcidtoname_downlevel.obj
 0002:0000b420       ??_C@_15FEDGKCDI@?$AAr?$AAu@ 0000000140042420     libucrt:lcidtoname_downlevel.obj
 0002:0000b428       ??_C@_15GLKMLLHM@?$AAh?$AAr@ 0000000140042428     libucrt:lcidtoname_downlevel.obj
 0002:0000b430       ??_C@_15CPKMFBDB@?$AAs?$AAk@ 0000000140042430     libucrt:lcidtoname_downlevel.obj
 0002:0000b438       ??_C@_15BAAIOGMK@?$AAs?$AAq@ 0000000140042438     libucrt:lcidtoname_downlevel.obj
 0002:0000b440       ??_C@_15INNPNOHD@?$AAs?$AAv@ 0000000140042440     libucrt:lcidtoname_downlevel.obj
 0002:0000b448       ??_C@_15CABMMOGH@?$AAt?$AAh@ 0000000140042448     libucrt:lcidtoname_downlevel.obj
 0002:0000b450       ??_C@_15BPLIHJJM@?$AAt?$AAr@ 0000000140042450     libucrt:lcidtoname_downlevel.obj
 0002:0000b458       ??_C@_15NEOEKKDJ@?$AAu?$AAr@ 0000000140042458     libucrt:lcidtoname_downlevel.obj
 0002:0000b460       ??_C@_15NFICGAJK@?$AAi?$AAd@ 0000000140042460     libucrt:lcidtoname_downlevel.obj
 0002:0000b468       ??_C@_15HPJPHDM@?$AAb?$AAe@ 0000000140042468     libucrt:lcidtoname_downlevel.obj
 0002:0000b470       ??_C@_15LCHLGJII@?$AAs?$AAl@ 0000000140042470     libucrt:lcidtoname_downlevel.obj
 0002:0000b478       ??_C@_15PCFJPHHO@?$AAe?$AAt@ 0000000140042478     libucrt:lcidtoname_downlevel.obj
 0002:0000b480       ??_C@_15HPFPGODN@?$AAl?$AAv@ 0000000140042480     libucrt:lcidtoname_downlevel.obj
 0002:0000b488       ??_C@_15NFFGKGLG@?$AAl?$AAt@ 0000000140042488     libucrt:lcidtoname_downlevel.obj
 0002:0000b490       ??_C@_15BDAKCCHN@?$AAf?$AAa@ 0000000140042490     libucrt:lcidtoname_downlevel.obj
 0002:0000b498       ??_C@_15NFGIAIAJ@?$AAv?$AAi@ 0000000140042498     libucrt:lcidtoname_downlevel.obj
 0002:0000b4a0       ??_C@_15LMKNDMHN@?$AAh?$AAy@ 00000001400424a0     libucrt:lcidtoname_downlevel.obj
 0002:0000b4a8       ??_C@_15IJBHMCFL@?$AAa?$AAz@ 00000001400424a8     libucrt:lcidtoname_downlevel.obj
 0002:0000b4b0       ??_C@_15EKOFJABL@?$AAe?$AAu@ 00000001400424b0     libucrt:lcidtoname_downlevel.obj
 0002:0000b4b8       ??_C@_15BGHADCNK@?$AAm?$AAk@ 00000001400424b8     libucrt:lcidtoname_downlevel.obj
 0002:0000b4c0       ??_C@_15JDNICKHM@?$AAa?$AAf@ 00000001400424c0     libucrt:lcidtoname_downlevel.obj
 0002:0000b4c8       ??_C@_15KPJEDBKD@?$AAk?$AAa@ 00000001400424c8     libucrt:lcidtoname_downlevel.obj
 0002:0000b4d0       ??_C@_15PDNFFFEO@?$AAf?$AAo@ 00000001400424d0     libucrt:lcidtoname_downlevel.obj
 0002:0000b4d8       ??_C@_15OMLEGLOC@?$AAh?$AAi@ 00000001400424d8     libucrt:lcidtoname_downlevel.obj
 0002:0000b4e0       ??_C@_15IDNNENKK@?$AAm?$AAs@ 00000001400424e0     libucrt:lcidtoname_downlevel.obj
 0002:0000b4e8       ??_C@_15MACJNBMH@?$AAk?$AAk@ 00000001400424e8     libucrt:lcidtoname_downlevel.obj
 0002:0000b4f0       ??_C@_15DKDJEOND@?$AAk?$AAy@ 00000001400424f0     libucrt:lcidtoname_downlevel.obj
 0002:0000b4f8       ??_C@_15DFGDLJBG@?$AAs?$AAw@ 00000001400424f8     libucrt:lcidtoname_downlevel.obj
 0002:0000b500       ??_C@_15BBFAICNG@?$AAu?$AAz@ 0000000140042500     libucrt:lcidtoname_downlevel.obj
 0002:0000b508       ??_C@_15DKNDCGEA@?$AAt?$AAt@ 0000000140042508     libucrt:lcidtoname_downlevel.obj
 0002:0000b510       ??_C@_15MGIFMDPL@?$AAp?$AAa@ 0000000140042510     libucrt:lcidtoname_downlevel.obj
 0002:0000b518       ??_C@_15HCNDBBA@?$AAg?$AAu@ 0000000140042518     libucrt:lcidtoname_downlevel.obj
 0002:0000b520       ??_C@_15FNBEIBON@?$AAt?$AAa@ 0000000140042520     libucrt:lcidtoname_downlevel.obj
 0002:0000b528       ??_C@_15NCHGBGLK@?$AAt?$AAe@ 0000000140042528     libucrt:lcidtoname_downlevel.obj
 0002:0000b530       ??_C@_15PHPHCBPF@?$AAk?$AAn@ 0000000140042530     libucrt:lcidtoname_downlevel.obj
 0002:0000b538       ??_C@_15DLGBCKMP@?$AAm?$AAr@ 0000000140042538     libucrt:lcidtoname_downlevel.obj
 0002:0000b540       ??_C@_15EABBLBFF@?$AAs?$AAa@ 0000000140042540     libucrt:lcidtoname_downlevel.obj
 0002:0000b548       ??_C@_15CBKOMCOI@?$AAm?$AAn@ 0000000140042548     libucrt:lcidtoname_downlevel.obj
 0002:0000b550       ??_C@_15CKDMCJAF@?$AAg?$AAl@ 0000000140042550     libucrt:lcidtoname_downlevel.obj
 0002:0000b558       ??_C@_17CNJFBPG@?$AAk?$AAo?$AAk@ 0000000140042558     libucrt:lcidtoname_downlevel.obj
 0002:0000b560       ??_C@_17FFBJICPL@?$AAs?$AAy?$AAr@ 0000000140042560     libucrt:lcidtoname_downlevel.obj
 0002:0000b568       ??_C@_17KPNDCPAF@?$AAd?$AAi?$AAv@ 0000000140042568     libucrt:lcidtoname_downlevel.obj
 0002:0000b570       ??_C@_1M@OKAHONE@?$AAa?$AAr?$AA?9?$AAS?$AAA@ 0000000140042570     libucrt:lcidtoname_downlevel.obj
 0002:0000b580       ??_C@_1M@FFFIGIGK@?$AAb?$AAg?$AA?9?$AAB?$AAG@ 0000000140042580     libucrt:lcidtoname_downlevel.obj
 0002:0000b590       ??_C@_1M@BJNKEDC@?$AAc?$AAa?$AA?9?$AAE?$AAS@ 0000000140042590     libucrt:lcidtoname_downlevel.obj
 0002:0000b5a0       ??_C@_1M@IJJHFJHA@?$AAc?$AAs?$AA?9?$AAC?$AAZ@ 00000001400425a0     libucrt:lcidtoname_downlevel.obj
 0002:0000b5b0       ??_C@_1M@CLPEOBGI@?$AAd?$AAa?$AA?9?$AAD?$AAK@ 00000001400425b0     libucrt:lcidtoname_downlevel.obj
 0002:0000b5c0       ??_C@_1M@MCMADGCB@?$AAd?$AAe?$AA?9?$AAD?$AAE@ 00000001400425c0     libucrt:lcidtoname_downlevel.obj
 0002:0000b5d0       ??_C@_1M@OOCKEMAM@?$AAe?$AAl?$AA?9?$AAG?$AAR@ 00000001400425d0     libucrt:lcidtoname_downlevel.obj
 0002:0000b5e0       ??_C@_1M@DDNJFGID@?$AAf?$AAi?$AA?9?$AAF?$AAI@ 00000001400425e0     libucrt:lcidtoname_downlevel.obj
 0002:0000b5f0       ??_C@_1M@GLIPPMAC@?$AAf?$AAr?$AA?9?$AAF?$AAR@ 00000001400425f0     libucrt:lcidtoname_downlevel.obj
 0002:0000b600       ??_C@_1M@GFMCHPE@?$AAh?$AAe?$AA?9?$AAI?$AAL@ 0000000140042600     libucrt:lcidtoname_downlevel.obj
 0002:0000b610       ??_C@_1M@MHLPGNKM@?$AAh?$AAu?$AA?9?$AAH?$AAU@ 0000000140042610     libucrt:lcidtoname_downlevel.obj
 0002:0000b620       ??_C@_1M@LPDDNNPN@?$AAi?$AAs?$AA?9?$AAI?$AAS@ 0000000140042620     libucrt:lcidtoname_downlevel.obj
 0002:0000b630       ??_C@_1M@MADIPODN@?$AAi?$AAt?$AA?9?$AAI?$AAT@ 0000000140042630     libucrt:lcidtoname_downlevel.obj
 0002:0000b640       ??_C@_1M@IHBJJGG@?$AAn?$AAl?$AA?9?$AAN?$AAL@ 0000000140042640     libucrt:lcidtoname_downlevel.obj
 0002:0000b650       ??_C@_1M@EANAGDL@?$AAn?$AAb?$AA?9?$AAN?$AAO@ 0000000140042650     libucrt:lcidtoname_downlevel.obj
 0002:0000b660       ??_C@_1M@NEIEMEGP@?$AAp?$AAl?$AA?9?$AAP?$AAL@ 0000000140042660     libucrt:lcidtoname_downlevel.obj
 0002:0000b670       ??_C@_1M@BOCFIGEP@?$AAp?$AAt?$AA?9?$AAB?$AAR@ 0000000140042670     libucrt:lcidtoname_downlevel.obj
 0002:0000b680       ??_C@_1M@IMPFOPBG@?$AAr?$AAo?$AA?9?$AAR?$AAO@ 0000000140042680     libucrt:lcidtoname_downlevel.obj
 0002:0000b690       ??_C@_1M@IDNNEJMM@?$AAr?$AAu?$AA?9?$AAR?$AAU@ 0000000140042690     libucrt:lcidtoname_downlevel.obj
 0002:0000b6a0       ??_C@_1M@LILEEOGM@?$AAh?$AAr?$AA?9?$AAH?$AAR@ 00000001400426a0     libucrt:lcidtoname_downlevel.obj
 0002:0000b6b0       ??_C@_1M@FKIFEHPB@?$AAs?$AAk?$AA?9?$AAS?$AAK@ 00000001400426b0     libucrt:lcidtoname_downlevel.obj
 0002:0000b6c0       ??_C@_1M@LJMAMNPJ@?$AAs?$AAq?$AA?9?$AAA?$AAL@ 00000001400426c0     libucrt:lcidtoname_downlevel.obj
 0002:0000b6d0       ??_C@_1M@GIAKDKJK@?$AAs?$AAv?$AA?9?$AAS?$AAE@ 00000001400426d0     libucrt:lcidtoname_downlevel.obj
 0002:0000b6e0       ??_C@_1M@MKJKIKCL@?$AAt?$AAh?$AA?9?$AAT?$AAH@ 00000001400426e0     libucrt:lcidtoname_downlevel.obj
 0002:0000b6f0       ??_C@_1M@MFLCCMPB@?$AAt?$AAr?$AA?9?$AAT?$AAR@ 00000001400426f0     libucrt:lcidtoname_downlevel.obj
 0002:0000b700       ??_C@_1M@OIJHDKJN@?$AAu?$AAr?$AA?9?$AAP?$AAK@ 0000000140042700     libucrt:lcidtoname_downlevel.obj
 0002:0000b710       ??_C@_1M@LHIPCIEK@?$AAi?$AAd?$AA?9?$AAI?$AAD@ 0000000140042710     libucrt:lcidtoname_downlevel.obj
 0002:0000b720       ??_C@_1M@MFMOBGI@?$AAu?$AAk?$AA?9?$AAU?$AAA@ 0000000140042720     libucrt:lcidtoname_downlevel.obj
 0002:0000b730       ??_C@_1M@OBGLJIPL@?$AAb?$AAe?$AA?9?$AAB?$AAY@ 0000000140042730     libucrt:lcidtoname_downlevel.obj
 0002:0000b740       ??_C@_1M@BCFAJEAD@?$AAs?$AAl?$AA?9?$AAS?$AAI@ 0000000140042740     libucrt:lcidtoname_downlevel.obj
 0002:0000b750       ??_C@_1M@FKFFEDDN@?$AAe?$AAt?$AA?9?$AAE?$AAE@ 0000000140042750     libucrt:lcidtoname_downlevel.obj
 0002:0000b760       ??_C@_1M@KGKKAACI@?$AAl?$AAv?$AA?9?$AAL?$AAV@ 0000000140042760     libucrt:lcidtoname_downlevel.obj
 0002:0000b770       ??_C@_1M@IFGBIJO@?$AAl?$AAt?$AA?9?$AAL?$AAT@ 0000000140042770     libucrt:lcidtoname_downlevel.obj
 0002:0000b780       ??_C@_1M@FGEAHEDM@?$AAf?$AAa?$AA?9?$AAI?$AAR@ 0000000140042780     libucrt:lcidtoname_downlevel.obj
 0002:0000b790       ??_C@_1M@KBMAIBFN@?$AAv?$AAi?$AA?9?$AAV?$AAN@ 0000000140042790     libucrt:lcidtoname_downlevel.obj
 0002:0000b7a0       ??_C@_1M@GPCBKDJK@?$AAh?$AAy?$AA?9?$AAA?$AAM@ 00000001400427a0     libucrt:lcidtoname_downlevel.obj
 0002:0000b7b0       ??_C@_1BG@BECMDDJB@?$AAa?$AAz?$AA?9?$AAA?$AAZ?$AA?9?$AAL?$AAa?$AAt?$AAn@ 00000001400427b0     libucrt:lcidtoname_downlevel.obj
 0002:0000b7c8       ??_C@_1M@MAOFCAEA@?$AAe?$AAu?$AA?9?$AAE?$AAS@ 00000001400427c8     libucrt:lcidtoname_downlevel.obj
 0002:0000b7d8       ??_C@_1M@IGHABKPI@?$AAm?$AAk?$AA?9?$AAM?$AAK@ 00000001400427d8     libucrt:lcidtoname_downlevel.obj
 0002:0000b7e8       ??_C@_1M@IAIGNEJG@?$AAt?$AAn?$AA?9?$AAZ?$AAA@ 00000001400427e8     libucrt:lcidtoname_downlevel.obj
 0002:0000b7f8       ??_C@_1M@IIJCOJFA@?$AAx?$AAh?$AA?9?$AAZ?$AAA@ 00000001400427f8     libucrt:lcidtoname_downlevel.obj
 0002:0000b808       ??_C@_1M@LGPJHNJH@?$AAz?$AAu?$AA?9?$AAZ?$AAA@ 0000000140042808     libucrt:lcidtoname_downlevel.obj
 0002:0000b818       ??_C@_1M@HOKAOIO@?$AAa?$AAf?$AA?9?$AAZ?$AAA@ 0000000140042818     libucrt:lcidtoname_downlevel.obj
 0002:0000b828       ??_C@_1M@DPCLHLIE@?$AAk?$AAa?$AA?9?$AAG?$AAE@ 0000000140042828     libucrt:lcidtoname_downlevel.obj
 0002:0000b838       ??_C@_1M@BLKMHJBI@?$AAf?$AAo?$AA?9?$AAF?$AAO@ 0000000140042838     libucrt:lcidtoname_downlevel.obj
 0002:0000b848       ??_C@_1M@LGGJAPPB@?$AAh?$AAi?$AA?9?$AAI?$AAN@ 0000000140042848     libucrt:lcidtoname_downlevel.obj
 0002:0000b858       ??_C@_1M@FIKPIHFE@?$AAm?$AAt?$AA?9?$AAM?$AAT@ 0000000140042858     libucrt:lcidtoname_downlevel.obj
 0002:0000b868       ??_C@_1M@HEGGPBFA@?$AAs?$AAe?$AA?9?$AAN?$AAO@ 0000000140042868     libucrt:lcidtoname_downlevel.obj
 0002:0000b878       ??_C@_1M@EIBJEEPA@?$AAm?$AAs?$AA?9?$AAM?$AAY@ 0000000140042878     libucrt:lcidtoname_downlevel.obj
 0002:0000b888       ??_C@_1M@FHLBGMPP@?$AAk?$AAk?$AA?9?$AAK?$AAZ@ 0000000140042888     libucrt:lcidtoname_downlevel.obj
 0002:0000b898       ??_C@_1M@NGJJLCGI@?$AAk?$AAy?$AA?9?$AAK?$AAG@ 0000000140042898     libucrt:lcidtoname_downlevel.obj
 0002:0000b8a8       ??_C@_1M@GIENNBFC@?$AAs?$AAw?$AA?9?$AAK?$AAE@ 00000001400428a8     libucrt:lcidtoname_downlevel.obj
 0002:0000b8b8       ??_C@_1BG@NDGMJIMJ@?$AAu?$AAz?$AA?9?$AAU?$AAZ?$AA?9?$AAL?$AAa?$AAt?$AAn@ 00000001400428b8     libucrt:lcidtoname_downlevel.obj
 0002:0000b8d0       ??_C@_1M@IDCCIHBC@?$AAt?$AAt?$AA?9?$AAR?$AAU@ 00000001400428d0     libucrt:lcidtoname_downlevel.obj
 0002:0000b8e0       ??_C@_1M@LOICPMOJ@?$AAb?$AAn?$AA?9?$AAI?$AAN@ 00000001400428e0     libucrt:lcidtoname_downlevel.obj
 0002:0000b8f0       ??_C@_1M@KPKKNEAH@?$AAp?$AAa?$AA?9?$AAI?$AAN@ 00000001400428f0     libucrt:lcidtoname_downlevel.obj
 0002:0000b900       ??_C@_1M@PJGPPBOG@?$AAg?$AAu?$AA?9?$AAI?$AAN@ 0000000140042900     libucrt:lcidtoname_downlevel.obj
 0002:0000b910       ??_C@_1M@KMKMOPHI@?$AAt?$AAa?$AA?9?$AAI?$AAN@ 0000000140042910     libucrt:lcidtoname_downlevel.obj
 0002:0000b920       ??_C@_1M@KFEHEPAC@?$AAt?$AAe?$AA?9?$AAI?$AAN@ 0000000140042920     libucrt:lcidtoname_downlevel.obj
 0002:0000b930       ??_C@_1M@CDCLMGHI@?$AAk?$AAn?$AA?9?$AAI?$AAN@ 0000000140042930     libucrt:lcidtoname_downlevel.obj
 0002:0000b940       ??_C@_1M@MIODLDKF@?$AAm?$AAl?$AA?9?$AAI?$AAN@ 0000000140042940     libucrt:lcidtoname_downlevel.obj
 0002:0000b950       ??_C@_1M@PBIEACPO@?$AAm?$AAr?$AA?9?$AAI?$AAN@ 0000000140042950     libucrt:lcidtoname_downlevel.obj
 0002:0000b960       ??_C@_1M@NIDEAGPH@?$AAs?$AAa?$AA?9?$AAI?$AAN@ 0000000140042960     libucrt:lcidtoname_downlevel.obj
 0002:0000b970       ??_C@_1M@FHIHCBIO@?$AAm?$AAn?$AA?9?$AAM?$AAN@ 0000000140042970     libucrt:lcidtoname_downlevel.obj
 0002:0000b980       ??_C@_1M@JAIJPENP@?$AAc?$AAy?$AA?9?$AAG?$AAB@ 0000000140042980     libucrt:lcidtoname_downlevel.obj
 0002:0000b990       ??_C@_1M@PHGFBEPN@?$AAg?$AAl?$AA?9?$AAE?$AAS@ 0000000140042990     libucrt:lcidtoname_downlevel.obj
 0002:0000b9a0       ??_C@_1O@KPIPDNCP@?$AAk?$AAo?$AAk?$AA?9?$AAI?$AAN@ 00000001400429a0     libucrt:lcidtoname_downlevel.obj
 0002:0000b9b0       ??_C@_1O@KNHJLDJA@?$AAs?$AAy?$AAr?$AA?9?$AAS?$AAY@ 00000001400429b0     libucrt:lcidtoname_downlevel.obj
 0002:0000b9c0       ??_C@_1O@MKEKBLAH@?$AAd?$AAi?$AAv?$AA?9?$AAM?$AAV@ 00000001400429c0     libucrt:lcidtoname_downlevel.obj
 0002:0000b9d0       ??_C@_1O@OHDCKDDF@?$AAq?$AAu?$AAz?$AA?9?$AAB?$AAO@ 00000001400429d0     libucrt:lcidtoname_downlevel.obj
 0002:0000b9e0       ??_C@_1M@LEPJNLFD@?$AAn?$AAs?$AA?9?$AAZ?$AAA@ 00000001400429e0     libucrt:lcidtoname_downlevel.obj
 0002:0000b9f0       ??_C@_1M@OMLEIIJB@?$AAm?$AAi?$AA?9?$AAN?$AAZ@ 00000001400429f0     libucrt:lcidtoname_downlevel.obj
 0002:0000ba00       ??_C@_1M@PMPEAILG@?$AAa?$AAr?$AA?9?$AAI?$AAQ@ 0000000140042a00     libucrt:lcidtoname_downlevel.obj
 0002:0000ba10       ??_C@_1M@CNKPNOEE@?$AAd?$AAe?$AA?9?$AAC?$AAH@ 0000000140042a10     libucrt:lcidtoname_downlevel.obj
 0002:0000ba20       ??_C@_1M@LKMGMLKO@?$AAe?$AAn?$AA?9?$AAG?$AAB@ 0000000140042a20     libucrt:lcidtoname_downlevel.obj
 0002:0000ba30       ??_C@_1M@PGKJFFGL@?$AAe?$AAs?$AA?9?$AAM?$AAX@ 0000000140042a30     libucrt:lcidtoname_downlevel.obj
 0002:0000ba40       ??_C@_1M@DNNANBDC@?$AAf?$AAr?$AA?9?$AAB?$AAE@ 0000000140042a40     libucrt:lcidtoname_downlevel.obj
 0002:0000ba50       ??_C@_1M@HLGMDFHM@?$AAi?$AAt?$AA?9?$AAC?$AAH@ 0000000140042a50     libucrt:lcidtoname_downlevel.obj
 0002:0000ba60       ??_C@_1M@CLLBGJH@?$AAn?$AAl?$AA?9?$AAB?$AAE@ 0000000140042a60     libucrt:lcidtoname_downlevel.obj
 0002:0000ba70       ??_C@_1M@BODBOGLF@?$AAn?$AAn?$AA?9?$AAN?$AAO@ 0000000140042a70     libucrt:lcidtoname_downlevel.obj
 0002:0000ba80       ??_C@_1M@HFFAHKAD@?$AAp?$AAt?$AA?9?$AAP?$AAT@ 0000000140042a80     libucrt:lcidtoname_downlevel.obj
 0002:0000ba90       ??_C@_1BG@LNOAKHIE@?$AAs?$AAr?$AA?9?$AAS?$AAP?$AA?9?$AAL?$AAa?$AAt?$AAn@ 0000000140042a90     libucrt:lcidtoname_downlevel.obj
 0002:0000baa8       ??_C@_1M@HBMHBGAK@?$AAs?$AAv?$AA?9?$AAF?$AAI@ 0000000140042aa8     libucrt:lcidtoname_downlevel.obj
 0002:0000bab8       ??_C@_1BG@DGCJGJBE@?$AAa?$AAz?$AA?9?$AAA?$AAZ?$AA?9?$AAC?$AAy?$AAr?$AAl@ 0000000140042ab8     libucrt:lcidtoname_downlevel.obj
 0002:0000bad0       ??_C@_1M@KEJDAAHB@?$AAs?$AAe?$AA?9?$AAS?$AAE@ 0000000140042ad0     libucrt:lcidtoname_downlevel.obj
 0002:0000bae0       ??_C@_1M@HEIBJJAD@?$AAm?$AAs?$AA?9?$AAB?$AAN@ 0000000140042ae0     libucrt:lcidtoname_downlevel.obj
 0002:0000baf0       ??_C@_1BG@PBGJMCEM@?$AAu?$AAz?$AA?9?$AAU?$AAZ?$AA?9?$AAC?$AAy?$AAr?$AAl@ 0000000140042af0     libucrt:lcidtoname_downlevel.obj
 0002:0000bb08       ??_C@_1O@LAOBCMDF@?$AAq?$AAu?$AAz?$AA?9?$AAE?$AAC@ 0000000140042b08     libucrt:lcidtoname_downlevel.obj
 0002:0000bb18       ??_C@_1M@POEEMAIO@?$AAa?$AAr?$AA?9?$AAE?$AAG@ 0000000140042b18     libucrt:lcidtoname_downlevel.obj
 0002:0000bb28       ??_C@_1M@EFAKDEDL@?$AAz?$AAh?$AA?9?$AAH?$AAK@ 0000000140042b28     libucrt:lcidtoname_downlevel.obj
 0002:0000bb38       ??_C@_1M@HKKIJHGI@?$AAd?$AAe?$AA?9?$AAA?$AAT@ 0000000140042b38     libucrt:lcidtoname_downlevel.obj
 0002:0000bb48       ??_C@_1M@KBFBEHJF@?$AAe?$AAn?$AA?9?$AAA?$AAU@ 0000000140042b48     libucrt:lcidtoname_downlevel.obj
 0002:0000bb58       ??_C@_1M@MNPLFAAH@?$AAe?$AAs?$AA?9?$AAE?$AAS@ 0000000140042b58     libucrt:lcidtoname_downlevel.obj
 0002:0000bb68       ??_C@_1M@HJOOJFMA@?$AAf?$AAr?$AA?9?$AAC?$AAA@ 0000000140042b68     libucrt:lcidtoname_downlevel.obj
 0002:0000bb78       ??_C@_1BG@JPOFPNAB@?$AAs?$AAr?$AA?9?$AAS?$AAP?$AA?9?$AAC?$AAy?$AAr?$AAl@ 0000000140042b78     libucrt:lcidtoname_downlevel.obj
 0002:0000bb90       ??_C@_1M@LNFOCMOB@?$AAs?$AAe?$AA?9?$AAF?$AAI@ 0000000140042b90     libucrt:lcidtoname_downlevel.obj
 0002:0000bba0       ??_C@_1O@MGJBOAMB@?$AAq?$AAu?$AAz?$AA?9?$AAP?$AAE@ 0000000140042ba0     libucrt:lcidtoname_downlevel.obj
 0002:0000bbb0       ??_C@_1M@GJINLBOK@?$AAa?$AAr?$AA?9?$AAL?$AAY@ 0000000140042bb0     libucrt:lcidtoname_downlevel.obj
 0002:0000bbc0       ??_C@_1M@GGMNHJNL@?$AAz?$AAh?$AA?9?$AAS?$AAG@ 0000000140042bc0     libucrt:lcidtoname_downlevel.obj
 0002:0000bbd0       ??_C@_1M@HOIKODND@?$AAd?$AAe?$AA?9?$AAL?$AAU@ 0000000140042bd0     libucrt:lcidtoname_downlevel.obj
 0002:0000bbe0       ??_C@_1M@DDOCCGFG@?$AAe?$AAn?$AA?9?$AAC?$AAA@ 0000000140042be0     libucrt:lcidtoname_downlevel.obj
 0002:0000bbf0       ??_C@_1M@BNOEMJLF@?$AAe?$AAs?$AA?9?$AAG?$AAT@ 0000000140042bf0     libucrt:lcidtoname_downlevel.obj
 0002:0000bc00       ??_C@_1M@EOGNKEK@?$AAf?$AAr?$AA?9?$AAC?$AAH@ 0000000140042c00     libucrt:lcidtoname_downlevel.obj
 0002:0000bc10       ??_C@_1M@FLIDJFHL@?$AAh?$AAr?$AA?9?$AAB?$AAA@ 0000000140042c10     libucrt:lcidtoname_downlevel.obj
 0002:0000bc20       ??_C@_1O@FMCELNAJ@?$AAs?$AAm?$AAj?$AA?9?$AAN?$AAO@ 0000000140042c20     libucrt:lcidtoname_downlevel.obj
 0002:0000bc30       ??_C@_1M@JHGLJMGJ@?$AAa?$AAr?$AA?9?$AAD?$AAZ@ 0000000140042c30     libucrt:lcidtoname_downlevel.obj
 0002:0000bc40       ??_C@_1M@JKKFDCNP@?$AAz?$AAh?$AA?9?$AAM?$AAO@ 0000000140042c40     libucrt:lcidtoname_downlevel.obj
 0002:0000bc50       ??_C@_1M@GEEFALPE@?$AAd?$AAe?$AA?9?$AAL?$AAI@ 0000000140042c50     libucrt:lcidtoname_downlevel.obj
 0002:0000bc60       ??_C@_1M@IGEOFBG@?$AAe?$AAn?$AA?9?$AAN?$AAZ@ 0000000140042c60     libucrt:lcidtoname_downlevel.obj
 0002:0000bc70       ??_C@_1M@KDBONEHP@?$AAe?$AAs?$AA?9?$AAC?$AAR@ 0000000140042c70     libucrt:lcidtoname_downlevel.obj
 0002:0000bc80       ??_C@_1M@FHMDOHNN@?$AAf?$AAr?$AA?9?$AAL?$AAU@ 0000000140042c80     libucrt:lcidtoname_downlevel.obj
 0002:0000bc90       ??_C@_1BG@NFKKMAFG@?$AAb?$AAs?$AA?9?$AAB?$AAA?$AA?9?$AAL?$AAa?$AAt?$AAn@ 0000000140042c90     libucrt:lcidtoname_downlevel.obj
 0002:0000bca8       ??_C@_1O@IMNBEMCI@?$AAs?$AAm?$AAj?$AA?9?$AAS?$AAE@ 0000000140042ca8     libucrt:lcidtoname_downlevel.obj
 0002:0000bcb8       ??_C@_1M@DHHMBNDP@?$AAa?$AAr?$AA?9?$AAM?$AAA@ 0000000140042cb8     libucrt:lcidtoname_downlevel.obj
 0002:0000bcc8       ??_C@_1M@BNBLJCGH@?$AAe?$AAn?$AA?9?$AAI?$AAE@ 0000000140042cc8     libucrt:lcidtoname_downlevel.obj
 0002:0000bcd8       ??_C@_1M@GEPAFMDL@?$AAe?$AAs?$AA?9?$AAP?$AAA@ 0000000140042cd8     libucrt:lcidtoname_downlevel.obj
 0002:0000bce8       ??_C@_1M@OJONDMDL@?$AAf?$AAr?$AA?9?$AAM?$AAC@ 0000000140042ce8     libucrt:lcidtoname_downlevel.obj
 0002:0000bcf8       ??_C@_1BG@OBCNFJB@?$AAs?$AAr?$AA?9?$AAB?$AAA?$AA?9?$AAL?$AAa?$AAt?$AAn@ 0000000140042cf8     libucrt:lcidtoname_downlevel.obj
 0002:0000bd10       ??_C@_1O@KEMEEGPO@?$AAs?$AAm?$AAa?$AA?9?$AAN?$AAO@ 0000000140042d10     libucrt:lcidtoname_downlevel.obj
 0002:0000bd20       ??_C@_1M@ELMGFODK@?$AAa?$AAr?$AA?9?$AAT?$AAN@ 0000000140042d20     libucrt:lcidtoname_downlevel.obj
 0002:0000bd30       ??_C@_1M@BHDLHFAF@?$AAe?$AAn?$AA?9?$AAZ?$AAA@ 0000000140042d30     libucrt:lcidtoname_downlevel.obj
 0002:0000bd40       ??_C@_1M@BMGIGLIF@?$AAe?$AAs?$AA?9?$AAD?$AAO@ 0000000140042d40     libucrt:lcidtoname_downlevel.obj
 0002:0000bd50       ??_C@_1BG@CMBHIPBE@?$AAs?$AAr?$AA?9?$AAB?$AAA?$AA?9?$AAC?$AAy?$AAr?$AAl@ 0000000140042d50     libucrt:lcidtoname_downlevel.obj
 0002:0000bd68       ??_C@_1O@HEDBLHNP@?$AAs?$AAm?$AAa?$AA?9?$AAS?$AAE@ 0000000140042d68     libucrt:lcidtoname_downlevel.obj
 0002:0000bd78       ??_C@_1M@DAGCADIM@?$AAa?$AAr?$AA?9?$AAO?$AAM@ 0000000140042d78     libucrt:lcidtoname_downlevel.obj
 0002:0000bd88       ??_C@_1M@FODLMICG@?$AAe?$AAn?$AA?9?$AAJ?$AAM@ 0000000140042d88     libucrt:lcidtoname_downlevel.obj
 0002:0000bd98       ??_C@_1M@DNMLCIHB@?$AAe?$AAs?$AA?9?$AAV?$AAE@ 0000000140042d98     libucrt:lcidtoname_downlevel.obj
 0002:0000bda8       ??_C@_1O@EOKHMKJK@?$AAs?$AAm?$AAs?$AA?9?$AAF?$AAI@ 0000000140042da8     libucrt:lcidtoname_downlevel.obj
 0002:0000bdb8       ??_C@_1M@CAFJMKOF@?$AAa?$AAr?$AA?9?$AAY?$AAE@ 0000000140042db8     libucrt:lcidtoname_downlevel.obj
 0002:0000bdc8       ??_C@_1M@CBFHIJLI@?$AAe?$AAn?$AA?9?$AAC?$AAB@ 0000000140042dc8     libucrt:lcidtoname_downlevel.obj
 0002:0000bdd8       ??_C@_1M@BGNFLDN@?$AAe?$AAs?$AA?9?$AAC?$AAO@ 0000000140042dd8     libucrt:lcidtoname_downlevel.obj
 0002:0000bde8       ??_C@_1O@JMPHMAMC@?$AAs?$AAm?$AAn?$AA?9?$AAF?$AAI@ 0000000140042de8     libucrt:lcidtoname_downlevel.obj
 0002:0000bdf8       ??_C@_1M@JLANABKE@?$AAa?$AAr?$AA?9?$AAS?$AAY@ 0000000140042df8     libucrt:lcidtoname_downlevel.obj
 0002:0000be08       ??_C@_1M@HPKGCFGN@?$AAe?$AAn?$AA?9?$AAB?$AAZ@ 0000000140042e08     libucrt:lcidtoname_downlevel.obj
 0002:0000be18       ??_C@_1M@OLJCMLGM@?$AAe?$AAs?$AA?9?$AAP?$AAE@ 0000000140042e18     libucrt:lcidtoname_downlevel.obj
 0002:0000be28       ??_C@_1M@MKKGFKLE@?$AAa?$AAr?$AA?9?$AAJ?$AAO@ 0000000140042e28     libucrt:lcidtoname_downlevel.obj
 0002:0000be38       ??_C@_1M@EKPGLDNI@?$AAe?$AAn?$AA?9?$AAT?$AAT@ 0000000140042e38     libucrt:lcidtoname_downlevel.obj
 0002:0000be48       ??_C@_1M@OONGHFHE@?$AAe?$AAs?$AA?9?$AAA?$AAR@ 0000000140042e48     libucrt:lcidtoname_downlevel.obj
 0002:0000be58       ??_C@_1M@OOJFGBHE@?$AAa?$AAr?$AA?9?$AAL?$AAB@ 0000000140042e58     libucrt:lcidtoname_downlevel.obj
 0002:0000be68       ??_C@_1M@GCEJHNEG@?$AAe?$AAn?$AA?9?$AAZ?$AAW@ 0000000140042e68     libucrt:lcidtoname_downlevel.obj
 0002:0000be78       ??_C@_1M@JNOCAHJI@?$AAe?$AAs?$AA?9?$AAE?$AAC@ 0000000140042e78     libucrt:lcidtoname_downlevel.obj
 0002:0000be88       ??_C@_1M@JEFHPGGB@?$AAa?$AAr?$AA?9?$AAK?$AAW@ 0000000140042e88     libucrt:lcidtoname_downlevel.obj
 0002:0000be98       ??_C@_1M@MLKIBJOJ@?$AAe?$AAn?$AA?9?$AAP?$AAH@ 0000000140042e98     libucrt:lcidtoname_downlevel.obj
 0002:0000bea8       ??_C@_1M@BDNIPEND@?$AAe?$AAs?$AA?9?$AAC?$AAL@ 0000000140042ea8     libucrt:lcidtoname_downlevel.obj
 0002:0000beb8       ??_C@_1M@MPNMEKBD@?$AAa?$AAr?$AA?9?$AAA?$AAE@ 0000000140042eb8     libucrt:lcidtoname_downlevel.obj
 0002:0000bec8       ??_C@_1M@KBJALCPI@?$AAe?$AAs?$AA?9?$AAU?$AAY@ 0000000140042ec8     libucrt:lcidtoname_downlevel.obj
 0002:0000bed8       ??_C@_1M@LLCCOAGA@?$AAa?$AAr?$AA?9?$AAB?$AAH@ 0000000140042ed8     libucrt:lcidtoname_downlevel.obj
 0002:0000bee8       ??_C@_1M@PBFNCDEL@?$AAe?$AAs?$AA?9?$AAP?$AAY@ 0000000140042ee8     libucrt:lcidtoname_downlevel.obj
 0002:0000bef8       ??_C@_1M@EDGINPNP@?$AAa?$AAr?$AA?9?$AAQ?$AAA@ 0000000140042ef8     libucrt:lcidtoname_downlevel.obj
 0002:0000bf08       ??_C@_1M@MKDBIIJI@?$AAe?$AAs?$AA?9?$AAB?$AAO@ 0000000140042f08     libucrt:lcidtoname_downlevel.obj
 0002:0000bf18       ??_C@_1M@CPKKEBLD@?$AAe?$AAs?$AA?9?$AAS?$AAV@ 0000000140042f18     libucrt:lcidtoname_downlevel.obj
 0002:0000bf28       ??_C@_1M@NDBGMMJL@?$AAe?$AAs?$AA?9?$AAH?$AAN@ 0000000140042f28     libucrt:lcidtoname_downlevel.obj
 0002:0000bf38       ??_C@_1M@JIJIBHDP@?$AAe?$AAs?$AA?9?$AAN?$AAI@ 0000000140042f38     libucrt:lcidtoname_downlevel.obj
 0002:0000bf48       ??_C@_1M@CGFMKEEK@?$AAe?$AAs?$AA?9?$AAP?$AAR@ 0000000140042f48     libucrt:lcidtoname_downlevel.obj
 0002:0000bf58       ??_C@_1O@ICJHKIIK@?$AAz?$AAh?$AA?9?$AAC?$AAH?$AAT@ 0000000140042f58     libucrt:lcidtoname_downlevel.obj
 0002:0000bf68       ??_C@_15CLNEJCE@?$AAs?$AAr@ 0000000140042f68     libucrt:lcidtoname_downlevel.obj
 0002:0000cdb0       ??_C@_1M@KAHEKEIG@?$AAa?$AAf?$AA?9?$AAz?$AAa@ 0000000140043db0     libucrt:lcidtoname_downlevel.obj
 0002:0000cdc0       ??_C@_1M@GIECOABL@?$AAa?$AAr?$AA?9?$AAa?$AAe@ 0000000140043dc0     libucrt:lcidtoname_downlevel.obj
 0002:0000cdd0       ??_C@_1M@BMLMEKGI@?$AAa?$AAr?$AA?9?$AAb?$AAh@ 0000000140043dd0     libucrt:lcidtoname_downlevel.obj
 0002:0000cde0       ??_C@_1M@DAPFDGGB@?$AAa?$AAr?$AA?9?$AAd?$AAz@ 0000000140043de0     libucrt:lcidtoname_downlevel.obj
 0002:0000cdf0       ??_C@_1M@FJNKGKIG@?$AAa?$AAr?$AA?9?$AAe?$AAg@ 0000000140043df0     libucrt:lcidtoname_downlevel.obj
 0002:0000ce00       ??_C@_1M@FLGKKCLO@?$AAa?$AAr?$AA?9?$AAi?$AAq@ 0000000140043e00     libucrt:lcidtoname_downlevel.obj
 0002:0000ce10       ??_C@_1M@GNDIPALM@?$AAa?$AAr?$AA?9?$AAj?$AAo@ 0000000140043e10     libucrt:lcidtoname_downlevel.obj
 0002:0000ce20       ??_C@_1M@DDMJFMGJ@?$AAa?$AAr?$AA?9?$AAk?$AAw@ 0000000140043e20     libucrt:lcidtoname_downlevel.obj
 0002:0000ce30       ??_C@_1M@EJALMLHM@?$AAa?$AAr?$AA?9?$AAl?$AAb@ 0000000140043e30     libucrt:lcidtoname_downlevel.obj
 0002:0000ce40       ??_C@_1M@MOBDBLOC@?$AAa?$AAr?$AA?9?$AAl?$AAy@ 0000000140043e40     libucrt:lcidtoname_downlevel.obj
 0002:0000ce50       ??_C@_1M@JAOCLHDH@?$AAa?$AAr?$AA?9?$AAm?$AAa@ 0000000140043e50     libucrt:lcidtoname_downlevel.obj
 0002:0000ce60       ??_C@_1M@JHPMKJIE@?$AAa?$AAr?$AA?9?$AAo?$AAm@ 0000000140043e60     libucrt:lcidtoname_downlevel.obj
 0002:0000ce70       ??_C@_1M@OEPGHFNH@?$AAa?$AAr?$AA?9?$AAq?$AAa@ 0000000140043e70     libucrt:lcidtoname_downlevel.obj
 0002:0000ce80       ??_C@_1M@KJDONENM@?$AAa?$AAr?$AA?9?$AAs?$AAa@ 0000000140043e80     libucrt:lcidtoname_downlevel.obj
 0002:0000ce90       ??_C@_1M@DMJDKLKM@?$AAa?$AAr?$AA?9?$AAs?$AAy@ 0000000140043e90     libucrt:lcidtoname_downlevel.obj
 0002:0000cea0       ??_C@_1M@OMFIPEDC@?$AAa?$AAr?$AA?9?$AAt?$AAn@ 0000000140043ea0     libucrt:lcidtoname_downlevel.obj
 0002:0000ceb0       ??_C@_1M@IHMHGAON@?$AAa?$AAr?$AA?9?$AAy?$AAe@ 0000000140043eb0     libucrt:lcidtoname_downlevel.obj
 0002:0000cec0       ??_C@_1BG@KDCPGJGB@?$AAa?$AAz?$AA?9?$AAa?$AAz?$AA?9?$AAc?$AAy?$AAr?$AAl@ 0000000140043ec0     libucrt:lcidtoname_downlevel.obj
 0002:0000ced8       ??_C@_1BG@IBCKDDOE@?$AAa?$AAz?$AA?9?$AAa?$AAz?$AA?9?$AAl?$AAa?$AAt?$AAn@ 0000000140043ed8     libucrt:lcidtoname_downlevel.obj
 0002:0000cef0       ??_C@_1M@EGPFDCPD@?$AAb?$AAe?$AA?9?$AAb?$AAy@ 0000000140043ef0     libucrt:lcidtoname_downlevel.obj
 0002:0000cf00       ??_C@_1M@PCMGMCGC@?$AAb?$AAg?$AA?9?$AAb?$AAg@ 0000000140043f00     libucrt:lcidtoname_downlevel.obj
 0002:0000cf10       ??_C@_1M@BJBMFGOB@?$AAb?$AAn?$AA?9?$AAi?$AAn@ 0000000140043f10     libucrt:lcidtoname_downlevel.obj
 0002:0000cf20       ??_C@_1BG@EAKMMACD@?$AAb?$AAs?$AA?9?$AAb?$AAa?$AA?9?$AAl?$AAa?$AAt?$AAn@ 0000000140043f20     libucrt:lcidtoname_downlevel.obj
 0002:0000cf38       ??_C@_1M@KGADAODK@?$AAc?$AAa?$AA?9?$AAe?$AAs@ 0000000140043f38     libucrt:lcidtoname_downlevel.obj
 0002:0000cf48       ??_C@_1M@COAJPDHI@?$AAc?$AAs?$AA?9?$AAc?$AAz@ 0000000140043f48     libucrt:lcidtoname_downlevel.obj
 0002:0000cf58       ??_C@_1M@DHBHFONH@?$AAc?$AAy?$AA?9?$AAg?$AAb@ 0000000140043f58     libucrt:lcidtoname_downlevel.obj
 0002:0000cf68       ??_C@_1M@IMGKELGA@?$AAd?$AAa?$AA?9?$AAd?$AAk@ 0000000140043f68     libucrt:lcidtoname_downlevel.obj
 0002:0000cf78       ??_C@_1M@NNDGDNGA@?$AAd?$AAe?$AA?9?$AAa?$AAt@ 0000000140043f78     libucrt:lcidtoname_downlevel.obj
 0002:0000cf88       ??_C@_1M@IKDBHEEM@?$AAd?$AAe?$AA?9?$AAc?$AAh@ 0000000140043f88     libucrt:lcidtoname_downlevel.obj
 0002:0000cf98       ??_C@_1M@GFFOJMCJ@?$AAd?$AAe?$AA?9?$AAd?$AAe@ 0000000140043f98     libucrt:lcidtoname_downlevel.obj
 0002:0000cfa8       ??_C@_1M@MDNLKBPM@?$AAd?$AAe?$AA?9?$AAl?$AAi@ 0000000140043fa8     libucrt:lcidtoname_downlevel.obj
 0002:0000cfb8       ??_C@_1M@NJBEEJNL@?$AAd?$AAe?$AA?9?$AAl?$AAu@ 0000000140043fb8     libucrt:lcidtoname_downlevel.obj
 0002:0000cfc8       ??_C@_1O@GNNELBAP@?$AAd?$AAi?$AAv?$AA?9?$AAm?$AAv@ 0000000140043fc8     libucrt:lcidtoname_downlevel.obj
 0002:0000cfd8       ??_C@_1M@EJLEOGAE@?$AAe?$AAl?$AA?9?$AAg?$AAr@ 0000000140043fd8     libucrt:lcidtoname_downlevel.obj
 0002:0000cfe8       ??_C@_1M@GMPONJN@?$AAe?$AAn?$AA?9?$AAa?$AAu@ 0000000140043fe8     libucrt:lcidtoname_downlevel.obj
 0002:0000cff8       ??_C@_1M@NIDIIPGF@?$AAe?$AAn?$AA?9?$AAb?$AAz@ 0000000140043ff8     libucrt:lcidtoname_downlevel.obj
 0002:0000d008       ??_C@_1M@JEHMIMFO@?$AAe?$AAn?$AA?9?$AAc?$AAa@ 0000000140044008     libucrt:lcidtoname_downlevel.obj
 0002:0000d018       ??_C@_1M@IGMJCDLA@?$AAe?$AAn?$AA?9?$AAc?$AAb@ 0000000140044018     libucrt:lcidtoname_downlevel.obj
 0002:0000d028       ??_C@_1M@BNFIGBKG@?$AAe?$AAn?$AA?9?$AAg?$AAb@ 0000000140044028     libucrt:lcidtoname_downlevel.obj
 0002:0000d038       ??_C@_1M@LKIFDIGP@?$AAe?$AAn?$AA?9?$AAi?$AAe@ 0000000140044038     libucrt:lcidtoname_downlevel.obj
 0002:0000d048       ??_C@_1M@PJKFGCCO@?$AAe?$AAn?$AA?9?$AAj?$AAm@ 0000000140044048     libucrt:lcidtoname_downlevel.obj
 0002:0000d058       ??_C@_1M@KPPKEPBO@?$AAe?$AAn?$AA?9?$AAn?$AAz@ 0000000140044058     libucrt:lcidtoname_downlevel.obj
 0002:0000d068       ??_C@_1M@GMDGLDOB@?$AAe?$AAn?$AA?9?$AAp?$AAh@ 0000000140044068     libucrt:lcidtoname_downlevel.obj
 0002:0000d078       ??_C@_1M@ONGIBJNA@?$AAe?$AAn?$AA?9?$AAt?$AAt@ 0000000140044078     libucrt:lcidtoname_downlevel.obj
 0002:0000d088       ??_C@_1M@LLODPCMM@?$AAe?$AAn?$AA?9?$AAu?$AAs@ 0000000140044088     libucrt:lcidtoname_downlevel.obj
 0002:0000d098       ??_C@_1M@LAKFNPAN@?$AAe?$AAn?$AA?9?$AAz?$AAa@ 0000000140044098     libucrt:lcidtoname_downlevel.obj
 0002:0000d0a8       ??_C@_1M@MFNHNHEO@?$AAe?$AAn?$AA?9?$AAz?$AAw@ 00000001400440a8     libucrt:lcidtoname_downlevel.obj
 0002:0000d0b8       ??_C@_1M@EJEINPHM@?$AAe?$AAs?$AA?9?$AAa?$AAr@ 00000001400440b8     libucrt:lcidtoname_downlevel.obj
 0002:0000d0c8       ??_C@_1M@GNKPCCJA@?$AAe?$AAs?$AA?9?$AAb?$AAo@ 00000001400440c8     libucrt:lcidtoname_downlevel.obj
 0002:0000d0d8       ??_C@_1M@LEEGFONL@?$AAe?$AAs?$AA?9?$AAc?$AAl@ 00000001400440d8     libucrt:lcidtoname_downlevel.obj
 0002:0000d0e8       ??_C@_1M@KGPDPBDF@?$AAe?$AAs?$AA?9?$AAc?$AAo@ 00000001400440e8     libucrt:lcidtoname_downlevel.obj
 0002:0000d0f8       ??_C@_1M@EIAHOHH@?$AAe?$AAs?$AA?9?$AAc?$AAr@ 00000001400440f8     libucrt:lcidtoname_downlevel.obj
 0002:0000d108       ??_C@_1M@LLPGMBIN@?$AAe?$AAs?$AA?9?$AAd?$AAo@ 0000000140044108     libucrt:lcidtoname_downlevel.obj
 0002:0000d118       ??_C@_1M@DKHMKNJA@?$AAe?$AAs?$AA?9?$AAe?$AAc@ 0000000140044118     libucrt:lcidtoname_downlevel.obj
 0002:0000d128       ??_C@_1M@GKGFPKAP@?$AAe?$AAs?$AA?9?$AAe?$AAs@ 0000000140044128     libucrt:lcidtoname_downlevel.obj
 0002:0000d138       ??_C@_1M@LKHKGDLN@?$AAe?$AAs?$AA?9?$AAg?$AAt@ 0000000140044138     libucrt:lcidtoname_downlevel.obj
 0002:0000d148       ??_C@_1M@HEIIGGJD@?$AAe?$AAs?$AA?9?$AAh?$AAn@ 0000000140044148     libucrt:lcidtoname_downlevel.obj
 0002:0000d158       ??_C@_1M@FBDHPPGD@?$AAe?$AAs?$AA?9?$AAm?$AAx@ 0000000140044158     libucrt:lcidtoname_downlevel.obj
 0002:0000d168       ??_C@_1M@DPAGLNDH@?$AAe?$AAs?$AA?9?$AAn?$AAi@ 0000000140044168     libucrt:lcidtoname_downlevel.obj
 0002:0000d178       ??_C@_1M@MDGOPGDD@?$AAe?$AAs?$AA?9?$AAp?$AAa@ 0000000140044178     libucrt:lcidtoname_downlevel.obj
 0002:0000d188       ??_C@_1M@EMAMGBGE@?$AAe?$AAs?$AA?9?$AAp?$AAe@ 0000000140044188     libucrt:lcidtoname_downlevel.obj
 0002:0000d198       ??_C@_1M@IBMCAOEC@?$AAe?$AAs?$AA?9?$AAp?$AAr@ 0000000140044198     libucrt:lcidtoname_downlevel.obj
 0002:0000d1a8       ??_C@_1M@FGMDIJED@?$AAe?$AAs?$AA?9?$AAp?$AAy@ 00000001400441a8     libucrt:lcidtoname_downlevel.obj
 0002:0000d1b8       ??_C@_1M@IIDEOLLL@?$AAe?$AAs?$AA?9?$AAs?$AAv@ 00000001400441b8     libucrt:lcidtoname_downlevel.obj
 0002:0000d1c8       ??_C@_1M@GAOBIPA@?$AAe?$AAs?$AA?9?$AAu?$AAy@ 00000001400441c8     libucrt:lcidtoname_downlevel.obj
 0002:0000d1d8       ??_C@_1M@JKFFICHJ@?$AAe?$AAs?$AA?9?$AAv?$AAe@ 00000001400441d8     libucrt:lcidtoname_downlevel.obj
 0002:0000d1e8       ??_C@_1M@PNMLOJDF@?$AAe?$AAt?$AA?9?$AAe?$AAe@ 00000001400441e8     libucrt:lcidtoname_downlevel.obj
 0002:0000d1f8       ??_C@_1M@GHHLIKEI@?$AAe?$AAu?$AA?9?$AAe?$AAs@ 00000001400441f8     libucrt:lcidtoname_downlevel.obj
 0002:0000d208       ??_C@_1M@PBNONODE@?$AAf?$AAa?$AA?9?$AAi?$AAr@ 0000000140044208     libucrt:lcidtoname_downlevel.obj
 0002:0000d218       ??_C@_1M@JEEHPMIL@?$AAf?$AAi?$AA?9?$AAf?$AAi@ 0000000140044218     libucrt:lcidtoname_downlevel.obj
 0002:0000d228       ??_C@_1M@LMDCNDBA@?$AAf?$AAo?$AA?9?$AAf?$AAo@ 0000000140044228     libucrt:lcidtoname_downlevel.obj
 0002:0000d238       ??_C@_1M@JKEOHLDK@?$AAf?$AAr?$AA?9?$AAb?$AAe@ 0000000140044238     libucrt:lcidtoname_downlevel.obj
 0002:0000d248       ??_C@_1M@NOHADPMI@?$AAf?$AAr?$AA?9?$AAc?$AAa@ 0000000140044248     libucrt:lcidtoname_downlevel.obj
 0002:0000d258       ??_C@_1M@KDHIHAEC@?$AAf?$AAr?$AA?9?$AAc?$AAh@ 0000000140044258     libucrt:lcidtoname_downlevel.obj
 0002:0000d268       ??_C@_1M@MMBBFGAK@?$AAf?$AAr?$AA?9?$AAf?$AAr@ 0000000140044268     libucrt:lcidtoname_downlevel.obj
 0002:0000d278       ??_C@_1M@PAFNENNF@?$AAf?$AAr?$AA?9?$AAl?$AAu@ 0000000140044278     libucrt:lcidtoname_downlevel.obj
 0002:0000d288       ??_C@_1M@EOHDJGDD@?$AAf?$AAr?$AA?9?$AAm?$AAc@ 0000000140044288     libucrt:lcidtoname_downlevel.obj
 0002:0000d298       ??_C@_1M@FAPLLOPF@?$AAg?$AAl?$AA?9?$AAe?$AAs@ 0000000140044298     libucrt:lcidtoname_downlevel.obj
 0002:0000d2a8       ??_C@_1M@FOPBFLOO@?$AAg?$AAu?$AA?9?$AAi?$AAn@ 00000001400442a8     libucrt:lcidtoname_downlevel.obj
 0002:0000d2b8       ??_C@_1M@KBMCINPM@?$AAh?$AAe?$AA?9?$AAi?$AAl@ 00000001400442b8     libucrt:lcidtoname_downlevel.obj
 0002:0000d2c8       ??_C@_1M@BBPHKFPJ@?$AAh?$AAi?$AA?9?$AAi?$AAn@ 00000001400442c8     libucrt:lcidtoname_downlevel.obj
 0002:0000d2d8       ??_C@_1M@PMBNDPHD@?$AAh?$AAr?$AA?9?$AAb?$AAa@ 00000001400442d8     libucrt:lcidtoname_downlevel.obj
 0002:0000d2e8       ??_C@_1M@BPCKOEGE@?$AAh?$AAr?$AA?9?$AAh?$AAr@ 00000001400442e8     libucrt:lcidtoname_downlevel.obj
 0002:0000d2f8       ??_C@_1M@GACBMHKE@?$AAh?$AAu?$AA?9?$AAh?$AAu@ 00000001400442f8     libucrt:lcidtoname_downlevel.obj
 0002:0000d308       ??_C@_1M@MILPAJJC@?$AAh?$AAy?$AA?9?$AAa?$AAm@ 0000000140044308     libucrt:lcidtoname_downlevel.obj
 0002:0000d318       ??_C@_1M@BABBICEC@?$AAi?$AAd?$AA?9?$AAi?$AAd@ 0000000140044318     libucrt:lcidtoname_downlevel.obj
 0002:0000d328       ??_C@_1M@BIKNHHPF@?$AAi?$AAs?$AA?9?$AAi?$AAs@ 0000000140044328     libucrt:lcidtoname_downlevel.obj
 0002:0000d338       ??_C@_1M@NMPCJPHE@?$AAi?$AAt?$AA?9?$AAc?$AAh@ 0000000140044338     libucrt:lcidtoname_downlevel.obj
 0002:0000d348       ??_C@_1M@GHKGFEDF@?$AAi?$AAt?$AA?9?$AAi?$AAt@ 0000000140044348     libucrt:lcidtoname_downlevel.obj
 0002:0000d358       ??_C@_1M@NIEJCJJA@?$AAj?$AAa?$AA?9?$AAj?$AAp@ 0000000140044358     libucrt:lcidtoname_downlevel.obj
 0002:0000d368       ??_C@_1M@JILFNBIM@?$AAk?$AAa?$AA?9?$AAg?$AAe@ 0000000140044368     libucrt:lcidtoname_downlevel.obj
 0002:0000d378       ??_C@_1M@PACPMGPH@?$AAk?$AAk?$AA?9?$AAk?$AAz@ 0000000140044378     libucrt:lcidtoname_downlevel.obj
 0002:0000d388       ??_C@_1M@IELFGMHA@?$AAk?$AAn?$AA?9?$AAi?$AAn@ 0000000140044388     libucrt:lcidtoname_downlevel.obj
 0002:0000d398       ??_C@_1O@IBBJHCH@?$AAk?$AAo?$AAk?$AA?9?$AAi?$AAn@ 0000000140044398     libucrt:lcidtoname_downlevel.obj
 0002:0000d3a8       ??_C@_1M@DMHAEOGC@?$AAk?$AAo?$AA?9?$AAk?$AAr@ 00000001400443a8     libucrt:lcidtoname_downlevel.obj
 0002:0000d3b8       ??_C@_1M@HBAHBIGA@?$AAk?$AAy?$AA?9?$AAk?$AAg@ 00000001400443b8     libucrt:lcidtoname_downlevel.obj
 0002:0000d3c8       ??_C@_1M@KPMILCJG@?$AAl?$AAt?$AA?9?$AAl?$AAt@ 00000001400443c8     libucrt:lcidtoname_downlevel.obj
 0002:0000d3d8       ??_C@_1M@BDEKKCA@?$AAl?$AAv?$AA?9?$AAl?$AAv@ 00000001400443d8     libucrt:lcidtoname_downlevel.obj
 0002:0000d3e8       ??_C@_1M@ELCKCCJJ@?$AAm?$AAi?$AA?9?$AAn?$AAz@ 00000001400443e8     libucrt:lcidtoname_downlevel.obj
 0002:0000d3f8       ??_C@_1M@CBOOLAPA@?$AAm?$AAk?$AA?9?$AAm?$AAk@ 00000001400443f8     libucrt:lcidtoname_downlevel.obj
 0002:0000d408       ??_C@_1M@GPHNBJKN@?$AAm?$AAl?$AA?9?$AAi?$AAn@ 0000000140044408     libucrt:lcidtoname_downlevel.obj
 0002:0000d418       ??_C@_1M@PABJILIG@?$AAm?$AAn?$AA?9?$AAm?$AAn@ 0000000140044418     libucrt:lcidtoname_downlevel.obj
 0002:0000d428       ??_C@_1M@FGBKKIPG@?$AAm?$AAr?$AA?9?$AAi?$AAn@ 0000000140044428     libucrt:lcidtoname_downlevel.obj
 0002:0000d438       ??_C@_1M@NDBPDDAL@?$AAm?$AAs?$AA?9?$AAb?$AAn@ 0000000140044438     libucrt:lcidtoname_downlevel.obj
 0002:0000d448       ??_C@_1M@OPIHOOPI@?$AAm?$AAs?$AA?9?$AAm?$AAy@ 0000000140044448     libucrt:lcidtoname_downlevel.obj
 0002:0000d458       ??_C@_1M@PPDBCNFM@?$AAm?$AAt?$AA?9?$AAm?$AAt@ 0000000140044458     libucrt:lcidtoname_downlevel.obj
 0002:0000d468       ??_C@_1M@KDJDKMDD@?$AAn?$AAb?$AA?9?$AAn?$AAo@ 0000000140044468     libucrt:lcidtoname_downlevel.obj
 0002:0000d478       ??_C@_1M@KFCFLMJP@?$AAn?$AAl?$AA?9?$AAb?$AAe@ 0000000140044478     libucrt:lcidtoname_downlevel.obj
 0002:0000d488       ??_C@_1M@KPOPDDGO@?$AAn?$AAl?$AA?9?$AAn?$AAl@ 0000000140044488     libucrt:lcidtoname_downlevel.obj
 0002:0000d498       ??_C@_1M@LJKPEMLN@?$AAn?$AAn?$AA?9?$AAn?$AAo@ 0000000140044498     libucrt:lcidtoname_downlevel.obj
 0002:0000d4a8       ??_C@_1M@BDGHHBFL@?$AAn?$AAs?$AA?9?$AAz?$AAa@ 00000001400444a8     libucrt:lcidtoname_downlevel.obj
 0002:0000d4b8       ??_C@_1M@IDEHOAP@?$AAp?$AAa?$AA?9?$AAi?$AAn@ 00000001400444b8     libucrt:lcidtoname_downlevel.obj
 0002:0000d4c8       ??_C@_1M@HDBKGOGH@?$AAp?$AAl?$AA?9?$AAp?$AAl@ 00000001400444c8     libucrt:lcidtoname_downlevel.obj
 0002:0000d4d8       ??_C@_1M@LJLLCMEH@?$AAp?$AAt?$AA?9?$AAb?$AAr@ 00000001400444d8     libucrt:lcidtoname_downlevel.obj
 0002:0000d4e8       ??_C@_1M@NCMONAAL@?$AAp?$AAt?$AA?9?$AAp?$AAt@ 00000001400444e8     libucrt:lcidtoname_downlevel.obj
 0002:0000d4f8       ??_C@_1O@EAKMAJDN@?$AAq?$AAu?$AAz?$AA?9?$AAb?$AAo@ 00000001400444f8     libucrt:lcidtoname_downlevel.obj
 0002:0000d508       ??_C@_1O@BHHPIGDN@?$AAq?$AAu?$AAz?$AA?9?$AAe?$AAc@ 0000000140044508     libucrt:lcidtoname_downlevel.obj
 0002:0000d518       ??_C@_1O@GBAPEKMJ@?$AAq?$AAu?$AAz?$AA?9?$AAp?$AAe@ 0000000140044518     libucrt:lcidtoname_downlevel.obj
 0002:0000d528       ??_C@_1M@CLGLEFBO@?$AAr?$AAo?$AA?9?$AAr?$AAo@ 0000000140044528     libucrt:lcidtoname_downlevel.obj
 0002:0000d538       ??_C@_1M@CEEDODME@?$AAr?$AAu?$AA?9?$AAr?$AAu@ 0000000140044538     libucrt:lcidtoname_downlevel.obj
 0002:0000d548       ??_C@_1M@HPKKKMPP@?$AAs?$AAa?$AA?9?$AAi?$AAn@ 0000000140044548     libucrt:lcidtoname_downlevel.obj
 0002:0000d558       ??_C@_1M@BKMAIGOJ@?$AAs?$AAe?$AA?9?$AAf?$AAi@ 0000000140044558     libucrt:lcidtoname_downlevel.obj
 0002:0000d568       ??_C@_1M@NDPIFLFI@?$AAs?$AAe?$AA?9?$AAn?$AAo@ 0000000140044568     libucrt:lcidtoname_downlevel.obj
 0002:0000d578       ??_C@_1M@DANKKHJ@?$AAs?$AAe?$AA?9?$AAs?$AAe@ 0000000140044578     libucrt:lcidtoname_downlevel.obj
 0002:0000d588       ??_C@_1M@PNBLONPJ@?$AAs?$AAk?$AA?9?$AAs?$AAk@ 0000000140044588     libucrt:lcidtoname_downlevel.obj
 0002:0000d598       ??_C@_1M@LFMODOAL@?$AAs?$AAl?$AA?9?$AAs?$AAi@ 0000000140044598     libucrt:lcidtoname_downlevel.obj
 0002:0000d5a8       ??_C@_1O@DFKOMPG@?$AAs?$AAm?$AAa?$AA?9?$AAn?$AAo@ 00000001400445a8     libucrt:lcidtoname_downlevel.obj
 0002:0000d5b8       ??_C@_1O@NDKPBNNH@?$AAs?$AAm?$AAa?$AA?9?$AAs?$AAe@ 00000001400445b8     libucrt:lcidtoname_downlevel.obj
 0002:0000d5c8       ??_C@_1O@PLLKBHAB@?$AAs?$AAm?$AAj?$AA?9?$AAn?$AAo@ 00000001400445c8     libucrt:lcidtoname_downlevel.obj
 0002:0000d5d8       ??_C@_1O@CLEPOGCA@?$AAs?$AAm?$AAj?$AA?9?$AAs?$AAe@ 00000001400445d8     libucrt:lcidtoname_downlevel.obj
 0002:0000d5e8       ??_C@_1O@DLGJGKMK@?$AAs?$AAm?$AAn?$AA?9?$AAf?$AAi@ 00000001400445e8     libucrt:lcidtoname_downlevel.obj
 0002:0000d5f8       ??_C@_1O@OJDJGAJC@?$AAs?$AAm?$AAs?$AA?9?$AAf?$AAi@ 00000001400445f8     libucrt:lcidtoname_downlevel.obj
 0002:0000d608       ??_C@_1M@BOFOGHPB@?$AAs?$AAq?$AA?9?$AAa?$AAl@ 0000000140044608     libucrt:lcidtoname_downlevel.obj
 0002:0000d618       ??_C@_1BG@LJBBIPGB@?$AAs?$AAr?$AA?9?$AAb?$AAa?$AA?9?$AAc?$AAy?$AAr?$AAl@ 0000000140044618     libucrt:lcidtoname_downlevel.obj
 0002:0000d630       ??_C@_1BG@JLBENFOE@?$AAs?$AAr?$AA?9?$AAb?$AAa?$AA?9?$AAl?$AAa?$AAt?$AAn@ 0000000140044630     libucrt:lcidtoname_downlevel.obj
 0002:0000d648       ??_C@_1BG@KODPNHE@?$AAs?$AAr?$AA?9?$AAs?$AAp?$AA?9?$AAc?$AAy?$AAr?$AAl@ 0000000140044648     libucrt:lcidtoname_downlevel.obj
 0002:0000d660       ??_C@_1BG@CIOGKHPB@?$AAs?$AAr?$AA?9?$AAs?$AAp?$AA?9?$AAl?$AAa?$AAt?$AAn@ 0000000140044660     libucrt:lcidtoname_downlevel.obj
 0002:0000d678       ??_C@_1M@NGFJLMAC@?$AAs?$AAv?$AA?9?$AAf?$AAi@ 0000000140044678     libucrt:lcidtoname_downlevel.obj
 0002:0000d688       ??_C@_1M@MPJEJAJC@?$AAs?$AAv?$AA?9?$AAs?$AAe@ 0000000140044688     libucrt:lcidtoname_downlevel.obj
 0002:0000d698       ??_C@_1M@MPNDHLFK@?$AAs?$AAw?$AA?9?$AAk?$AAe@ 0000000140044698     libucrt:lcidtoname_downlevel.obj
 0002:0000d6a8       ??_C@_1O@KOHBJJI@?$AAs?$AAy?$AAr?$AA?9?$AAs?$AAy@ 00000001400446a8     libucrt:lcidtoname_downlevel.obj
 0002:0000d6b8       ??_C@_1M@LDCEFHA@?$AAt?$AAa?$AA?9?$AAi?$AAn@ 00000001400446b8     libucrt:lcidtoname_downlevel.obj
 0002:0000d6c8       ??_C@_1M@CNJOFAK@?$AAt?$AAe?$AA?9?$AAi?$AAn@ 00000001400446c8     libucrt:lcidtoname_downlevel.obj
 0002:0000d6d8       ??_C@_1M@GNAECACD@?$AAt?$AAh?$AA?9?$AAt?$AAh@ 00000001400446d8     libucrt:lcidtoname_downlevel.obj
 0002:0000d6e8       ??_C@_1M@CHBIHOJO@?$AAt?$AAn?$AA?9?$AAz?$AAa@ 00000001400446e8     libucrt:lcidtoname_downlevel.obj
 0002:0000d6f8       ??_C@_1M@GCCMIGPJ@?$AAt?$AAr?$AA?9?$AAt?$AAr@ 00000001400446f8     libucrt:lcidtoname_downlevel.obj
 0002:0000d708       ??_C@_1M@CELMCNBK@?$AAt?$AAt?$AA?9?$AAr?$AAu@ 0000000140044708     libucrt:lcidtoname_downlevel.obj
 0002:0000d718       ??_C@_1M@KLMCELGA@?$AAu?$AAk?$AA?9?$AAu?$AAa@ 0000000140044718     libucrt:lcidtoname_downlevel.obj
 0002:0000d728       ??_C@_1M@EPAJJAJF@?$AAu?$AAr?$AA?9?$AAp?$AAk@ 0000000140044728     libucrt:lcidtoname_downlevel.obj
 0002:0000d738       ??_C@_1BG@GEGPMCDJ@?$AAu?$AAz?$AA?9?$AAu?$AAz?$AA?9?$AAc?$AAy?$AAr?$AAl@ 0000000140044738     libucrt:lcidtoname_downlevel.obj
 0002:0000d750       ??_C@_1BG@EGGKJILM@?$AAu?$AAz?$AA?9?$AAu?$AAz?$AA?9?$AAl?$AAa?$AAt?$AAn@ 0000000140044750     libucrt:lcidtoname_downlevel.obj
 0002:0000d768       ??_C@_1M@GFOCLFF@?$AAv?$AAi?$AA?9?$AAv?$AAn@ 0000000140044768     libucrt:lcidtoname_downlevel.obj
 0002:0000d778       ??_C@_1M@CPAMEDFI@?$AAx?$AAh?$AA?9?$AAz?$AAa@ 0000000140044778     libucrt:lcidtoname_downlevel.obj
 0002:0000d788       ??_C@_1O@EBKIFIGN@?$AAz?$AAh?$AA?9?$AAc?$AAh?$AAs@ 0000000140044788     libucrt:lcidtoname_downlevel.obj
 0002:0000d798       ??_C@_1O@NMHPGANE@?$AAz?$AAh?$AA?9?$AAc?$AAh?$AAt@ 0000000140044798     libucrt:lcidtoname_downlevel.obj
 0002:0000d7a8       ??_C@_1M@LPINJOMC@?$AAz?$AAh?$AA?9?$AAc?$AAn@ 00000001400447a8     libucrt:lcidtoname_downlevel.obj
 0002:0000d7b8       ??_C@_1M@OCJEJODD@?$AAz?$AAh?$AA?9?$AAh?$AAk@ 00000001400447b8     libucrt:lcidtoname_downlevel.obj
 0002:0000d7c8       ??_C@_1M@DNDLJINH@?$AAz?$AAh?$AA?9?$AAm?$AAo@ 00000001400447c8     libucrt:lcidtoname_downlevel.obj
 0002:0000d7d8       ??_C@_1M@MBFDNDND@?$AAz?$AAh?$AA?9?$AAs?$AAg@ 00000001400447d8     libucrt:lcidtoname_downlevel.obj
 0002:0000d7e8       ??_C@_1M@IMEPLEPE@?$AAz?$AAh?$AA?9?$AAt?$AAw@ 00000001400447e8     libucrt:lcidtoname_downlevel.obj
 0002:0000d7f8       ??_C@_1M@BBGHNHJP@?$AAz?$AAu?$AA?9?$AAz?$AAa@ 00000001400447f8     libucrt:lcidtoname_downlevel.obj
 0002:0000da60       ??_C@_1BA@BALFACEM@?$AAC?$AAO?$AAN?$AAO?$AAU?$AAT?$AA$@ 0000000140044a60     libucrt:initcon.obj
 0002:0000da70       __log10_256_lead           0000000140044a70     libucrt:log10_256_lead_tail_table.obj
 0002:0000e280       __log10_256_tail           0000000140045280     libucrt:log10_256_lead_tail_table.obj
 0002:0000ea88       _Asan_string_should_annotate 0000000140045a88     libcpmt:asan_noop.obj
 0002:0000ea88       _Asan_string_should_annotate_default 0000000140045a88     libcpmt:asan_noop.obj
 0002:0000ea89       _Asan_vector_should_annotate_default 0000000140045a89     libcpmt:asan_noop.obj
 0002:0000ea90       _load_config_used          0000000140045a90     LIBCMT:loadcfg.obj
 0002:0000ec00       ??_R4exception@std@@6B@    0000000140045c00     main.obj
 0002:0000ec28       ??_R3exception@std@@8      0000000140045c28     main.obj
 0002:0000ec40       ??_R2exception@std@@8      0000000140045c40     main.obj
 0002:0000ec50       ??_R1A@?0A@EA@exception@std@@8 0000000140045c50     main.obj
 0002:0000ec78       ??_R4bad_alloc@std@@6B@    0000000140045c78     main.obj
 0002:0000eca0       ??_R3bad_alloc@std@@8      0000000140045ca0     main.obj
 0002:0000ecb8       ??_R2bad_alloc@std@@8      0000000140045cb8     main.obj
 0002:0000ecd0       ??_R1A@?0A@EA@bad_alloc@std@@8 0000000140045cd0     main.obj
 0002:0000ecf8       ??_R4bad_array_new_length@std@@6B@ 0000000140045cf8     main.obj
 0002:0000ed20       ??_R3bad_array_new_length@std@@8 0000000140045d20     main.obj
 0002:0000ed38       ??_R2bad_array_new_length@std@@8 0000000140045d38     main.obj
 0002:0000ed58       ??_R1A@?0A@EA@bad_array_new_length@std@@8 0000000140045d58     main.obj
 0002:0000ed80       ??_R4runtime_error@std@@6B@ 0000000140045d80     main.obj
 0002:0000eda8       ??_R3runtime_error@std@@8  0000000140045da8     main.obj
 0002:0000edc0       ??_R2runtime_error@std@@8  0000000140045dc0     main.obj
 0002:0000edd8       ??_R1A@?0A@EA@runtime_error@std@@8 0000000140045dd8     main.obj
 0002:0000ee00       ??_R3error_category@std@@8 0000000140045e00     main.obj
 0002:0000ee18       ??_R2error_category@std@@8 0000000140045e18     main.obj
 0002:0000ee28       ??_R1A@?0A@EA@error_category@std@@8 0000000140045e28     main.obj
 0002:0000ee50       ??_R4_System_error@std@@6B@ 0000000140045e50     main.obj
 0002:0000ee78       ??_R3_System_error@std@@8  0000000140045e78     main.obj
 0002:0000ee90       ??_R2_System_error@std@@8  0000000140045e90     main.obj
 0002:0000eeb0       ??_R1A@?0A@EA@_System_error@std@@8 0000000140045eb0     main.obj
 0002:0000eed8       ??_R4system_error@std@@6B@ 0000000140045ed8     main.obj
 0002:0000ef00       ??_R3system_error@std@@8   0000000140045f00     main.obj
 0002:0000ef18       ??_R2system_error@std@@8   0000000140045f18     main.obj
 0002:0000ef40       ??_R1A@?0A@EA@system_error@std@@8 0000000140045f40     main.obj
 0002:0000ef68       ??_R4_Iostream_error_category2@std@@6B@ 0000000140045f68     main.obj
 0002:0000ef90       ??_R3_Iostream_error_category2@std@@8 0000000140045f90     main.obj
 0002:0000efa8       ??_R2_Iostream_error_category2@std@@8 0000000140045fa8     main.obj
 0002:0000efc0       ??_R1A@?0A@EA@_Iostream_error_category2@std@@8 0000000140045fc0     main.obj
 0002:0000efe8       ??_R4bad_cast@std@@6B@     0000000140045fe8     main.obj
 0002:0000f010       ??_R3bad_cast@std@@8       0000000140046010     main.obj
 0002:0000f028       ??_R2bad_cast@std@@8       0000000140046028     main.obj
 0002:0000f040       ??_R1A@?0A@EA@bad_cast@std@@8 0000000140046040     main.obj
 0002:0000f068       ??_R4_Facet_base@std@@6B@  0000000140046068     main.obj
 0002:0000f090       ??_R3_Facet_base@std@@8    0000000140046090     main.obj
 0002:0000f0a8       ??_R2_Facet_base@std@@8    00000001400460a8     main.obj
 0002:0000f0b8       ??_R1A@?0A@EA@_Facet_base@std@@8 00000001400460b8     main.obj
 0002:0000f0e0       ??_R1A@?0A@EA@facet@locale@std@@8 00000001400460e0     main.obj
 0002:0000f108       ??_R3facet@locale@std@@8   0000000140046108     main.obj
 0002:0000f120       ??_R2facet@locale@std@@8   0000000140046120     main.obj
 0002:0000f140       ??_R17?0A@EA@_Crt_new_delete@std@@8 0000000140046140     main.obj
 0002:0000f168       ??_R3_Crt_new_delete@std@@8 0000000140046168     main.obj
 0002:0000f180       ??_R2_Crt_new_delete@std@@8 0000000140046180     main.obj
 0002:0000f190       ??_R1A@?0A@EA@_Crt_new_delete@std@@8 0000000140046190     main.obj
 0002:0000f1b8       ??_R4facet@locale@std@@6B@ 00000001400461b8     main.obj
 0002:0000f1e0       ??_R4ctype_base@std@@6B@   00000001400461e0     main.obj
 0002:0000f208       ??_R3ctype_base@std@@8     0000000140046208     main.obj
 0002:0000f220       ??_R2ctype_base@std@@8     0000000140046220     main.obj
 0002:0000f248       ??_R1A@?0A@EA@ctype_base@std@@8 0000000140046248     main.obj
 0002:0000f270       ??_R4?$ctype@D@std@@6B@    0000000140046270     main.obj
 0002:0000f298       ??_R3?$ctype@D@std@@8      0000000140046298     main.obj
 0002:0000f2b0       ??_R2?$ctype@D@std@@8      00000001400462b0     main.obj
 0002:0000f2e0       ??_R1A@?0A@EA@?$ctype@D@std@@8 00000001400462e0     main.obj
 0002:0000f308       ??_R4failure@ios_base@std@@6B@ 0000000140046308     main.obj
 0002:0000f330       ??_R3failure@ios_base@std@@8 0000000140046330     main.obj
 0002:0000f348       ??_R2failure@ios_base@std@@8 0000000140046348     main.obj
 0002:0000f378       ??_R1A@?0A@EA@failure@ios_base@std@@8 0000000140046378     main.obj
 0002:0000f3a0       ??_R4?$num_put@DV?$ostreambuf_iterator@DU?$char_traits@D@std@@@std@@@std@@6B@ 00000001400463a0     main.obj
 0002:0000f3c8       ??_R3?$num_put@DV?$ostreambuf_iterator@DU?$char_traits@D@std@@@std@@@std@@8 00000001400463c8     main.obj
 0002:0000f3e0       ??_R2?$num_put@DV?$ostreambuf_iterator@DU?$char_traits@D@std@@@std@@@std@@8 00000001400463e0     main.obj
 0002:0000f408       ??_R1A@?0A@EA@?$num_put@DV?$ostreambuf_iterator@DU?$char_traits@D@std@@@std@@@std@@8 0000000140046408     main.obj
 0002:0000f430       ??_R4?$num_get@DV?$istreambuf_iterator@DU?$char_traits@D@std@@@std@@@std@@6B@ 0000000140046430     main.obj
 0002:0000f458       ??_R3?$num_get@DV?$istreambuf_iterator@DU?$char_traits@D@std@@@std@@@std@@8 0000000140046458     main.obj
 0002:0000f470       ??_R2?$num_get@DV?$istreambuf_iterator@DU?$char_traits@D@std@@@std@@@std@@8 0000000140046470     main.obj
 0002:0000f498       ??_R1A@?0A@EA@?$num_get@DV?$istreambuf_iterator@DU?$char_traits@D@std@@@std@@@std@@8 0000000140046498     main.obj
 0002:0000f4c0       ??_R4?$numpunct@D@std@@6B@ 00000001400464c0     main.obj
 0002:0000f4e8       ??_R3?$numpunct@D@std@@8   00000001400464e8     main.obj
 0002:0000f500       ??_R2?$numpunct@D@std@@8   0000000140046500     main.obj
 0002:0000f528       ??_R1A@?0A@EA@?$numpunct@D@std@@8 0000000140046528     main.obj
 0002:0000f550       ??_R4logic_error@std@@6B@  0000000140046550     libcpmt:xthrow.obj
 0002:0000f578       ??_R3logic_error@std@@8    0000000140046578     libcpmt:xthrow.obj
 0002:0000f590       ??_R2logic_error@std@@8    0000000140046590     libcpmt:xthrow.obj
 0002:0000f5a8       ??_R1A@?0A@EA@logic_error@std@@8 00000001400465a8     libcpmt:xthrow.obj
 0002:0000f5d0       ??_R4length_error@std@@6B@ 00000001400465d0     libcpmt:xthrow.obj
 0002:0000f5f8       ??_R3length_error@std@@8   00000001400465f8     libcpmt:xthrow.obj
 0002:0000f610       ??_R2length_error@std@@8   0000000140046610     libcpmt:xthrow.obj
 0002:0000f630       ??_R1A@?0A@EA@length_error@std@@8 0000000140046630     libcpmt:xthrow.obj
 0002:0000f658       ??_R4out_of_range@std@@6B@ 0000000140046658     libcpmt:xthrow.obj
 0002:0000f680       ??_R3out_of_range@std@@8   0000000140046680     libcpmt:xthrow.obj
 0002:0000f698       ??_R2out_of_range@std@@8   0000000140046698     libcpmt:xthrow.obj
 0002:0000f6b8       ??_R1A@?0A@EA@out_of_range@std@@8 00000001400466b8     libcpmt:xthrow.obj
 0002:0000f6e0       ??_R4_Locimp@locale@std@@6B@ 00000001400466e0     libcpmt:locale0.obj
 0002:0000f708       ??_R3_Locimp@locale@std@@8 0000000140046708     libcpmt:locale0.obj
 0002:0000f720       ??_R2_Locimp@locale@std@@8 0000000140046720     libcpmt:locale0.obj
 0002:0000f748       ??_R1A@?0A@EA@_Locimp@locale@std@@8 0000000140046748     libcpmt:locale0.obj
 0002:0000f770       ??_R4ios_base@std@@6B@     0000000140046770     libcpmt:cin.obj
 0002:0000f798       ??_R3ios_base@std@@8       0000000140046798     libcpmt:cin.obj
 0002:0000f7b0       ??_R2ios_base@std@@8       00000001400467b0     libcpmt:cin.obj
 0002:0000f7c8       ??_R1A@?0A@EA@ios_base@std@@8 00000001400467c8     libcpmt:cin.obj
 0002:0000f7f0       ??_R17?0A@EA@?$_Iosb@H@std@@8 00000001400467f0     libcpmt:cin.obj
 0002:0000f818       ??_R3?$_Iosb@H@std@@8      0000000140046818     libcpmt:cin.obj
 0002:0000f830       ??_R2?$_Iosb@H@std@@8      0000000140046830     libcpmt:cin.obj
 0002:0000f840       ??_R1A@?0A@EA@?$_Iosb@H@std@@8 0000000140046840     libcpmt:cin.obj
 0002:0000f868       ??_R4?$basic_ios@DU?$char_traits@D@std@@@std@@6B@ 0000000140046868     libcpmt:cin.obj
 0002:0000f890       ??_R3?$basic_ios@DU?$char_traits@D@std@@@std@@8 0000000140046890     libcpmt:cin.obj
 0002:0000f8a8       ??_R2?$basic_ios@DU?$char_traits@D@std@@@std@@8 00000001400468a8     libcpmt:cin.obj
 0002:0000f8c8       ??_R1A@?0A@EA@?$basic_ios@DU?$char_traits@D@std@@@std@@8 00000001400468c8     libcpmt:cin.obj
 0002:0000f8f0       ??_R4?$basic_streambuf@DU?$char_traits@D@std@@@std@@6B@ 00000001400468f0     libcpmt:cin.obj
 0002:0000f918       ??_R3?$basic_streambuf@DU?$char_traits@D@std@@@std@@8 0000000140046918     libcpmt:cin.obj
 0002:0000f930       ??_R2?$basic_streambuf@DU?$char_traits@D@std@@@std@@8 0000000140046930     libcpmt:cin.obj
 0002:0000f940       ??_R1A@?0A@EA@?$basic_streambuf@DU?$char_traits@D@std@@@std@@8 0000000140046940     libcpmt:cin.obj
 0002:0000f968       ??_R4?$basic_istream@DU?$char_traits@D@std@@@std@@6B@ 0000000140046968     libcpmt:cin.obj
 0002:0000f990       ??_R3?$basic_istream@DU?$char_traits@D@std@@@std@@8 0000000140046990     libcpmt:cin.obj
 0002:0000f9a8       ??_R2?$basic_istream@DU?$char_traits@D@std@@@std@@8 00000001400469a8     libcpmt:cin.obj
 0002:0000f9d0       ??_R1A@?0A@EA@?$basic_istream@DU?$char_traits@D@std@@@std@@8 00000001400469d0     libcpmt:cin.obj
 0002:0000f9f8       ??_R1A@A@3FA@?$basic_ios@DU?$char_traits@D@std@@@std@@8 00000001400469f8     libcpmt:cin.obj
 0002:0000fa20       ??_R1A@A@3EA@ios_base@std@@8 0000000140046a20     libcpmt:cin.obj
 0002:0000fa48       ??_R17A@3EA@?$_Iosb@H@std@@8 0000000140046a48     libcpmt:cin.obj
 0002:0000fa70       ??_R4?$basic_filebuf@DU?$char_traits@D@std@@@std@@6B@ 0000000140046a70     libcpmt:cin.obj
 0002:0000fa98       ??_R3?$basic_filebuf@DU?$char_traits@D@std@@@std@@8 0000000140046a98     libcpmt:cin.obj
 0002:0000fab0       ??_R2?$basic_filebuf@DU?$char_traits@D@std@@@std@@8 0000000140046ab0     libcpmt:cin.obj
 0002:0000fac8       ??_R1A@?0A@EA@?$basic_filebuf@DU?$char_traits@D@std@@@std@@8 0000000140046ac8     libcpmt:cin.obj
 0002:0000faf0       ??_R3codecvt_base@std@@8   0000000140046af0     libcpmt:cin.obj
 0002:0000fb08       ??_R2codecvt_base@std@@8   0000000140046b08     libcpmt:cin.obj
 0002:0000fb30       ??_R1A@?0A@EA@codecvt_base@std@@8 0000000140046b30     libcpmt:cin.obj
 0002:0000fb58       ??_R4?$codecvt@DDU_Mbstatet@@@std@@6B@ 0000000140046b58     libcpmt:cin.obj
 0002:0000fb80       ??_R3?$codecvt@DDU_Mbstatet@@@std@@8 0000000140046b80     libcpmt:cin.obj
 0002:0000fb98       ??_R2?$codecvt@DDU_Mbstatet@@@std@@8 0000000140046b98     libcpmt:cin.obj
 0002:0000fbc8       ??_R1A@?0A@EA@?$codecvt@DDU_Mbstatet@@@std@@8 0000000140046bc8     libcpmt:cin.obj
 0002:0000fbf0       ??_R4?$basic_ostream@DU?$char_traits@D@std@@@std@@6B@ 0000000140046bf0     libcpmt:cout.obj
 0002:0000fc18       ??_R3?$basic_ostream@DU?$char_traits@D@std@@@std@@8 0000000140046c18     libcpmt:cout.obj
 0002:0000fc30       ??_R2?$basic_ostream@DU?$char_traits@D@std@@@std@@8 0000000140046c30     libcpmt:cout.obj
 0002:0000fc58       ??_R1A@?0A@EA@?$basic_ostream@DU?$char_traits@D@std@@@std@@8 0000000140046c58     libcpmt:cout.obj
 0002:0000fc80       ??_R4type_info@@6B@        0000000140046c80     LIBCMT:std_type_info_static.obj
 0002:0000fca8       ??_R3type_info@@8          0000000140046ca8     LIBCMT:std_type_info_static.obj
 0002:0000fcc0       ??_R2type_info@@8          0000000140046cc0     LIBCMT:std_type_info_static.obj
 0002:0000fcd0       ??_R1A@?0A@EA@type_info@@8 0000000140046cd0     LIBCMT:std_type_info_static.obj
 0002:0000fcf8       ??_R4bad_exception@std@@6B@ 0000000140046cf8     libvcruntime:frame.obj
 0002:0000fd20       ??_R3bad_exception@std@@8  0000000140046d20     libvcruntime:frame.obj
 0002:0000fd38       ??_R2bad_exception@std@@8  0000000140046d38     libvcruntime:frame.obj
 0002:0000fd50       ??_R1A@?0A@EA@bad_exception@std@@8 0000000140046d50     libvcruntime:frame.obj
 0002:0000fd74       __volatile_metadata        0000000140046d74     <linker-defined>
 0002:000102f8       __rtc_iaa                  00000001400472f8     LIBCMT:initsect.obj
 0002:00010300       __rtc_izz                  0000000140047300     LIBCMT:initsect.obj
 0002:00010308       __rtc_taa                  0000000140047308     LIBCMT:initsect.obj
 0002:00010310       __rtc_tzz                  0000000140047310     LIBCMT:initsect.obj
 0002:00012978       _TI3?AVbad_array_new_length@std@@ 0000000140049978     main.obj
 0002:00012998       _CTA3?AVbad_array_new_length@std@@ 0000000140049998     main.obj
 0002:000129b8       _CT??_R0?AVbad_array_new_length@std@@@8??0bad_array_new_length@std@@QEAA@AEBV01@@Z24 00000001400499b8     main.obj
 0002:000129e0       _CT??_R0?AVbad_alloc@std@@@8??0bad_alloc@std@@QEAA@AEBV01@@Z24 00000001400499e0     main.obj
 0002:00012a08       _CT??_R0?AVexception@std@@@8??0exception@std@@QEAA@AEBV01@@Z24 0000000140049a08     main.obj
 0002:00012a30       _CT??_R0?AVruntime_error@std@@@8??0runtime_error@std@@QEAA@AEBV01@@Z24 0000000140049a30     main.obj
 0002:00012a58       _CT??_R0?AVsystem_error@std@@@8??0system_error@std@@QEAA@AEBV01@@Z40 0000000140049a58     main.obj
 0002:00012a80       _CT??_R0?AV_System_error@std@@@8??0_System_error@std@@QEAA@AEBV01@@Z40 0000000140049a80     main.obj
 0002:00012aa8       _TI2?AVbad_cast@std@@      0000000140049aa8     main.obj
 0002:00012ac8       _CTA2?AVbad_cast@std@@     0000000140049ac8     main.obj
 0002:00012ae0       _CT??_R0?AVbad_cast@std@@@8??0bad_cast@std@@QEAA@AEBV01@@Z24 0000000140049ae0     main.obj
 0002:00012b08       _TI5?AVfailure@ios_base@std@@ 0000000140049b08     main.obj
 0002:00012b28       _CTA5?AVfailure@ios_base@std@@ 0000000140049b28     main.obj
 0002:00012b58       _CT??_R0?AVfailure@ios_base@std@@@8??0failure@ios_base@std@@QEAA@AEBV012@@Z40 0000000140049b58     main.obj
 0002:00012b80       _TI2?AVbad_alloc@std@@     0000000140049b80     libcpmt:xthrow.obj
 0002:00012ba0       _CTA2?AVbad_alloc@std@@    0000000140049ba0     libcpmt:xthrow.obj
 0002:00012bb8       _CT??_R0?AVlogic_error@std@@@8??0logic_error@std@@QEAA@AEBV01@@Z24 0000000140049bb8     libcpmt:xthrow.obj
 0002:00012be0       _TI3?AVlength_error@std@@  0000000140049be0     libcpmt:xthrow.obj
 0002:00012c00       _CTA3?AVlength_error@std@@ 0000000140049c00     libcpmt:xthrow.obj
 0002:00012c20       _CT??_R0?AVlength_error@std@@@8??0length_error@std@@QEAA@AEBV01@@Z24 0000000140049c20     libcpmt:xthrow.obj
 0002:00012c48       _TI3?AVout_of_range@std@@  0000000140049c48     libcpmt:xthrow.obj
 0002:00012c68       _CTA3?AVout_of_range@std@@ 0000000140049c68     libcpmt:xthrow.obj
 0002:00012c88       _CT??_R0?AVout_of_range@std@@@8??0out_of_range@std@@QEAA@AEBV01@@Z24 0000000140049c88     libcpmt:xthrow.obj
 0002:00012cb0       _TI2?AVruntime_error@std@@ 0000000140049cb0     libcpmt:xthrow.obj
 0002:00012cd0       _CTA2?AVruntime_error@std@@ 0000000140049cd0     libcpmt:xthrow.obj
 0002:00012ce8       _TI2?AVbad_exception@std@@ 0000000140049ce8     libvcruntime:frame.obj
 0002:00012d08       _CTA2?AVbad_exception@std@@ 0000000140049d08     libvcruntime:frame.obj
 0002:00012d20       _CT??_R0?AVbad_exception@std@@@8??0bad_exception@std@@QEAA@AEBV01@@Z24 0000000140049d20     libvcruntime:frame.obj
 0002:00012d44       __IMPORT_DESCRIPTOR_KERNEL32 0000000140049d44     kernel32:KERNEL32.dll
 0002:00012d58       __NULL_IMPORT_DESCRIPTOR   0000000140049d58     kernel32:KERNEL32.dll
 0003:00000000       ?_Static@?1???$_Immortalize_memcpy_image@V_Iostream_error_category2@std@@@std@@YAAEBV_Iostream_error_category2@1@XZ@4U?$_Constexpr_immortalize_impl@V_Iostream_error_category2@std@@@1@A 000000014004b000     main.obj
 0003:00000020       ?_Sync@ios_base@std@@0_NA  000000014004b020     libcpmt:ios.obj
 0003:00000030       __security_cookie_complement 000000014004b030     LIBCMT:gs_cookie.obj
 0003:00000038       __security_cookie          000000014004b038     LIBCMT:gs_cookie.obj
 0003:00000040       _fltused                   000000014004b040     LIBCMT:fltused.obj
 0003:00000044       __scrt_native_dllmain_reason 000000014004b044     LIBCMT:utility.obj
 0003:00000048       __isa_available            000000014004b048     LIBCMT:cpu_disp.obj
 0003:0000004c       __isa_enabled              000000014004b04c     LIBCMT:cpu_disp.obj
 0003:00000050       __memset_fast_string_threshold 000000014004b050     LIBCMT:cpu_disp.obj
 0003:00000058       __memset_nt_threshold      000000014004b058     LIBCMT:cpu_disp.obj
 0003:00000060       __scrt_default_matherr     000000014004b060     LIBCMT:matherr.obj
 0003:00000090       __acrt_lconv_c             000000014004b090     libucrt:localeconv.obj
 0003:00000128       __acrt_lconv               000000014004b128     libucrt:localeconv.obj
 0003:00000130       __acrt_lconv_static_decimal 000000014004b130     libucrt:localeconv.obj
 0003:00000134       __acrt_lconv_static_W_decimal 000000014004b134     libucrt:localeconv.obj
 0003:00000138       _pctype                    000000014004b138     libucrt:ctype.obj
 0003:00000140       _pwctype                   000000014004b140     libucrt:ctype.obj
 0003:00000150       _iob                       000000014004b150     libucrt:_file.obj
 0003:00000258       __abort_behavior           000000014004b258     libucrt:abort.obj
 0003:00000290       __acrt_initial_locale_data 000000014004b290     libucrt:nlsdata.obj
 0003:000003e8       __acrt_initial_locale_pointers 000000014004b3e8     libucrt:nlsdata.obj
 0003:000003f8       __acrt_wide_c_locale_string 000000014004b3f8     libucrt:nlsdata.obj
 0003:000003fc       __mb_cur_max               000000014004b3fc     libucrt:nlsdata.obj
 0003:00000400       __badioinfo                000000014004b400     libucrt:ioinit.obj
 0003:00000448       __globallocalestatus       000000014004b448     libucrt:glstatus.obj
 0003:00000450       _lookuptrailbytes          000000014004b450     libucrt:read.obj
 0003:000006f0       __acrt_initial_multibyte_data 000000014004b6f0     libucrt:mbctype.obj
 0003:00000c40       ??_R0?AVbad_array_new_length@std@@@8 000000014004bc40     main.obj
 0003:00000c70       ??_R0?AVbad_alloc@std@@@8  000000014004bc70     main.obj
 0003:00000c98       ??_R0?AVexception@std@@@8  000000014004bc98     main.obj
 0003:00000cc0       ??_R0?AVruntime_error@std@@@8 000000014004bcc0     main.obj
 0003:00000ce8       ??_R0?AVsystem_error@std@@@8 000000014004bce8     main.obj
 0003:00000d10       ??_R0?AV_System_error@std@@@8 000000014004bd10     main.obj
 0003:00000d38       ??_R0?AVbad_cast@std@@@8   000000014004bd38     main.obj
 0003:00000d60       ??_R0?AVfailure@ios_base@std@@@8 000000014004bd60     main.obj
 0003:00000d90       ??_R0?AVlogic_error@std@@@8 000000014004bd90     libcpmt:xthrow.obj
 0003:00000db8       ??_R0?AVlength_error@std@@@8 000000014004bdb8     libcpmt:xthrow.obj
 0003:00000de0       ??_R0?AVout_of_range@std@@@8 000000014004bde0     libcpmt:xthrow.obj
 0003:00000e08       ??_R0?AVbad_exception@std@@@8 000000014004be08     libvcruntime:frame.obj
 0003:00000e30       ??_R0?AVerror_category@std@@@8 000000014004be30     main.obj
 0003:00000e60       ??_R0?AV_Iostream_error_category2@std@@@8 000000014004be60     main.obj
 0003:00000e98       ??_R0?AV_Facet_base@std@@@8 000000014004be98     main.obj
 0003:00000ec0       ??_R0?AVfacet@locale@std@@@8 000000014004bec0     main.obj
 0003:00000ee8       ??_R0?AU_Crt_new_delete@std@@@8 000000014004bee8     main.obj
 0003:00000f18       ??_R0?AUctype_base@std@@@8 000000014004bf18     main.obj
 0003:00000f40       ??_R0?AV?$ctype@D@std@@@8  000000014004bf40     main.obj
 0003:00000f70       ??_R0?AV?$num_put@DV?$ostreambuf_iterator@DU?$char_traits@D@std@@@std@@@std@@@8 000000014004bf70     main.obj
 0003:00000fd0       ??_R0?AV?$num_get@DV?$istreambuf_iterator@DU?$char_traits@D@std@@@std@@@std@@@8 000000014004bfd0     main.obj
 0003:00001030       ??_R0?AV?$numpunct@D@std@@@8 000000014004c030     main.obj
 0003:00001058       ??_R0?AV_Locimp@locale@std@@@8 000000014004c058     libcpmt:locale0.obj
 0003:00001088       ??_R0?AVios_base@std@@@8   000000014004c088     libcpmt:cin.obj
 0003:000010b0       ??_R0?AV?$_Iosb@H@std@@@8  000000014004c0b0     libcpmt:cin.obj
 0003:000010d8       ??_R0?AV?$basic_ios@DU?$char_traits@D@std@@@std@@@8 000000014004c0d8     libcpmt:cin.obj
 0003:00001120       ??_R0?AV?$basic_streambuf@DU?$char_traits@D@std@@@std@@@8 000000014004c120     libcpmt:cin.obj
 0003:00001170       ??_R0?AV?$basic_istream@DU?$char_traits@D@std@@@std@@@8 000000014004c170     libcpmt:cin.obj
 0003:000011c0       ??_R0?AV?$basic_filebuf@DU?$char_traits@D@std@@@std@@@8 000000014004c1c0     libcpmt:cin.obj
 0003:00001208       ??_R0?AVcodecvt_base@std@@@8 000000014004c208     libcpmt:cin.obj
 0003:00001230       ??_R0?AV?$codecvt@DDU_Mbstatet@@@std@@@8 000000014004c230     libcpmt:cin.obj
 0003:00001270       ??_R0?AV?$basic_ostream@DU?$char_traits@D@std@@@std@@@8 000000014004c270     libcpmt:cout.obj
 0003:000012b8       ??_R0?AVtype_info@@@8      000000014004c2b8     LIBCMT:std_type_info_static.obj
 0003:000012e0       ?_OptionsStorage@?1??__local_stdio_printf_options@@9@4_KA 000000014004c2e0     main.obj
 0003:000012e8       ?id@?$num_put@DV?$ostreambuf_iterator@DU?$char_traits@D@std@@@std@@@std@@2V0locale@2@A 000000014004c2e8     main.obj
 0003:000012f0       ?id@?$numpunct@D@std@@2V0locale@2@A 000000014004c2f0     main.obj
 0003:000012f8       ?_Psave@?$_Facetptr@V?$ctype@D@std@@@std@@2PEBVfacet@locale@2@EB 000000014004c2f8     main.obj
 0003:00001300       ?id@?$num_get@DV?$istreambuf_iterator@DU?$char_traits@D@std@@@std@@@std@@2V0locale@2@A 000000014004c300     main.obj
 0003:00001308       ?_Psave@?$_Facetptr@V?$num_put@DV?$ostreambuf_iterator@DU?$char_traits@D@std@@@std@@@std@@@std@@2PEBVfacet@locale@2@EB 000000014004c308     main.obj
 0003:00001310       ?_Psave@?$_Facetptr@V?$numpunct@D@std@@@std@@2PEBVfacet@locale@2@EB 000000014004c310     main.obj
 0003:00001318       ?_Psave@?$_Facetptr@V?$num_get@DV?$istreambuf_iterator@DU?$char_traits@D@std@@@std@@@std@@@std@@2PEBVfacet@locale@2@EB 000000014004c318     main.obj
 0003:00001470       ?_Id_cnt@id@locale@std@@0HA 000000014004c470     libcpmt:locale0.obj
 0003:00001478       ?_Clocptr@_Locimp@locale@std@@0PEAV123@EA 000000014004c478     libcpmt:locale0.obj
 0003:00001480       ?id@?$ctype@_W@std@@2V0locale@2@A 000000014004c480     libcpmt:locale0.obj
 0003:00001488       ?id@?$ctype@D@std@@2V0locale@2@A 000000014004c488     libcpmt:locale0.obj
 0003:00001490       ?id@?$codecvt@GDU_Mbstatet@@@std@@2V0locale@2@A 000000014004c490     libcpmt:locale0.obj
 0003:00001498       ?id@?$ctype@G@std@@2V0locale@2@A 000000014004c498     libcpmt:locale0.obj
 0003:000014b0       ?id@?$codecvt@_WDU_Mbstatet@@@std@@2V0locale@2@A 000000014004c4b0     libcpmt:locale0.obj
 0003:00001590       ?cin@std@@3V?$basic_istream@DU?$char_traits@D@std@@@1@A 000000014004c590     libcpmt:cin.obj
 0003:00001608       ?id@?$codecvt@DDU_Mbstatet@@@std@@2V0locale@2@A 000000014004c608     libcpmt:cin.obj
 0003:00001610       ?_Stinit@?1??_Init@?$basic_filebuf@DU?$char_traits@D@std@@@std@@IEAAXPEAU_iobuf@@W4_Initfl@23@@Z@4U_Mbstatet@@A 000000014004c610     libcpmt:cin.obj
 0003:00001618       ?_Psave@?$_Facetptr@V?$codecvt@DDU_Mbstatet@@@std@@@std@@2PEBVfacet@locale@2@EB 000000014004c618     libcpmt:cin.obj
 0003:00001630       ?cout@std@@3V?$basic_ostream@DU?$char_traits@D@std@@@1@A 000000014004c630     libcpmt:cout.obj
 0003:00001740       ?_Ptr_cin@std@@3PEAV?$basic_istream@DU?$char_traits@D@std@@@1@EA 000000014004c740     libcpmt:iosptrs.obj
 0003:00001748       ?_Ptr_cout@std@@3PEAV?$basic_ostream@DU?$char_traits@D@std@@@1@EA 000000014004c748     libcpmt:iosptrs.obj
 0003:00001750       ?_Ptr_cerr@std@@3PEAV?$basic_ostream@DU?$char_traits@D@std@@@1@EA 000000014004c750     libcpmt:iosptrs.obj
 0003:00001758       ?_Ptr_clog@std@@3PEAV?$basic_ostream@DU?$char_traits@D@std@@@1@EA 000000014004c758     libcpmt:iosptrs.obj
 0003:00001760       ?_Ptr_wcin@std@@3PEAV?$basic_istream@_WU?$char_traits@_W@std@@@1@EA 000000014004c760     libcpmt:iosptrs.obj
 0003:00001768       ?_Ptr_wcout@std@@3PEAV?$basic_ostream@_WU?$char_traits@_W@std@@@1@EA 000000014004c768     libcpmt:iosptrs.obj
 0003:00001770       ?_Ptr_wcerr@std@@3PEAV?$basic_ostream@_WU?$char_traits@_W@std@@@1@EA 000000014004c770     libcpmt:iosptrs.obj
 0003:00001778       ?_Ptr_wclog@std@@3PEAV?$basic_ostream@_WU?$char_traits@_W@std@@@1@EA 000000014004c778     libcpmt:iosptrs.obj
 0003:000017e0       ?_Index@ios_base@std@@0HA  000000014004c7e0     libcpmt:ios.obj
 0003:00001850       ?id@?$time_put@_WV?$ostreambuf_iterator@_WU?$char_traits@_W@std@@@std@@@std@@2V0locale@2@A 000000014004c850     libcpmt:wlocale.obj
 0003:00001858       ?id@?$num_get@_WV?$istreambuf_iterator@_WU?$char_traits@_W@std@@@std@@@std@@2V0locale@2@A 000000014004c858     libcpmt:wlocale.obj
 0003:00001860       ?id@?$num_put@_WV?$ostreambuf_iterator@_WU?$char_traits@_W@std@@@std@@@std@@2V0locale@2@A 000000014004c860     libcpmt:wlocale.obj
 0003:00001868       ?id@?$numpunct@_W@std@@2V0locale@2@A 000000014004c868     libcpmt:wlocale.obj
 0003:00001870       ?id@?$collate@_W@std@@2V0locale@2@A 000000014004c870     libcpmt:wlocale.obj
 0003:00001878       ?id@?$messages@_W@std@@2V0locale@2@A 000000014004c878     libcpmt:wlocale.obj
 0003:00001880       ?id@?$money_get@_WV?$istreambuf_iterator@_WU?$char_traits@_W@std@@@std@@@std@@2V0locale@2@A 000000014004c880     libcpmt:wlocale.obj
 0003:00001888       ?id@?$money_put@_WV?$ostreambuf_iterator@_WU?$char_traits@_W@std@@@std@@@std@@2V0locale@2@A 000000014004c888     libcpmt:wlocale.obj
 0003:00001890       ?id@?$moneypunct@_W$0A@@std@@2V0locale@2@A 000000014004c890     libcpmt:wlocale.obj
 0003:00001898       ?id@?$moneypunct@_W$00@std@@2V0locale@2@A 000000014004c898     libcpmt:wlocale.obj
 0003:000018a0       ?id@?$time_get@_WV?$istreambuf_iterator@_WU?$char_traits@_W@std@@@std@@@std@@2V0locale@2@A 000000014004c8a0     libcpmt:wlocale.obj
 0003:000018a8       ?id@?$num_get@GV?$istreambuf_iterator@GU?$char_traits@G@std@@@std@@@std@@2V0locale@2@A 000000014004c8a8     libcpmt:wlocale.obj
 0003:000018b0       ?id@?$num_put@GV?$ostreambuf_iterator@GU?$char_traits@G@std@@@std@@@std@@2V0locale@2@A 000000014004c8b0     libcpmt:wlocale.obj
 0003:000018b8       ?id@?$numpunct@G@std@@2V0locale@2@A 000000014004c8b8     libcpmt:wlocale.obj
 0003:000018c0       ?id@?$collate@G@std@@2V0locale@2@A 000000014004c8c0     libcpmt:wlocale.obj
 0003:000018c8       ?id@?$messages@G@std@@2V0locale@2@A 000000014004c8c8     libcpmt:wlocale.obj
 0003:000018d0       ?id@?$money_get@GV?$istreambuf_iterator@GU?$char_traits@G@std@@@std@@@std@@2V0locale@2@A 000000014004c8d0     libcpmt:wlocale.obj
 0003:000018d8       ?id@?$money_put@GV?$ostreambuf_iterator@GU?$char_traits@G@std@@@std@@@std@@2V0locale@2@A 000000014004c8d8     libcpmt:wlocale.obj
 0003:000018e0       ?id@?$moneypunct@G$0A@@std@@2V0locale@2@A 000000014004c8e0     libcpmt:wlocale.obj
 0003:000018e8       ?id@?$moneypunct@G$00@std@@2V0locale@2@A 000000014004c8e8     libcpmt:wlocale.obj
 0003:000018f0       ?id@?$time_get@GV?$istreambuf_iterator@GU?$char_traits@G@std@@@std@@@std@@2V0locale@2@A 000000014004c8f0     libcpmt:wlocale.obj
 0003:000018f8       ?id@?$time_put@GV?$ostreambuf_iterator@GU?$char_traits@G@std@@@std@@@std@@2V0locale@2@A 000000014004c8f8     libcpmt:wlocale.obj
 0003:00001900       ?id@?$collate@D@std@@2V0locale@2@A 000000014004c900     libcpmt:xlocale.obj
 0003:00001908       ?id@?$messages@D@std@@2V0locale@2@A 000000014004c908     libcpmt:xlocale.obj
 0003:00001910       ?id@?$money_get@DV?$istreambuf_iterator@DU?$char_traits@D@std@@@std@@@std@@2V0locale@2@A 000000014004c910     libcpmt:xlocale.obj
 0003:00001918       ?id@?$money_put@DV?$ostreambuf_iterator@DU?$char_traits@D@std@@@std@@@std@@2V0locale@2@A 000000014004c918     libcpmt:xlocale.obj
 0003:00001920       ?id@?$moneypunct@D$0A@@std@@2V0locale@2@A 000000014004c920     libcpmt:xlocale.obj
 0003:00001928       ?id@?$moneypunct@D$00@std@@2V0locale@2@A 000000014004c928     libcpmt:xlocale.obj
 0003:00001930       ?id@?$time_get@DV?$istreambuf_iterator@DU?$char_traits@D@std@@@std@@@std@@2V0locale@2@A 000000014004c930     libcpmt:xlocale.obj
 0003:00001938       ?id@?$time_put@DV?$ostreambuf_iterator@DU?$char_traits@D@std@@@std@@@std@@2V0locale@2@A 000000014004c938     libcpmt:xlocale.obj
 0003:00001940       __scrt_current_native_startup_state 000000014004c940     LIBCMT:utility.obj
 0003:00001948       __scrt_native_startup_lock 000000014004c948     LIBCMT:utility.obj
 0003:00001988       __favor                    000000014004c988     LIBCMT:cpu_disp.obj
 0003:00001f00       ?__type_info_root_node@@3U__type_info_node@@A 000000014004cf00     LIBCMT:tncleanup.obj
 0003:00001f10       ?_OptionsStorage@?1??__local_stdio_scanf_options@@9@4_KA 000000014004cf10     LIBCMT:default_local_stdio_options.obj
 0003:00001f18       __scrt_debugger_hook_flag  000000014004cf18     LIBCMT:utility_desktop.obj
 0003:00001f20       ?__WinRTOutOfMemoryExceptionCallback@@3P6APEAXXZEA 000000014004cf20     libvcruntime:ehhelpers.obj
 0003:00001f28       __pPurecall                000000014004cf28     libvcruntime:purevirt_data.obj
 0003:00001fe0       ?pArgList@UnDecorator@@0PEAVReplicator@@EA 000000014004cfe0     libvcruntime:undname.obj
 0003:00001fe8       ?pZNameList@UnDecorator@@0PEAVReplicator@@EA 000000014004cfe8     libvcruntime:undname.obj
 0003:00001ff0       ?pTemplateArgList@UnDecorator@@0PEAVReplicator@@EA 000000014004cff0     libvcruntime:undname.obj
 0003:00001ff8       ?gName@UnDecorator@@0PEBDEB 000000014004cff8     libvcruntime:undname.obj
 0003:00002000       ?name@UnDecorator@@0PEBDEB 000000014004d000     libvcruntime:undname.obj
 0003:00002008       ?disableFlags@UnDecorator@@0KA 000000014004d008     libvcruntime:undname.obj
 0003:0000200c       ?fExplicitTemplateParams@UnDecorator@@0_NA 000000014004d00c     libvcruntime:undname.obj
 0003:0000200d       ?fGetTemplateArgumentList@UnDecorator@@0_NA 000000014004d00d     libvcruntime:undname.obj
 0003:00002010       ?m_pGetParameter@UnDecorator@@0P6APEADJ@ZEA 000000014004d010     libvcruntime:undname.obj
 0003:00002018       ?m_CHPENameOffset@UnDecorator@@0KA 000000014004d018     libvcruntime:undname.obj
 0003:0000201c       ?m_recursionLevel@UnDecorator@@0KA 000000014004d01c     libvcruntime:undname.obj
 0003:00002090       __acrt_lconv_static_null   000000014004d090     libucrt:localeconv.obj
 0003:00002094       __acrt_lconv_static_W_null 000000014004d094     libucrt:localeconv.obj
 0003:000022d8       _nstream                   000000014004d2d8     libucrt:_file.obj
 0003:000022e0       __piob                     000000014004d2e0     libucrt:_file.obj
 0003:000022e8       _cflush                    000000014004d2e8     libucrt:_file.obj
 0003:00002418       _environ_table             000000014004d418     libucrt:environment_initialization.obj
 0003:00002420       _wenviron_table            000000014004d420     libucrt:environment_initialization.obj
 0003:00002428       __dcrt_initial_wide_environment 000000014004d428     libucrt:environment_initialization.obj
 0003:00002430       __dcrt_initial_narrow_environment 000000014004d430     libucrt:environment_initialization.obj
 0003:00002448       ?c_exit_complete@?1???R<lambda_6e4b09c48022b2350581041d5f6b0c4c>@@QEBA@XZ@4_NA 000000014004d448     libucrt:exit.obj
 0003:00002450       _pgmptr                    000000014004d450     libucrt:argv_data.obj
 0003:00002458       __argc                     000000014004d458     libucrt:argv_data.obj
 0003:00002460       __argv                     000000014004d460     libucrt:argv_data.obj
 0003:00002468       __wargv                    000000014004d468     libucrt:argv_data.obj
 0003:00002470       _acmdln                    000000014004d470     libucrt:argv_data.obj
 0003:00002478       _wcmdln                    000000014004d478     libucrt:argv_data.obj
 0003:00002480       __acrt_locale_changed_data 000000014004d480     libucrt:wsetlocale.obj
 0003:00002488       _commode                   000000014004d488     libucrt:ncommode.obj
 0003:00002490       __acrt_atexit_table        000000014004d490     libucrt:onexit.obj
 0003:000024a8       __acrt_at_quick_exit_table 000000014004d4a8     libucrt:onexit.obj
 0003:000024c0       __fma3_is_available        000000014004d4c0     libucrt:fma3_available.obj
 0003:000024c4       __use_fma3_lib             000000014004d4c4     libucrt:fma3_available.obj
 0003:000024c8       __acrt_current_locale_data 000000014004d4c8     libucrt:nlsdata.obj
 0003:000024e0       __acrt_stdout_buffer       000000014004d4e0     libucrt:_sftbuf.obj
 0003:000024e8       __acrt_stderr_buffer       000000014004d4e8     libucrt:_sftbuf.obj
 0003:000024f0       __pioinfo                  000000014004d4f0     libucrt:ioinit.obj
 0003:000028f0       _nhandle                   000000014004d8f0     libucrt:ioinit.obj
 0003:00002ad8       ?_timezone@@3V?$dual_state_global@J@__crt_state_management@@A 000000014004dad8     libucrt:timeset.obj
 0003:00002adc       ?_daylight@@3V?$dual_state_global@H@__crt_state_management@@A 000000014004dadc     libucrt:timeset.obj
 0003:00002ae0       ?_dstbias@@3V?$dual_state_global@J@__crt_state_management@@A 000000014004dae0     libucrt:timeset.obj
 0003:00002bc0       _mbctype                   000000014004dbc0     libucrt:mbctype.obj
 0003:00002bc8       _mbcasemap                 000000014004dbc8     libucrt:mbctype.obj
 0003:00002bd0       __acrt_current_multibyte_data 000000014004dbd0     libucrt:mbctype.obj
 0003:00002be0       _fmode                     000000014004dbe0     libucrt:txtmode.obj
 0003:00002be8       __acrt_heap                000000014004dbe8     libucrt:heap_handle.obj
 0003:00002c00       __scrt_ucrt_dll_is_in_use  000000014004dc00     <common>
 0003:00002c08       __dyn_tls_dtor_callback    000000014004dc08     <common>
 0003:00002c10       __dyn_tls_init_callback    000000014004dc10     <common>

 entry point at        0001:0000fabc

 Static symbols

 0001:00000000       ??__E?id@?$num_get@DV?$istreambuf_iterator@DU?$char_traits@D@std@@@std@@@std@@2V0locale@2@A@@YAXXZ 0000000140001000 f   main.obj
 0001:00000020       ??__E?id@?$num_put@DV?$ostreambuf_iterator@DU?$char_traits@D@std@@@std@@@std@@2V0locale@2@A@@YAXXZ 0000000140001020 f   main.obj
 0001:00000040       ??__E?id@?$numpunct@D@std@@2V0locale@2@A@@YAXXZ 0000000140001040 f   main.obj
 0001:00000058       ??__Einitlocks@std@@YAXXZ  0000000140001058 f   libcpmt:xlock.obj
 0001:00000078       ??__Eclassic_locale@std@@YAXXZ 0000000140001078 f   libcpmt:locale0.obj
 0001:00000084       ??__F_Fac_tidy_reg@std@@YAXXZ 0000000140001084 f   libcpmt:locale0.obj
 0001:00000090       ??__Ecin@std@@YAXXZ        0000000140001090 f   libcpmt:cin.obj
 0001:000000c0       ??__Efin@std@@YAXXZ        00000001400010c0 f   libcpmt:cin.obj
 0001:00000110       ??__Einit_cin@std@@YAXXZ   0000000140001110 f   libcpmt:cin.obj
 0001:00000138       ??__Einitlocks@@YAXXZ      0000000140001138 f   libcpmt:cin.obj
 0001:00000158       ??__Ecout@std@@YAXXZ       0000000140001158 f   libcpmt:cout.obj
 0001:00000188       ??__Efout@std@@YAXXZ       0000000140001188 f   libcpmt:cout.obj
 0001:000001d8       ??__Einit_cout@std@@YAXXZ  00000001400011d8 f   libcpmt:cout.obj
 0001:00000220       ??__Einitlocks@@YAXXZ      0000000140001220 f   libcpmt:cout.obj
 0001:00000240       ??__Einitlocks@std@@YAXXZ  0000000140001240 f   libcpmt:iosptrs.obj
 0001:00000260       ??__Finit_atexit@@YAXXZ    0000000140001260 f   libcpmt:iosptrs.obj
 0001:0000d060       tidy_global                000000014000e060 f   libcpmt:locale0.obj
 0001:0000e424       initialize_environment     000000014000f424 f i libucrt:initialization.obj
 0001:0000e424       initialize_global_state_isolation 000000014000f424 f i libucrt:initialization.obj
 0001:0000e424       report_memory_leaks        000000014000f424 f i libucrt:initialization.obj
 0001:0000e424       uninitialize_c             000000014000f424 f i libucrt:initialization.obj
 0001:0000e424       uninitialize_global_state_isolation 000000014000f424 f i libucrt:initialization.obj
 0001:0000e9b8       no_op_initialize           000000014000f9b8 f i libucrt:wsetlocale.obj
 0001:0000f800       $$000000                   0000000140010800     LIBCMT:amdsecgs.obj
 0001:0000f85c       ?pre_c_initialization@@YAHXZ 000000014001085c f   LIBCMT:exe_main.obj
 0001:0000f914       ?post_pgo_initialization@@YAHXZ 0000000140010914 f   LIBCMT:exe_main.obj
 0001:0000f924       ?pre_cpp_initialization@@YAXXZ 0000000140010924 f   LIBCMT:exe_main.obj
 0001:0000f940       ?__scrt_common_main_seh@@YAHXZ 0000000140010940 f   LIBCMT:exe_main.obj
 0001:0000fed0       $$000000                   0000000140010ed0     LIBCMT:chkstk.obj
 0001:00010110       capture_current_context    0000000140011110 f   LIBCMT:gs_report.obj
 0001:00010180       capture_previous_context   0000000140011180 f   LIBCMT:gs_report.obj
 0001:000105d0       $$000000                   00000001400115d0     libvcruntime:memcpy.obj
 0001:00010c80       $$000000                   0000000140011c80     libvcruntime:memset.obj
 0001:00011e60       $$000000                   0000000140012e60     libvcruntime:memchr.obj
 0001:00012050       $$000000                   0000000140013050     libvcruntime:memcmp.obj
 0001:00012748       ??$BuildCatchObjectHelperInternal@V__FrameHandler3@@@@YAHPEAUEHExceptionRecord@@PEAXPEBU_s_HandlerType@@PEBU_s_CatchableType@@@Z 0000000140013748 f   libvcruntime:frame.obj
 0001:00012948       ??$BuildCatchObjectHelperInternal@V__FrameHandler4@@@@YAHPEAUEHExceptionRecord@@PEAXPEAUHandlerType4@FH4@@PEBU_s_CatchableType@@@Z 0000000140013948 f   libvcruntime:frame.obj
 0001:00012b4c       ??$BuildCatchObjectInternal@V__FrameHandler3@@@@YAXPEAUEHExceptionRecord@@PEAXPEBU_s_HandlerType@@PEBU_s_CatchableType@@@Z 0000000140013b4c f   libvcruntime:frame.obj
 0001:00012c0c       ??$BuildCatchObjectInternal@V__FrameHandler4@@@@YAXPEAUEHExceptionRecord@@PEAXPEAUHandlerType4@FH4@@PEBU_s_CatchableType@@@Z 0000000140013c0c f   libvcruntime:frame.obj
 0001:00012cd0       ??$CatchIt@V__FrameHandler3@@@@YAXPEAUEHExceptionRecord@@PEA_KPEAU_CONTEXT@@PEAU_xDISPATCHER_CONTEXT@@PEBU_s_FuncInfo@@PEBU_s_HandlerType@@PEBU_s_CatchableType@@PEBU_s_TryBlockMapEntry@@H1EE@Z 0000000140013cd0 f   libvcruntime:frame.obj
 0001:00012da4       ??$CatchIt@V__FrameHandler4@@@@YAXPEAUEHExceptionRecord@@PEA_KPEAU_CONTEXT@@PEAU_xDISPATCHER_CONTEXT@@PEAUFuncInfo4@FH4@@PEAUHandlerType4@4@PEBU_s_CatchableType@@PEAUTryBlockMapEntry4@4@H1EE@Z 0000000140013da4 f   libvcruntime:frame.obj
 0001:00012e78       ??$FindHandler@V__FrameHandler3@@@@YAXPEAUEHExceptionRecord@@PEA_KPEAU_CONTEXT@@PEAU_xDISPATCHER_CONTEXT@@PEBU_s_FuncInfo@@EH1@Z 0000000140013e78 f   libvcruntime:frame.obj
 0001:00013350       ??$FindHandler@V__FrameHandler4@@@@YAXPEAUEHExceptionRecord@@PEA_KPEAU_CONTEXT@@PEAU_xDISPATCHER_CONTEXT@@PEAUFuncInfo4@FH4@@EH1@Z 0000000140014350 f   libvcruntime:frame.obj
 0001:0001384c       ??$FindHandlerForForeignException@V__FrameHandler3@@@@YAXPEAUEHExceptionRecord@@PEA_KPEAU_CONTEXT@@PEAU_xDISPATCHER_CONTEXT@@PEBU_s_FuncInfo@@HH1@Z 000000014001484c f   libvcruntime:frame.obj
 0001:00013a68       ??$FindHandlerForForeignException@V__FrameHandler4@@@@YAXPEAUEHExceptionRecord@@PEA_KPEAU_CONTEXT@@PEAU_xDISPATCHER_CONTEXT@@PEAUFuncInfo4@FH4@@HH1@Z 0000000140014a68 f   libvcruntime:frame.obj
 0001:00014c28       ?ExFilterRethrow@@YAHPEAU_EXCEPTION_POINTERS@@PEAUEHExceptionRecord@@PEAH@Z 0000000140015c28 f   libvcruntime:frame.obj
 0001:00014cb0       ?ExFilterRethrowFH4@@YAHPEAU_EXCEPTION_POINTERS@@PEAUEHExceptionRecord@@HPEAH@Z 0000000140015cb0 f   libvcruntime:frame.obj
 0001:00015200       ?IsInExceptionSpec@@YAEPEAUEHExceptionRecord@@PEBU_s_ESTypeList@@@Z 0000000140016200 f   libvcruntime:frame.obj
 0001:000152f0       ?Is_bad_exception_allowed@@YAEPEBU_s_ESTypeList@@@Z 00000001400162f0 f   libvcruntime:frame.obj
 0001:000155b0       $$000000                   00000001400165b0     libvcruntime:notify.obj
 0001:000156ac       ?try_get_function@@YAPEAXW4function_id@?A0x14174aea@@QEBDQEBW4module_id@2@2@Z 00000001400166ac f   libvcruntime:winapi_downlevel.obj
 0001:00015990       $$000000                   0000000140016990     libvcruntime:handlers.obj
 0001:00015d60       $$000000                   0000000140016d60     libucrt:pow.obj
 0001:00017660       $$000000                   0000000140018660     libucrt:powf.obj
 0001:0001861c       ??$common_strtod_l@MD@@YAMQEBDQEAPEADQEAU__crt_locale_pointers@@@Z 000000014001961c f   libucrt:strtod.obj
 0001:000186c4       ??$common_strtod_l@ND@@YANQEBDQEAPEADQEAU__crt_locale_pointers@@@Z 00000001400196c4 f   libucrt:strtod.obj
 0001:0001be44       memcpy_s                   000000014001ce44 f   libucrt:cfout.obj
 0001:0001be44       memcpy_s                   000000014001ce44 f   libucrt:strtod.obj
 0001:0001bedc       ??$common_vsprintf@Vformat_validation_base@__crt_stdio_output@@D@@YAH_KQEAD0QEBDQEAU__crt_locale_pointers@@1@Z 000000014001cedc f   libucrt:output.obj
 0001:0001cbe8       $LN17                      000000014001dbe8     libucrt:output.obj
 0001:0001d394       fallbackMethod             000000014001e394 f   libucrt:strcspn.obj
 0001:0001d754       $LN78                      000000014001e754     libucrt:strcspn.obj
 0001:0001d790       $LN77                      000000014001e790     libucrt:strcspn.obj
 0001:0001d7d0       $LN76                      000000014001e7d0     libucrt:strcspn.obj
 0001:0001d810       $$000000                   000000014001e810     libucrt:strlen.obj
 0001:0001d9e8       ??$?RV<lambda_e9ce07acdb0b138e546925ae9f1a2c9c>@@AEAV<lambda_2116bde18c9e5f34230805ea4a4660ed>@@V<lambda_5d037afbfc54bf1ca80d3d1ee4062886>@@@?$__crt_seh_guarded_call@PEAD@@QEAAPEAD$$QEAV<lambda_e9ce07acdb0b138e546925ae9f1a2c9c>@@AEAV<lambda_2116bde18c9e5f34230805ea4a4660ed>@@$$QEAV<lambda_5d037afbfc54bf1ca80d3d1ee4062886>@@@Z 000000014001e9e8 f   libucrt:setlocale.obj
 0001:0001da28       ??R<lambda_2116bde18c9e5f34230805ea4a4660ed>@@QEBAPEADXZ 000000014001ea28 f   libucrt:setlocale.obj
 0001:0001eb04       ??$?RV<lambda_842d9ff0dc9ef11c61343bbaebe7f885>@@AEAV<lambda_c5860995281e5c4ce005b3de8f5874ee>@@V<lambda_d90129c13df834fdcbf8d2b88dafcf2d>@@@?$__crt_seh_guarded_call@X@@QEAAX$$QEAV<lambda_842d9ff0dc9ef11c61343bbaebe7f885>@@AEAV<lambda_c5860995281e5c4ce005b3de8f5874ee>@@$$QEAV<lambda_d90129c13df834fdcbf8d2b88dafcf2d>@@@Z 000000014001fb04 f   libucrt:fflush.obj
 0001:0001eba0       ??$?RV<lambda_886d6c58226a84441f68b9f2b8217b83>@@AEAV<lambda_ab61a845afdef5b7c387490eaf3616ee>@@V<lambda_f7f22ab5edc0698d5f6905b0d3f44752>@@@?$__crt_seh_guarded_call@X@@QEAAX$$QEAV<lambda_886d6c58226a84441f68b9f2b8217b83>@@AEAV<lambda_ab61a845afdef5b7c387490eaf3616ee>@@$$QEAV<lambda_f7f22ab5edc0698d5f6905b0d3f44752>@@@Z 000000014001fba0 f   libucrt:fflush.obj
 0001:0001ec80       ??$?RV<lambda_c376a267cfb53b6959b3b692ec76b120>@@AEAV<lambda_9a32fed5bf61b6b509b2d3f6003082a1>@@V<lambda_572fbb9fa0ab338edf41edfd4b5fcc8d>@@@?$__crt_seh_guarded_call@H@@QEAAH$$QEAV<lambda_c376a267cfb53b6959b3b692ec76b120>@@AEAV<lambda_9a32fed5bf61b6b509b2d3f6003082a1>@@$$QEAV<lambda_572fbb9fa0ab338edf41edfd4b5fcc8d>@@@Z 000000014001fc80 f   libucrt:fflush.obj
 0001:0001ecc0       ?common_flush_all@@YAH_N@Z 000000014001fcc0 f   libucrt:fflush.obj
 0001:0001f474       ?common_fseek@@YAHV__crt_stdio_stream@@_JH@Z 0000000140020474 f   libucrt:fseek.obj
 0001:0001f4e0       ?common_fseek_binary_mode_read_only_fast_track_nolock@@YA_NV__crt_stdio_stream@@_JH@Z 00000001400204e0 f   libucrt:fseek.obj
 0001:0001f5c4       ?common_fseek_nolock@@YAHV__crt_stdio_stream@@_JH@Z 00000001400205c4 f   libucrt:fseek.obj
 0001:0001f684       ??$?RV<lambda_2831f20263db5b546e098b45503eb778>@@AEAV<lambda_5856287d7ecd2be6c9197bb4007c3f6e>@@V<lambda_0838d7e100fbcbd261b69cfea6abb102>@@@?$__crt_seh_guarded_call@_K@@QEAA_K$$QEAV<lambda_2831f20263db5b546e098b45503eb778>@@AEAV<lambda_5856287d7ecd2be6c9197bb4007c3f6e>@@$$QEAV<lambda_0838d7e100fbcbd261b69cfea6abb102>@@@Z 0000000140020684 f   libucrt:fwrite.obj
 0001:0001f6c4       ??R<lambda_5856287d7ecd2be6c9197bb4007c3f6e>@@QEBA_KXZ 00000001400206c4 f   libucrt:fwrite.obj
 0001:0001f958       ??$?RV<lambda_c8e61daa512c69656564d9dbd35486e8>@@AEAV<lambda_b4f66040be5f354a654fb75160c27bfc>@@V<lambda_2ca749746f96040ea1ff4296b14379df>@@@?$__crt_seh_guarded_call@H@@QEAAH$$QEAV<lambda_c8e61daa512c69656564d9dbd35486e8>@@AEAV<lambda_b4f66040be5f354a654fb75160c27bfc>@@$$QEAV<lambda_2ca749746f96040ea1ff4296b14379df>@@@Z 0000000140020958 f   libucrt:setvbuf.obj
 0001:0001f998       ??R<lambda_b4f66040be5f354a654fb75160c27bfc>@@QEBAHXZ 0000000140020998 f   libucrt:setvbuf.obj
 0001:0002053c       ??$parse_command_line@D@@YAXPEADPEAPEAD0PEA_K2@Z 000000014002153c f   libucrt:argv_parsing.obj
 0001:000208e4       ??$common_initialize_environment_nolock@D@@YAHXZ 00000001400218e4 f   libucrt:environment_initialization.obj
 0001:00020950       ??$create_environment@D@@YAQEAPEADQEAD@Z 0000000140021950 f   libucrt:environment_initialization.obj
 0001:00020a58       ??$free_environment@D@@YAXQEAPEAD@Z 0000000140021a58 f   libucrt:environment_initialization.obj
 0001:00020a58       ??$free_environment@_W@@YAXQEAPEA_W@Z 0000000140021a58 f   libucrt:environment_initialization.obj
 0001:00020a9c       ??$initialize_environment_by_cloning_nolock@D@@YAHXZ 0000000140021a9c f   libucrt:environment_initialization.obj
 0001:00020b70       ??$uninitialize_environment_internal@D@@YAXAEAPEAPEAD@Z 0000000140021b70 f   libucrt:environment_initialization.obj
 0001:00020b8c       ??$uninitialize_environment_internal@_W@@YAXAEAPEAPEA_W@Z 0000000140021b8c f   libucrt:environment_initialization.obj
 0001:00020d18       ??$?RV<lambda_d80eeec6fff315bfe5c115232f3240e3>@@AEAV<lambda_6e4b09c48022b2350581041d5f6b0c4c>@@V<lambda_2358e3775559c9db80273638284d5e45>@@@?$__crt_seh_guarded_call@X@@QEAAX$$QEAV<lambda_d80eeec6fff315bfe5c115232f3240e3>@@AEAV<lambda_6e4b09c48022b2350581041d5f6b0c4c>@@$$QEAV<lambda_2358e3775559c9db80273638284d5e45>@@@Z 0000000140021d18 f   libucrt:exit.obj
 0001:00020d50       ??R<lambda_6e4b09c48022b2350581041d5f6b0c4c>@@QEBA@XZ 0000000140021d50 f   libucrt:exit.obj
 0001:00020e14       ?atexit_exception_filter@@YAHK@Z 0000000140021e14 f   libucrt:exit.obj
 0001:00020e20       ?common_exit@@YAXHW4_crt_exit_cleanup_mode@@W4_crt_exit_return_mode@@@Z 0000000140021e20 f   libucrt:exit.obj
 0001:00020edc       ?exit_or_terminate_process@@YAXI@Z 0000000140021edc f   libucrt:exit.obj
 0001:00020f28       ?try_cor_exit_process@@YAXI@Z 0000000140021f28 f   libucrt:exit.obj
 0001:00021078       ??$?RV<lambda_1d892b297fdedeee07ed8124eeb2f2fa>@@AEAV<lambda_ffc046909424fd52df0ac47e64813305>@@V<lambda_01a7098693036236037e7cdb9bca3d73>@@@?$__crt_seh_guarded_call@X@@QEAAX$$QEAV<lambda_1d892b297fdedeee07ed8124eeb2f2fa>@@AEAV<lambda_ffc046909424fd52df0ac47e64813305>@@$$QEAV<lambda_01a7098693036236037e7cdb9bca3d73>@@@Z 0000000140022078 f   libucrt:wsetlocale.obj
 0001:000211b4       ??$?RV<lambda_410d79af7f07d98d83a3f525b3859a53>@@AEAV<lambda_3e16ef9562a7dcce91392c22ab16ea36>@@V<lambda_38119f0e861e05405d8a144b9b982f0a>@@@?$__crt_seh_guarded_call@X@@QEAAX$$QEAV<lambda_410d79af7f07d98d83a3f525b3859a53>@@AEAV<lambda_3e16ef9562a7dcce91392c22ab16ea36>@@$$QEAV<lambda_38119f0e861e05405d8a144b9b982f0a>@@@Z 00000001400221b4 f   libucrt:wsetlocale.obj
 0001:00021224       ??$?RV<lambda_e9338f07fe435327d97d4ef86149e64d>@@AEAV<lambda_2a444430fde8c29194d880d93eed5e8f>@@AEAV<lambda_02db5278e8aef8b5e4976579d73f5304>@@@?$__crt_seh_guarded_call@X@@QEAAX$$QEAV<lambda_e9338f07fe435327d97d4ef86149e64d>@@AEAV<lambda_2a444430fde8c29194d880d93eed5e8f>@@AEAV<lambda_02db5278e8aef8b5e4976579d73f5304>@@@Z 0000000140022224 f   libucrt:wsetlocale.obj
 0001:00021250       ??R<lambda_2a444430fde8c29194d880d93eed5e8f>@@QEBA@XZ 0000000140022250 f   libucrt:wsetlocale.obj
 0001:00021690       _copytlocinfo_nolock       0000000140022690 f   libucrt:wsetlocale.obj
 0001:00021750       _expandlocale              0000000140022750 f   libucrt:wsetlocale.obj
 0001:00021cdc       _wsetlocale_get_all        0000000140022cdc f   libucrt:wsetlocale.obj
 0001:00021ec8       _wsetlocale_nolock         0000000140022ec8 f   libucrt:wsetlocale.obj
 0001:00022158       _wsetlocale_set_cat        0000000140023158 f   libucrt:wsetlocale.obj
 0001:000224ac       parse_bcp47                00000001400234ac f   libucrt:wsetlocale.obj
 0001:000226ac       parse_bcp47_code_page      00000001400236ac f   libucrt:wsetlocale.obj
 0001:000226f4       parse_bcp47_language       00000001400236f4 f   libucrt:wsetlocale.obj
 0001:00022780       parse_bcp47_region         0000000140023780 f   libucrt:wsetlocale.obj
 0001:00022888       parse_bcp47_script         0000000140023888 f   libucrt:wsetlocale.obj
 0001:00022918       string_is_alpha            0000000140023918 f   libucrt:wsetlocale.obj
 0001:000229c4       ??$?RV<lambda_638799b9deba96c50f710eeac98168cd>@@AEAV<lambda_22ebabd17bc4fa466a2aca6d8deb888d>@@V<lambda_a6f7d7db0129f75315ebf26d50c089f1>@@@?$__crt_seh_guarded_call@H@@QEAAH$$QEAV<lambda_638799b9deba96c50f710eeac98168cd>@@AEAV<lambda_22ebabd17bc4fa466a2aca6d8deb888d>@@$$QEAV<lambda_a6f7d7db0129f75315ebf26d50c089f1>@@@Z 00000001400239c4 f   libucrt:onexit.obj
 0001:00022a00       ??$?RV<lambda_7777bce6b2f8c936911f934f8298dc43>@@AEAV<lambda_f03950bc5685219e0bcd2087efbe011e>@@V<lambda_3883c3dff614d5e0c5f61bb1ac94921c>@@@?$__crt_seh_guarded_call@H@@QEAAH$$QEAV<lambda_7777bce6b2f8c936911f934f8298dc43>@@AEAV<lambda_f03950bc5685219e0bcd2087efbe011e>@@$$QEAV<lambda_3883c3dff614d5e0c5f61bb1ac94921c>@@@Z 0000000140023a00 f   libucrt:onexit.obj
 0001:00022a3c       ??R<lambda_22ebabd17bc4fa466a2aca6d8deb888d>@@QEBAHXZ 0000000140023a3c f   libucrt:onexit.obj
 0001:00022bec       ??R<lambda_f03950bc5685219e0bcd2087efbe011e>@@QEBAHXZ 0000000140023bec f   libucrt:onexit.obj
 0001:00022dc0       initialize_global_variables 0000000140023dc0 f   libucrt:initialization.obj
 0001:00022dd4       initialize_c               0000000140023dd4 f   libucrt:initialization.obj
 0001:00022df8       uninitialize_environment   0000000140023df8 f   libucrt:initialization.obj
 0001:00022e08       initialize_pointers        0000000140023e08 f   libucrt:initialization.obj
 0001:00022e48       uninitialize_vcruntime     0000000140023e48 f   libucrt:initialization.obj
 0001:00022e50       uninitialize_allocated_memory 0000000140023e50 f   libucrt:initialization.obj
 0001:00022e90       uninitialize_allocated_io_buffers 0000000140023e90 f   libucrt:initialization.obj
 0001:00023990       $$000000                   0000000140024990     libucrt:strncmp.obj
 0001:00023a4c       ??$?RV<lambda_0ae27a3a962d80f24befdcbee591983d>@@AEAV<lambda_8d0ee55de4b1038c4002e0adecdf1839>@@V<lambda_dc504788e8f1664fe9b84e20bfb512f2>@@@?$__crt_seh_guarded_call@X@@QEAAX$$QEAV<lambda_0ae27a3a962d80f24befdcbee591983d>@@AEAV<lambda_8d0ee55de4b1038c4002e0adecdf1839>@@$$QEAV<lambda_dc504788e8f1664fe9b84e20bfb512f2>@@@Z 0000000140024a4c f   libucrt:per_thread_data.obj
 0001:00023a8c       ??$?RV<lambda_2d41944a1d46af3157314b8a01080d33>@@AEAV<lambda_8f455de75cd7d7f24b4096f044d8b9e6>@@V<lambda_aa500f224e6afead328df44964fe2772>@@@?$__crt_seh_guarded_call@X@@QEAAX$$QEAV<lambda_2d41944a1d46af3157314b8a01080d33>@@AEAV<lambda_8f455de75cd7d7f24b4096f044d8b9e6>@@$$QEAV<lambda_aa500f224e6afead328df44964fe2772>@@@Z 0000000140024a8c f   libucrt:per_thread_data.obj
 0001:00023acc       ??$?RV<lambda_aa87e3671a710a21b5dc78c0bdf72e11>@@AEAV<lambda_92619d2358a28f41a33ba319515a20b9>@@V<lambda_6992ecaafeb10aed2b74cb1fae11a551>@@@?$__crt_seh_guarded_call@X@@QEAAX$$QEAV<lambda_aa87e3671a710a21b5dc78c0bdf72e11>@@AEAV<lambda_92619d2358a28f41a33ba319515a20b9>@@$$QEAV<lambda_6992ecaafeb10aed2b74cb1fae11a551>@@@Z 0000000140024acc f   libucrt:per_thread_data.obj
 0001:00023b14       ??$?RV<lambda_f2e299630e499de9f9a165e60fcd3db5>@@AEAV<lambda_2ae9d31cdba2644fcbeaf08da7c24588>@@V<lambda_40d01ff24d0e7b3814fdbdcee8eab3c7>@@@?$__crt_seh_guarded_call@X@@QEAAX$$QEAV<lambda_f2e299630e499de9f9a165e60fcd3db5>@@AEAV<lambda_2ae9d31cdba2644fcbeaf08da7c24588>@@$$QEAV<lambda_40d01ff24d0e7b3814fdbdcee8eab3c7>@@@Z 0000000140024b14 f   libucrt:per_thread_data.obj
 0001:00023b74       ?construct_ptd_array@@YAXQEAU__acrt_ptd@@@Z 0000000140024b74 f   libucrt:per_thread_data.obj
 0001:00023c44       ?destroy_fls@@YAXPEAX@Z    0000000140024c44 f   libucrt:per_thread_data.obj
 0001:00023c64       ?destroy_ptd_array@@YAXQEAU__acrt_ptd@@@Z 0000000140024c64 f   libucrt:per_thread_data.obj
 0001:00023d5c       ?replace_current_thread_locale_nolock@@YAXQEAU__acrt_ptd@@QEAU__crt_locale_data@@@Z 0000000140024d5c f   libucrt:per_thread_data.obj
 0001:000255f8       ?fp_format_a@@YAHQEBNPEAD_KQEAD2H_NIQEAU__crt_locale_pointers@@W4__acrt_rounding_mode@@@Z 00000001400265f8 f   libucrt:cvt.obj
 0001:00025978       ?fp_format_e@@YAHQEBNQEAD_K12H_NIQEAU__crt_locale_pointers@@W4__acrt_rounding_mode@@@Z 0000000140026978 f   libucrt:cvt.obj
 0001:00025a68       ?fp_format_e_internal@@YAHQEAD_KH_NIQEAU_strflt@@2QEAU__crt_locale_pointers@@@Z 0000000140026a68 f   libucrt:cvt.obj
 0001:00025c3c       ?fp_format_f_internal@@YAHQEAD_KHQEAU_strflt@@_NQEAU__crt_locale_pointers@@@Z 0000000140026c3c f   libucrt:cvt.obj
 0001:00025da4       ?fp_format_g@@YAHQEBNQEAD_K12H_NIW4__acrt_rounding_mode@@QEAU__crt_locale_pointers@@@Z 0000000140026da4 f   libucrt:cvt.obj
 0001:00025eec       ?should_round_up@@YA_NQEBN_KFW4__acrt_rounding_mode@@@Z 0000000140026eec f   libucrt:cvt.obj
 0001:000264c8       ?initialize_inherited_file_handles_nolock@@YAXXZ 00000001400274c8 f   libucrt:ioinit.obj
 0001:000265b8       ?initialize_stdio_handles_nolock@@YAXXZ 00000001400275b8 f   libucrt:ioinit.obj
 0001:00026740       ?<lambda_invoker_cdecl>@<lambda_795c6bd18aed400428efeb9a5f0e1479>@@CAHPEA_W@Z 0000000140027740 f   libucrt:winapi_thunks.obj
 0001:00026768       ??$?RV<lambda_48fc4a32460bb0512d3b13f8499328be>@@AEAV<lambda_6c3dac0a4f3f9cefca9bb494422f9b77>@@V<lambda_0a2f2c9f9a56eb2b08bfa6ff61d331c5>@@@?$__crt_seh_guarded_call@H@@QEAAH$$QEAV<lambda_48fc4a32460bb0512d3b13f8499328be>@@AEAV<lambda_6c3dac0a4f3f9cefca9bb494422f9b77>@@$$QEAV<lambda_0a2f2c9f9a56eb2b08bfa6ff61d331c5>@@@Z 0000000140027768 f   libucrt:winapi_thunks.obj
 0001:000267e4       ?try_get_function@@YAPEAXW4function_id@?A0x391cf84c@@QEBDQEBW4module_id@2@2@Z 00000001400277e4 f   libucrt:winapi_thunks.obj
 0001:0002722c       ?_mbstowcs_l_helper@@YA_KPEA_WPEBD_KPEAU__crt_locale_pointers@@@Z 000000014002822c f   libucrt:mbstowcs.obj
 0001:00027580       ?_wcstombs_l_helper@@YA_KPEADPEB_W_KPEAU__crt_locale_pointers@@@Z 0000000140028580 f   libucrt:wcstombs.obj
 0001:000279c4       ?InternalGetLocaleInfoA@@YAHQEAU__crt_locale_pointers@@QEB_WKQEADH@Z 00000001400289c4 f   libucrt:getlocaleinfoa.obj
 0001:00027e98       ?__acrt_LCMapStringA_stat@@YAHPEAU__crt_locale_pointers@@PEB_WKPEBDHPEADHHH@Z 0000000140028e98 f   libucrt:lcmapstringa.obj
 0001:000283f0       ??$?RV<lambda_751a882b2c74d4b022dec766aa51a29a>@@AEAV<lambda_628dfdc04ba53c8bfc02c9951375f3f5>@@V<lambda_f6c7be5f7998530c34de24c7437d6b54>@@@?$__crt_seh_guarded_call@H@@QEAAH$$QEAV<lambda_751a882b2c74d4b022dec766aa51a29a>@@AEAV<lambda_628dfdc04ba53c8bfc02c9951375f3f5>@@$$QEAV<lambda_f6c7be5f7998530c34de24c7437d6b54>@@@Z 00000001400293f0 f   libucrt:close.obj
 0001:000285e4       ??$?RV<lambda_a37b2b86f63e897a80ea819b0eb08c01>@@AEAV<lambda_38ce7e780aa69e748d6df282ebc68efe>@@V<lambda_99fb1378e971ab6e7edea83e3a7a83a2>@@@?$__crt_seh_guarded_call@H@@QEAAH$$QEAV<lambda_a37b2b86f63e897a80ea819b0eb08c01>@@AEAV<lambda_38ce7e780aa69e748d6df282ebc68efe>@@$$QEAV<lambda_99fb1378e971ab6e7edea83e3a7a83a2>@@@Z 00000001400295e4 f   libucrt:commit.obj
 0001:00028704       ?write_double_translated_ansi_nolock@@YA?AUwrite_result@?A0x17268360@@HQEBDI@Z 0000000140029704 f   libucrt:write.obj
 0001:00028bf0       ?write_text_ansi_nolock@@YA?AUwrite_result@?A0x17268360@@HQEBDI@Z 0000000140029bf0 f   libucrt:write.obj
 0001:00028cf4       ?write_text_utf16le_nolock@@YA?AUwrite_result@?A0x17268360@@HQEBDI@Z 0000000140029cf4 f   libucrt:write.obj
 0001:00028e10       ?write_text_utf8_nolock@@YA?AUwrite_result@?A0x17268360@@HQEBDI@Z 0000000140029e10 f   libucrt:write.obj
 0001:000294bc       ??$common_ftell@_J@@YA_JV__crt_stdio_stream@@@Z 000000014002a4bc f   libucrt:ftell.obj
 0001:00029510       ??$common_ftell_nolock@_J@@YA_JV__crt_stdio_stream@@@Z 000000014002a510 f   libucrt:ftell.obj
 0001:00029640       ?common_ftell_read_mode_nolock@@YA_JV__crt_stdio_stream@@_J1@Z 000000014002a640 f   libucrt:ftell.obj
 0001:0002978c       ?common_ftell_translated_utf8_nolock@@YA_JV__crt_stdio_stream@@_J@Z 000000014002a78c f   libucrt:ftell.obj
 0001:00029908       ?count_newline_bytes@@YA_JQEBD0W4__crt_lowio_text_mode@@@Z 000000014002a908 f   libucrt:ftell.obj
 0001:0002999c       ??$write_buffer_nolock@D@@YA_NDV__crt_stdio_stream@@@Z 000000014002a99c f   libucrt:_flsbuf.obj
 0001:00029a80       ?stream_is_at_end_of_file_nolock@@YA_NV__crt_stdio_stream@@@Z 000000014002aa80 f   libucrt:_flsbuf.obj
 0001:00029bb4       ??$translate_text_mode_nolock@_W@@YAHHQEA_W_K@Z 000000014002abb4 f   libucrt:read.obj
 0001:00029dfc       ?translate_ansi_or_utf8_nolock@@YAHHQEAD_KQEA_W1@Z 000000014002adfc f   libucrt:read.obj
 0001:0002a690       ??$common_lseek@_J@@YA_JH_JH@Z 000000014002b690 f   libucrt:lseek.obj
 0001:0002a780       ??$common_lseek_nolock@_J@@YA_JH_JH@Z 000000014002b780 f   libucrt:lseek.obj
 0001:0002a914       ??$?RV<lambda_450d765d439847d4c735a33c368b5fc0>@@AEAV<lambda_44731a7d0e6d81c3e6aa82d741081786>@@V<lambda_601a2a7da3b7a96e9554ac7215c4b07c>@@@?$__crt_seh_guarded_call@P6AXH@Z@@QEAAP6AXH@Z$$QEAV<lambda_450d765d439847d4c735a33c368b5fc0>@@AEAV<lambda_44731a7d0e6d81c3e6aa82d741081786>@@$$QEAV<lambda_601a2a7da3b7a96e9554ac7215c4b07c>@@@Z 000000014002b914 f   libucrt:signal.obj
 0001:0002b088       ?<lambda_invoker_cdecl>@<lambda_a1ce4c8ae42411fd470c77163914f50e>@@CAHPEBX0@Z 000000014002c088 f   libucrt:argv_wildcards.obj
 0001:0002b228       ??$common_expand_argv_wildcards@D@@YAHQEAPEADQEAPEAPEAD@Z 000000014002c228 f   libucrt:argv_wildcards.obj
 0001:0002b434       ??$copy_and_add_argument_to_buffer@D@@YAHQEBD0_KAEAV?$argument_list@D@?A0x5f5c8891@@@Z 000000014002c434 f   libucrt:argv_wildcards.obj
 0001:0002b5bc       ??$expand_argument_wildcards@D@@YAHQEAD0AEAV?$argument_list@D@?A0x5f5c8891@@@Z 000000014002c5bc f   libucrt:argv_wildcards.obj
 0001:0002b9f4       ??$?RV<lambda_efdfa57d1f175319df784efa44bb7b81>@@AEAV<lambda_5f0a4c1567f8adc6734073e5d1e1b35c>@@V<lambda_2e8a7d3640ea6ccb4c2413664c2db6fd>@@@?$__crt_seh_guarded_call@X@@QEAAX$$QEAV<lambda_efdfa57d1f175319df784efa44bb7b81>@@AEAV<lambda_5f0a4c1567f8adc6734073e5d1e1b35c>@@$$QEAV<lambda_2e8a7d3640ea6ccb4c2413664c2db6fd>@@@Z 000000014002c9f4 f   libucrt:mbctype.obj
 0001:0002bbb0       ?getSystemCP@@YAHH@Z       000000014002cbb0 f   libucrt:mbctype.obj
 0001:0002bc30       ?setSBCS@@YAXPEAU__crt_multibyte_data@@@Z 000000014002cc30 f   libucrt:mbctype.obj
 0001:0002bcc0       ?setSBUpLow@@YAXPEAU__crt_multibyte_data@@@Z 000000014002ccc0 f   libucrt:mbctype.obj
 0001:0002bea4       ?setmbcp_internal@@YAHH_NQEAU__acrt_ptd@@QEAPEAU__crt_multibyte_data@@@Z 000000014002cea4 f   libucrt:mbctype.obj
 0001:0002c064       ?update_thread_multibyte_data_internal@@YAPEAU__crt_multibyte_data@@QEAU__acrt_ptd@@QEAPEAU1@@Z 000000014002d064 f   libucrt:mbctype.obj
 0001:0002c454       ?x_ismbbtype_l@@YAHPEAU__crt_locale_pointers@@IHH@Z 000000014002d454 f   libucrt:ismbbyte.obj
 0001:0002c5e4       ??$common_set_variable_in_environment_nolock@D@@YAHQEADH@Z 000000014002d5e4 f   libucrt:setenv.obj
 0001:0002c904       ??$copy_environment@D@@YAPEAPEADQEAPEAD@Z 000000014002d904 f   libucrt:setenv.obj
 0001:0002d704       ?free_crt_array_internal@@YAXQEAPEBX_K@Z 000000014002e704 f   libucrt:inittime.obj
 0001:0002d75c       ?initialize_lc_time@@YA_NQEAU__crt_lc_time_data@@QEAU__crt_locale_data@@@Z 000000014002e75c f   libucrt:inittime.obj
 0001:0002e1c0       GetLocaleNameFromDefault   000000014002f1c0 f   libucrt:get_qualified_locale.obj
 0001:0002e268       GetLocaleNameFromLangCountry 000000014002f268 f   libucrt:get_qualified_locale.obj
 0001:0002e338       GetLocaleNameFromLanguage  000000014002f338 f   libucrt:get_qualified_locale.obj
 0001:0002e3d0       LangCountryEnumProcEx      000000014002f3d0 f   libucrt:get_qualified_locale.obj
 0001:0002e6bc       LanguageEnumProcEx         000000014002f6bc f   libucrt:get_qualified_locale.obj
 0001:0002e7a8       ProcessCodePage            000000014002f7a8 f   libucrt:get_qualified_locale.obj
 0001:0002e874       TestDefaultCountry         000000014002f874 f   libucrt:get_qualified_locale.obj
 0001:0002e8d8       TranslateName              000000014002f8d8 f   libucrt:get_qualified_locale.obj
 0001:0002ebd8       CountryEnumProc            000000014002fbd8 f   libucrt:getqloc_downlevel.obj
 0001:0002ecc0       GetLcidFromLangCountry     000000014002fcc0 f   libucrt:getqloc_downlevel.obj
 0001:0002ed90       GetLcidFromLanguage        000000014002fd90 f   libucrt:getqloc_downlevel.obj
 0001:0002ee28       LangCountryEnumProc        000000014002fe28 f   libucrt:getqloc_downlevel.obj
 0001:0002f074       LanguageEnumProc           0000000140030074 f   libucrt:getqloc_downlevel.obj
 0001:0002f17c       LcidFromHexString          000000014003017c f   libucrt:getqloc_downlevel.obj
 0001:0002f1cc       ProcessCodePage            00000001400301cc f   libucrt:getqloc_downlevel.obj
 0001:0002f27c       TestDefaultLanguage        000000014003027c f   libucrt:getqloc_downlevel.obj
 0001:0002f328       TranslateName              0000000140030328 f   libucrt:getqloc_downlevel.obj
 0001:0002f7a4       _call_matherr              00000001400307a4 f   libucrt:libm_error.obj
 0001:0002f80c       _exception_enabled         000000014003080c f   libucrt:libm_error.obj
 0001:0002fb50       $$000000                   0000000140030b50     libucrt:fpsr.obj
 0001:00031d80       fallbackMethod             0000000140032d80 f   libucrt:strpbrk.obj
 0001:0003212c       $LN78                      000000014003312c     libucrt:strpbrk.obj
 0001:00032168       $LN77                      0000000140033168     libucrt:strpbrk.obj
 0001:000321a8       $LN76                      00000001400331a8     libucrt:strpbrk.obj
 0001:00032284       ?initialize_multibyte@@YAHXZ 0000000140033284 f   libucrt:multibyte_initializer.obj
 0001:0003254c       ??$common_xtox@K_W@@YAHKQEA_W_KI_N@Z 000000014003354c f   libucrt:xtoa.obj
 0001:00032620       ??$common_xtox_s@K_W@@YAHKQEA_W_KI_N@Z 0000000140033620 f   libucrt:xtoa.obj
 0001:00032cc0       $$000000                   0000000140033cc0     libucrt:log10.obj
 0001:00033614       ?InternalCompareStringA@@YAHPEAU__crt_locale_pointers@@PEB_WKPEBDH2HH@Z 0000000140034614 f   libucrt:comparestringa.obj
 0001:00033a78       common_control87           0000000140034a78 f   libucrt:ieee.obj
 0001:00033d60       _log_special_common        0000000140034d60 f   libucrt:log_special.obj
 0001:00034240       $$000000                   0000000140035240     LIBCMT:guard_dispatch.obj
 0001:00034260       $$000000                   0000000140035260     LIBCMT:guard_xfg_dispatch.obj
 0001:00034280       ?dtor$0@?0???$?6U?$char_traits@D@std@@@std@@YAAEAV?$basic_ostream@DU?$char_traits@D@std@@@0@AEAV10@PEBD@Z@4HA 0000000140035280 f   main.obj
 0001:000342a0       ?catch$1@?0???$?6U?$char_traits@D@std@@@std@@YAAEAV?$basic_ostream@DU?$char_traits@D@std@@@0@AEAV10@PEBD@Z@4HA 00000001400352a0 f   main.obj
 0001:000342ad       __catch$??$?6U?$char_traits@D@std@@@std@@YAAEAV?$basic_ostream@DU?$char_traits@D@std@@@0@AEAV10@PEBD@Z$0 00000001400352ad f   main.obj
 0001:000342f0       ?dtor$0@?0???$_Common_extract_with_num_get@J@?$basic_istream@DU?$char_traits@D@std@@@std@@AEAAAEAV01@AEAJ@Z@4HA 00000001400352f0 f   main.obj
 0001:000342f0       ?dtor$0@?0???$_Common_extract_with_num_get@N@?$basic_istream@DU?$char_traits@D@std@@@std@@AEAAAEAV01@AEAN@Z@4HA 00000001400352f0 f   main.obj
 0001:00034310       ?dtor$1@?0???$_Common_extract_with_num_get@J@?$basic_istream@DU?$char_traits@D@std@@@std@@AEAAAEAV01@AEAJ@Z@4HA 0000000140035310 f   main.obj
 0001:00034310       ?dtor$1@?0???$_Common_extract_with_num_get@N@?$basic_istream@DU?$char_traits@D@std@@@std@@AEAAAEAV01@AEAN@Z@4HA 0000000140035310 f   main.obj
 0001:00034330       ?catch$2@?0???$_Common_extract_with_num_get@J@?$basic_istream@DU?$char_traits@D@std@@@std@@AEAAAEAV01@AEAJ@Z@4HA 0000000140035330 f   main.obj
 0001:0003433d       __catch$??$_Common_extract_with_num_get@J@?$basic_istream@DU?$char_traits@D@std@@@std@@AEAAAEAV01@AEAJ@Z$0 000000014003533d f   main.obj
 0001:00034380       ?catch$2@?0???$_Common_extract_with_num_get@N@?$basic_istream@DU?$char_traits@D@std@@@std@@AEAAAEAV01@AEAN@Z@4HA 0000000140035380 f   main.obj
 0001:0003438d       __catch$??$_Common_extract_with_num_get@N@?$basic_istream@DU?$char_traits@D@std@@@std@@AEAAAEAV01@AEAN@Z$0 000000014003538d f   main.obj
 0001:000343d0       ?dtor$0@?0???$_Getloctxt@V?$istreambuf_iterator@DU?$char_traits@D@std@@@std@@D@std@@YAHAEAV?$istreambuf_iterator@DU?$char_traits@D@std@@@0@0_KPEBDW4_Case_sensitive@0@@Z@4HA 00000001400353d0 f   main.obj
 0001:000343f0       ?dtor$0@?0??_Iput@?$num_put@DV?$ostreambuf_iterator@DU?$char_traits@D@std@@@std@@@std@@AEBA?AV?$ostreambuf_iterator@DU?$char_traits@D@std@@@2@V32@AEAVios_base@2@DPEAD_K@Z@4HA 00000001400353f0 f   main.obj
 0001:000343f0       ?dtor$0@?0??do_get@?$num_get@DV?$istreambuf_iterator@DU?$char_traits@D@std@@@std@@@std@@MEBA?AV?$istreambuf_iterator@DU?$char_traits@D@std@@@2@V32@0AEAVios_base@2@AEAHAEA_N@Z@4HA 00000001400353f0 f   main.obj
 0001:000343f0       ?dtor$1@?0???$_Getloctxt@V?$istreambuf_iterator@DU?$char_traits@D@std@@@std@@D@std@@YAHAEAV?$istreambuf_iterator@DU?$char_traits@D@std@@@0@0_KPEBDW4_Case_sensitive@0@@Z@4HA 00000001400353f0 f   main.obj
 0001:00034410       ?dtor$0@?0???$use_facet@V?$ctype@D@std@@@std@@YAAEBV?$ctype@D@0@AEBVlocale@0@@Z@4HA 0000000140035410 f   main.obj
 0001:00034410       ?dtor$0@?0???$use_facet@V?$num_get@DV?$istreambuf_iterator@DU?$char_traits@D@std@@@std@@@std@@@std@@YAAEBV?$num_get@DV?$istreambuf_iterator@DU?$char_traits@D@std@@@std@@@0@AEBVlocale@0@@Z@4HA 0000000140035410 f   main.obj
 0001:00034410       ?dtor$0@?0???$use_facet@V?$num_put@DV?$ostreambuf_iterator@DU?$char_traits@D@std@@@std@@@std@@@std@@YAAEBV?$num_put@DV?$ostreambuf_iterator@DU?$char_traits@D@std@@@std@@@0@AEBVlocale@0@@Z@4HA 0000000140035410 f   main.obj
 0001:00034410       ?dtor$0@?0???$use_facet@V?$numpunct@D@std@@@std@@YAAEBV?$numpunct@D@0@AEBVlocale@0@@Z@4HA 0000000140035410 f   main.obj
 0001:00034430       ?dtor$1@?0???$use_facet@V?$ctype@D@std@@@std@@YAAEBV?$ctype@D@0@AEBVlocale@0@@Z@4HA 0000000140035430 f   main.obj
 0001:00034430       ?dtor$1@?0???$use_facet@V?$num_get@DV?$istreambuf_iterator@DU?$char_traits@D@std@@@std@@@std@@@std@@YAAEBV?$num_get@DV?$istreambuf_iterator@DU?$char_traits@D@std@@@std@@@0@AEBVlocale@0@@Z@4HA 0000000140035430 f   main.obj
 0001:00034430       ?dtor$1@?0???$use_facet@V?$num_put@DV?$ostreambuf_iterator@DU?$char_traits@D@std@@@std@@@std@@@std@@YAAEBV?$num_put@DV?$ostreambuf_iterator@DU?$char_traits@D@std@@@std@@@0@AEBVlocale@0@@Z@4HA 0000000140035430 f   main.obj
 0001:00034430       ?dtor$1@?0???$use_facet@V?$numpunct@D@std@@@std@@YAAEBV?$numpunct@D@0@AEBVlocale@0@@Z@4HA 0000000140035430 f   main.obj
 0001:00034450       ?dtor$0@?0???0?$basic_string@DU?$char_traits@D@std@@V?$allocator@D@2@@std@@QEAA@AEBV01@@Z@4HA 0000000140035450 f   main.obj
 0001:00034450       ?dtor$0@?0???0?$basic_string@DU?$char_traits@D@std@@V?$allocator@D@2@@std@@QEAA@QEBD@Z@4HA 0000000140035450 f   main.obj
 0001:00034450       ?dtor$0@?0???0?$basic_string@DU?$char_traits@D@std@@V?$allocator@D@2@@std@@QEAA@QEBD_K@Z@4HA 0000000140035450 f   main.obj
 0001:00034450       ?dtor$0@?0???0?$basic_string@DU?$char_traits@D@std@@V?$allocator@D@2@@std@@QEAA@_KD@Z@4HA 0000000140035450 f   main.obj
 0001:00034470       ?dtor$0@?0???0?$ctype@D@std@@QEAA@AEBV_Locinfo@1@_K@Z@4HA 0000000140035470 f   main.obj
 0001:00034490       ?dtor$0@?0???0?$num_get@DV?$istreambuf_iterator@DU?$char_traits@D@std@@@std@@@std@@QEAA@AEBV_Locinfo@1@_K@Z@4HA 0000000140035490 f   main.obj
 0001:00034490       ?dtor$0@?0???0?$num_put@DV?$ostreambuf_iterator@DU?$char_traits@D@std@@@std@@@std@@QEAA@AEBV_Locinfo@1@_K@Z@4HA 0000000140035490 f   main.obj
 0001:00034490       ?dtor$0@?0???0?$numpunct@D@std@@QEAA@AEBV_Locinfo@1@_K_N@Z@4HA 0000000140035490 f   main.obj
 0001:000344b0       ?dtor$0@?0???0_Locinfo@std@@QEAA@PEBD@Z@4HA 00000001400354b0 f   main.obj
 0001:000344d0       ?dtor$1@?0???0_Locinfo@std@@QEAA@PEBD@Z@4HA 00000001400354d0 f   main.obj
 0001:000344f0       ?dtor$2@?0???0_Locinfo@std@@QEAA@PEBD@Z@4HA 00000001400354f0 f   main.obj
 0001:00034510       ?dtor$3@?0???0_Locinfo@std@@QEAA@PEBD@Z@4HA 0000000140035510 f   main.obj
 0001:00034530       ?dtor$4@?0???0_Locinfo@std@@QEAA@PEBD@Z@4HA 0000000140035530 f   main.obj
 0001:00034550       ?dtor$5@?0???0_Locinfo@std@@QEAA@PEBD@Z@4HA 0000000140035550 f   main.obj
 0001:00034570       ?dtor$6@?0???0_Locinfo@std@@QEAA@PEBD@Z@4HA 0000000140035570 f   main.obj
 0001:00034590       ?dtor$1@?0???0_System_error@std@@IEAA@Verror_code@1@AEBV?$basic_string@DU?$char_traits@D@std@@V?$allocator@D@2@@1@@Z@4HA 0000000140035590 f   main.obj
 0001:000345b0       ?dtor$0@?0???0sentry@?$basic_istream@DU?$char_traits@D@std@@@std@@QEAA@AEAV12@_N@Z@4HA 00000001400355b0 f   main.obj
 0001:000345d0       ?dtor$0@?0???0sentry@?$basic_ostream@DU?$char_traits@D@std@@@std@@QEAA@AEAV12@@Z@4HA 00000001400355d0 f   main.obj
 0001:000345f0       ?dtor$0@?0???0system_error@std@@QEAA@Verror_code@1@PEBD@Z@4HA 00000001400355f0 f   main.obj
 0001:00034610       ?dtor$0@?0???6?$basic_ostream@DU?$char_traits@D@std@@@std@@QEAAAEAV01@N@Z@4HA 0000000140035610 f   main.obj
 0001:00034630       ?dtor$1@?0???6?$basic_ostream@DU?$char_traits@D@std@@@std@@QEAAAEAV01@N@Z@4HA 0000000140035630 f   main.obj
 0001:00034650       ?catch$2@?0???6?$basic_ostream@DU?$char_traits@D@std@@@std@@QEAAAEAV01@N@Z@4HA 0000000140035650 f   main.obj
 0001:0003465d       __catch$??6?$basic_ostream@DU?$char_traits@D@std@@@std@@QEAAAEAV01@N@Z$0 000000014003565d f   main.obj
 0001:000346a0       ?dtor$0@?0??_Fput@?$num_put@DV?$ostreambuf_iterator@DU?$char_traits@D@std@@@std@@@std@@AEBA?AV?$ostreambuf_iterator@DU?$char_traits@D@std@@@2@V32@AEAVios_base@2@DPEBD_K@Z@4HA 00000001400356a0 f   main.obj
 0001:000346a0       ?dtor$0@?0??_Getffldx@?$num_get@DV?$istreambuf_iterator@DU?$char_traits@D@std@@@std@@@std@@AEBAHPEADAEAV?$istreambuf_iterator@DU?$char_traits@D@std@@@2@1AEAVios_base@2@PEAH@Z@4HA 00000001400356a0 f   main.obj
 0001:000346c0       ?dtor$1@?0??_Fput@?$num_put@DV?$ostreambuf_iterator@DU?$char_traits@D@std@@@std@@@std@@AEBA?AV?$ostreambuf_iterator@DU?$char_traits@D@std@@@2@V32@AEAVios_base@2@DPEBD_K@Z@4HA 00000001400356c0 f   main.obj
 0001:000346c0       ?dtor$3@?0??_Iput@?$num_put@DV?$ostreambuf_iterator@DU?$char_traits@D@std@@@std@@@std@@AEBA?AV?$ostreambuf_iterator@DU?$char_traits@D@std@@@2@V32@AEAVios_base@2@DPEAD_K@Z@4HA 00000001400356c0 f   main.obj
 0001:000346e0       ?dtor$2@?0??_Fput@?$num_put@DV?$ostreambuf_iterator@DU?$char_traits@D@std@@@std@@@std@@AEBA?AV?$ostreambuf_iterator@DU?$char_traits@D@std@@@2@V32@AEAVios_base@2@DPEBD_K@Z@4HA 00000001400356e0 f   main.obj
 0001:000346e0       ?dtor$2@?0??_Getffldx@?$num_get@DV?$istreambuf_iterator@DU?$char_traits@D@std@@@std@@@std@@AEBAHPEADAEAV?$istreambuf_iterator@DU?$char_traits@D@std@@@2@1AEAVios_base@2@PEAH@Z@4HA 00000001400356e0 f   main.obj
 0001:00034700       ?dtor$3@?0??_Fput@?$num_put@DV?$ostreambuf_iterator@DU?$char_traits@D@std@@@std@@@std@@AEBA?AV?$ostreambuf_iterator@DU?$char_traits@D@std@@@2@V32@AEAVios_base@2@DPEBD_K@Z@4HA 0000000140035700 f   main.obj
 0001:00034720       ?dtor$0@?0??_Getcat@?$ctype@D@std@@SA_KPEAPEBVfacet@locale@2@PEBV42@@Z@4HA 0000000140035720 f   main.obj
 0001:00034720       ?dtor$0@?0??_Getcat@?$numpunct@D@std@@SA_KPEAPEBVfacet@locale@2@PEBV42@@Z@4HA 0000000140035720 f   main.obj
 0001:00034740       ?dtor$1@?0??_Getcat@?$ctype@D@std@@SA_KPEAPEBVfacet@locale@2@PEBV42@@Z@4HA 0000000140035740 f   main.obj
 0001:00034740       ?dtor$1@?0??_Getcat@?$num_get@DV?$istreambuf_iterator@DU?$char_traits@D@std@@@std@@@std@@SA_KPEAPEBVfacet@locale@2@PEBV42@@Z@4HA 0000000140035740 f   main.obj
 0001:00034740       ?dtor$1@?0??_Getcat@?$num_put@DV?$ostreambuf_iterator@DU?$char_traits@D@std@@@std@@@std@@SA_KPEAPEBVfacet@locale@2@PEBV42@@Z@4HA 0000000140035740 f   main.obj
 0001:00034740       ?dtor$1@?0??_Getcat@?$numpunct@D@std@@SA_KPEAPEBVfacet@locale@2@PEBV42@@Z@4HA 0000000140035740 f   main.obj
 0001:00034770       ?dtor$0@?0??_Getcat@?$num_get@DV?$istreambuf_iterator@DU?$char_traits@D@std@@@std@@@std@@SA_KPEAPEBVfacet@locale@2@PEBV42@@Z@4HA 0000000140035770 f   main.obj
 0001:00034770       ?dtor$0@?0??_Getcat@?$num_put@DV?$ostreambuf_iterator@DU?$char_traits@D@std@@@std@@@std@@SA_KPEAPEBVfacet@locale@2@PEBV42@@Z@4HA 0000000140035770 f   main.obj
 0001:00034790       ?dtor$0@?0??_Getffld@?$num_get@DV?$istreambuf_iterator@DU?$char_traits@D@std@@@std@@@std@@AEBAHPEADAEAV?$istreambuf_iterator@DU?$char_traits@D@std@@@2@1AEAVios_base@2@PEAH@Z@4HA 0000000140035790 f   main.obj
 0001:000347b0       ?dtor$1@?0??_Getffld@?$num_get@DV?$istreambuf_iterator@DU?$char_traits@D@std@@@std@@@std@@AEBAHPEADAEAV?$istreambuf_iterator@DU?$char_traits@D@std@@@2@1AEAVios_base@2@PEAH@Z@4HA 00000001400357b0 f   main.obj
 0001:000347d0       ?dtor$2@?0??_Getffld@?$num_get@DV?$istreambuf_iterator@DU?$char_traits@D@std@@@std@@@std@@AEBAHPEADAEAV?$istreambuf_iterator@DU?$char_traits@D@std@@@2@1AEAVios_base@2@PEAH@Z@4HA 00000001400357d0 f   main.obj
 0001:000347f0       ?dtor$1@?0??_Getffldx@?$num_get@DV?$istreambuf_iterator@DU?$char_traits@D@std@@@std@@@std@@AEBAHPEADAEAV?$istreambuf_iterator@DU?$char_traits@D@std@@@2@1AEAVios_base@2@PEAH@Z@4HA 00000001400357f0 f   main.obj
 0001:000347f0       ?dtor$3@?0??_Getffld@?$num_get@DV?$istreambuf_iterator@DU?$char_traits@D@std@@@std@@@std@@AEBAHPEADAEAV?$istreambuf_iterator@DU?$char_traits@D@std@@@2@1AEAVios_base@2@PEAH@Z@4HA 00000001400357f0 f   main.obj
 0001:00034810       ?dtor$3@?0??_Getffldx@?$num_get@DV?$istreambuf_iterator@DU?$char_traits@D@std@@@std@@@std@@AEBAHPEADAEAV?$istreambuf_iterator@DU?$char_traits@D@std@@@2@1AEAVios_base@2@PEAH@Z@4HA 0000000140035810 f   main.obj
 0001:00034830       ?dtor$0@?0??_Getifld@?$num_get@DV?$istreambuf_iterator@DU?$char_traits@D@std@@@std@@@std@@AEBAHPEADAEAV?$istreambuf_iterator@DU?$char_traits@D@std@@@2@1HAEBVlocale@2@@Z@4HA 0000000140035830 f   main.obj
 0001:00034850       ?dtor$1@?0??_Getifld@?$num_get@DV?$istreambuf_iterator@DU?$char_traits@D@std@@@std@@@std@@AEBAHPEADAEAV?$istreambuf_iterator@DU?$char_traits@D@std@@@2@1HAEBVlocale@2@@Z@4HA 0000000140035850 f   main.obj
 0001:00034870       ?dtor$0@?0??_Init@?$numpunct@D@std@@IEAAXAEBV_Locinfo@2@_N@Z@4HA 0000000140035870 f   main.obj
 0001:00034890       ?dtor$0@?0??_Ipfx@?$basic_istream@DU?$char_traits@D@std@@@std@@QEAA_N_N@Z@4HA 0000000140035890 f   main.obj
 0001:000348b0       ?catch$1@?0??_Ipfx@?$basic_istream@DU?$char_traits@D@std@@@std@@QEAA_N_N@Z@4HA 00000001400358b0 f   main.obj
 0001:000348bd       __catch$?_Ipfx@?$basic_istream@DU?$char_traits@D@std@@@std@@QEAA_N_N@Z$0 00000001400358bd f   main.obj
 0001:00034900       ?dtor$1@?0??_Iput@?$num_put@DV?$ostreambuf_iterator@DU?$char_traits@D@std@@@std@@@std@@AEBA?AV?$ostreambuf_iterator@DU?$char_traits@D@std@@@2@V32@AEAVios_base@2@DPEAD_K@Z@4HA 0000000140035900 f   main.obj
 0001:00034920       ?dtor$2@?0??_Iput@?$num_put@DV?$ostreambuf_iterator@DU?$char_traits@D@std@@@std@@@std@@AEBA?AV?$ostreambuf_iterator@DU?$char_traits@D@std@@@2@V32@AEAVios_base@2@DPEAD_K@Z@4HA 0000000140035920 f   main.obj
 0001:00034920       ?dtor$4@?0??do_get@?$num_get@DV?$istreambuf_iterator@DU?$char_traits@D@std@@@std@@@std@@MEBA?AV?$istreambuf_iterator@DU?$char_traits@D@std@@@2@V32@0AEAVios_base@2@AEAHAEA_N@Z@4HA 0000000140035920 f   main.obj
 0001:00034940       ?dtor$0@?0??_Makestr@_System_error@std@@CA?AV?$basic_string@DU?$char_traits@D@std@@V?$allocator@D@2@@2@Verror_code@2@V32@@Z@4HA 0000000140035940 f   main.obj
 0001:00034960       ?dtor$1@?0??_Makestr@_System_error@std@@CA?AV?$basic_string@DU?$char_traits@D@std@@V?$allocator@D@2@@2@Verror_code@2@V32@@Z@4HA 0000000140035960 f   main.obj
 0001:00034980       ?catch$0@?0??_Osfx@?$basic_ostream@DU?$char_traits@D@std@@@std@@QEAAXXZ@4HA 0000000140035980 f   main.obj
 0001:0003498d       __catch$?_Osfx@?$basic_ostream@DU?$char_traits@D@std@@@std@@QEAAXXZ$0 000000014003598d f   main.obj
 0001:000349a0       ?dtor$0@?0??do_get@?$num_get@DV?$istreambuf_iterator@DU?$char_traits@D@std@@@std@@@std@@MEBA?AV?$istreambuf_iterator@DU?$char_traits@D@std@@@2@V32@0AEAVios_base@2@AEAHAEAG@Z@4HA 00000001400359a0 f   main.obj
 0001:000349c0       ?dtor$0@?0??do_get@?$num_get@DV?$istreambuf_iterator@DU?$char_traits@D@std@@@std@@@std@@MEBA?AV?$istreambuf_iterator@DU?$char_traits@D@std@@@2@V32@0AEAVios_base@2@AEAHAEAJ@Z@4HA 00000001400359c0 f   main.obj
 0001:000349c0       ?dtor$0@?0??do_get@?$num_get@DV?$istreambuf_iterator@DU?$char_traits@D@std@@@std@@@std@@MEBA?AV?$istreambuf_iterator@DU?$char_traits@D@std@@@2@V32@0AEAVios_base@2@AEAHAEAK@Z@4HA 00000001400359c0 f   main.obj
 0001:000349c0       ?dtor$0@?0??do_get@?$num_get@DV?$istreambuf_iterator@DU?$char_traits@D@std@@@std@@@std@@MEBA?AV?$istreambuf_iterator@DU?$char_traits@D@std@@@2@V32@0AEAVios_base@2@AEAHAEAPEAX@Z@4HA 00000001400359c0 f   main.obj
 0001:000349c0       ?dtor$0@?0??do_get@?$num_get@DV?$istreambuf_iterator@DU?$char_traits@D@std@@@std@@@std@@MEBA?AV?$istreambuf_iterator@DU?$char_traits@D@std@@@2@V32@0AEAVios_base@2@AEAHAEA_J@Z@4HA 00000001400359c0 f   main.obj
 0001:000349c0       ?dtor$0@?0??do_get@?$num_get@DV?$istreambuf_iterator@DU?$char_traits@D@std@@@std@@@std@@MEBA?AV?$istreambuf_iterator@DU?$char_traits@D@std@@@2@V32@0AEAVios_base@2@AEAHAEA_K@Z@4HA 00000001400359c0 f   main.obj
 0001:000349e0       ?dtor$1@?0??do_get@?$num_get@DV?$istreambuf_iterator@DU?$char_traits@D@std@@@std@@@std@@MEBA?AV?$istreambuf_iterator@DU?$char_traits@D@std@@@2@V32@0AEAVios_base@2@AEAHAEA_N@Z@4HA 00000001400359e0 f   main.obj
 0001:00034a00       ?dtor$2@?0??do_get@?$num_get@DV?$istreambuf_iterator@DU?$char_traits@D@std@@@std@@@std@@MEBA?AV?$istreambuf_iterator@DU?$char_traits@D@std@@@2@V32@0AEAVios_base@2@AEAHAEA_N@Z@4HA 0000000140035a00 f   main.obj
 0001:00034a20       ?dtor$3@?0??do_get@?$num_get@DV?$istreambuf_iterator@DU?$char_traits@D@std@@@std@@@std@@MEBA?AV?$istreambuf_iterator@DU?$char_traits@D@std@@@2@V32@0AEAVios_base@2@AEAHAEA_N@Z@4HA 0000000140035a20 f   main.obj
 0001:00034a40       ?dtor$0@?0??do_put@?$num_put@DV?$ostreambuf_iterator@DU?$char_traits@D@std@@@std@@@std@@MEBA?AV?$ostreambuf_iterator@DU?$char_traits@D@std@@@2@V32@AEAVios_base@2@DN@Z@4HA 0000000140035a40 f   main.obj
 0001:00034a40       ?dtor$0@?0??do_put@?$num_put@DV?$ostreambuf_iterator@DU?$char_traits@D@std@@@std@@@std@@MEBA?AV?$ostreambuf_iterator@DU?$char_traits@D@std@@@2@V32@AEAVios_base@2@DO@Z@4HA 0000000140035a40 f   main.obj
 0001:00034a60       ?dtor$0@?0??do_put@?$num_put@DV?$ostreambuf_iterator@DU?$char_traits@D@std@@@std@@@std@@MEBA?AV?$ostreambuf_iterator@DU?$char_traits@D@std@@@2@V32@AEAVios_base@2@D_N@Z@4HA 0000000140035a60 f   main.obj
 0001:00034a80       ?dtor$1@?0??do_put@?$num_put@DV?$ostreambuf_iterator@DU?$char_traits@D@std@@@std@@@std@@MEBA?AV?$ostreambuf_iterator@DU?$char_traits@D@std@@@2@V32@AEAVios_base@2@D_N@Z@4HA 0000000140035a80 f   main.obj
 0001:00034aa0       ?dtor$0@?0??flush@?$basic_ostream@DU?$char_traits@D@std@@@std@@QEAAAEAV12@XZ@4HA 0000000140035aa0 f   main.obj
 0001:00034ac0       ?catch$1@?0??flush@?$basic_ostream@DU?$char_traits@D@std@@@std@@QEAAAEAV12@XZ@4HA 0000000140035ac0 f   main.obj
 0001:00034acd       __catch$?flush@?$basic_ostream@DU?$char_traits@D@std@@@std@@QEAAAEAV12@XZ$0 0000000140035acd f   main.obj
 0001:00034b01       ?dtor$0@?0??_Init@locale@std@@CAPEAV_Locimp@12@_N@Z@4HA 0000000140035b01 f   libcpmt:locale0.obj
 0001:00034b0d       ?dtor$0@?0???$use_facet@V?$codecvt@DDU_Mbstatet@@@std@@@std@@YAAEBV?$codecvt@DDU_Mbstatet@@@0@AEBVlocale@0@@Z@4HA 0000000140035b0d f   libcpmt:cin.obj
 0001:00034b19       ?dtor$1@?0???$use_facet@V?$codecvt@DDU_Mbstatet@@@std@@@std@@YAAEBV?$codecvt@DDU_Mbstatet@@@0@AEBVlocale@0@@Z@4HA 0000000140035b19 f   libcpmt:cin.obj
 0001:00034b25       ?dtor$0@?0???0?$basic_istream@DU?$char_traits@D@std@@@std@@QEAA@PEAV?$basic_streambuf@DU?$char_traits@D@std@@@1@_N@Z@4HA 0000000140035b25 f   libcpmt:cin.obj
 0001:00034b4f       ?dtor$0@?0??_Getcat@?$codecvt@DDU_Mbstatet@@@std@@SA_KPEAPEBVfacet@locale@2@PEBV42@@Z@4HA 0000000140035b4f f   libcpmt:cin.obj
 0001:00034b6f       ?dtor$0@?0??uflow@?$basic_filebuf@DU?$char_traits@D@std@@@std@@MEAAHXZ@4HA 0000000140035b6f f   libcpmt:cin.obj
 0001:00034b7b       ?dtor$0@?0??widen@?$basic_ios@DU?$char_traits@D@std@@@std@@QEBADD@Z@4HA 0000000140035b7b f   libcpmt:cin.obj
 0001:00034b87       ?dtor$0@?0???0?$basic_ostream@DU?$char_traits@D@std@@@std@@QEAA@PEAV?$basic_streambuf@DU?$char_traits@D@std@@@1@_N@Z@4HA 0000000140035b87 f   libcpmt:cout.obj
 0001:00034bb1       ?filt$0@?0??__scrt_common_main_seh@@YAHXZ@4HA 0000000140035bb1 f   LIBCMT:exe_main.obj
 0001:00034bcf       __scrt_is_nonwritable_in_current_image$filt$0 0000000140035bcf f   LIBCMT:utility.obj
 0001:00034be7       ?filt$0@?0???$_CallSETranslator@V__FrameHandler3@@@@YAHPEAUEHExceptionRecord@@PEA_KPEAU_CONTEXT@@PEAU_xDISPATCHER_CONTEXT@@PEBU_s_FuncInfo@@K1H@Z@4HA 0000000140035be7 f   libvcruntime:risctrnsctrl.obj
 0001:00034c8a       ?filt$0@?0???$_CallSETranslator@V__FrameHandler4@@@@YAHPEAUEHExceptionRecord@@PEA_KPEAU_CONTEXT@@PEAU_xDISPATCHER_CONTEXT@@PEAUFuncInfo4@FH4@@K1H@Z@4HA 0000000140035c8a f   libvcruntime:risctrnsctrl.obj
 0001:00034d3b       __DestructExceptionObject$filt$0 0000000140035d3b f   libvcruntime:ehhelpers.obj
 0001:00034dd1       ?filt$0@?0??CxxCallCatchBlock@__FrameHandler3@@SAPEAXPEAU_EXCEPTION_RECORD@@@Z@4HA 0000000140035dd1 f   libvcruntime:frame.obj
 0001:00034df6       ?fin$1@?0??CxxCallCatchBlock@__FrameHandler3@@SAPEAXPEAU_EXCEPTION_RECORD@@@Z@4HA 0000000140035df6 f   libvcruntime:frame.obj
 0001:00034e7c       ?filt$0@?0??CxxCallCatchBlock@__FrameHandler4@@SAPEAXPEAU_EXCEPTION_RECORD@@@Z@4HA 0000000140035e7c f   libvcruntime:frame.obj
 0001:00034eab       ?fin$1@?0??CxxCallCatchBlock@__FrameHandler4@@SAPEAXPEAU_EXCEPTION_RECORD@@@Z@4HA 0000000140035eab f   libvcruntime:frame.obj
 0001:00034f3c       ?filt$0@?0??FrameUnwindToState@__FrameHandler3@@SAXPEA_KPEAU_xDISPATCHER_CONTEXT@@PEBU_s_FuncInfo@@H@Z@4HA 0000000140035f3c f   libvcruntime:frame.obj
 0001:00034f52       ?fin$1@?0??FrameUnwindToState@__FrameHandler3@@SAXPEA_KPEAU_xDISPATCHER_CONTEXT@@PEBU_s_FuncInfo@@H@Z@4HA 0000000140035f52 f   libvcruntime:frame.obj
 0001:00034f75       ?filt$0@?0??FrameUnwindToState@__FrameHandler4@@SAXPEA_KPEAU_xDISPATCHER_CONTEXT@@PEAUFuncInfo4@FH4@@H@Z@4HA 0000000140035f75 f   libvcruntime:frame.obj
 0001:00034f8b       ?fin$1@?0??FrameUnwindToState@__FrameHandler4@@SAXPEA_KPEAU_xDISPATCHER_CONTEXT@@PEAUFuncInfo4@FH4@@H@Z@4HA 0000000140035f8b f   libvcruntime:frame.obj
 0001:00034fae       ?fin$0@?0???$?RV<lambda_0ae27a3a962d80f24befdcbee591983d>@@AEAV<lambda_8d0ee55de4b1038c4002e0adecdf1839>@@V<lambda_dc504788e8f1664fe9b84e20bfb512f2>@@@?$__crt_seh_guarded_call@X@@QEAAX$$QEAV<lambda_0ae27a3a962d80f24befdcbee591983d>@@AEAV<lambda_8d0ee55de4b1038c4002e0adecdf1839>@@$$QEAV<lambda_dc504788e8f1664fe9b84e20bfb512f2>@@@Z@4HA 0000000140035fae f   libucrt:per_thread_data.obj
 0001:00034fae       ?fin$0@?0???$?RV<lambda_2d41944a1d46af3157314b8a01080d33>@@AEAV<lambda_8f455de75cd7d7f24b4096f044d8b9e6>@@V<lambda_aa500f224e6afead328df44964fe2772>@@@?$__crt_seh_guarded_call@X@@QEAAX$$QEAV<lambda_2d41944a1d46af3157314b8a01080d33>@@AEAV<lambda_8f455de75cd7d7f24b4096f044d8b9e6>@@$$QEAV<lambda_aa500f224e6afead328df44964fe2772>@@@Z@4HA 0000000140035fae f   libucrt:per_thread_data.obj
 0001:00034fae       ?fin$0@?0???$?RV<lambda_aa87e3671a710a21b5dc78c0bdf72e11>@@AEAV<lambda_92619d2358a28f41a33ba319515a20b9>@@V<lambda_6992ecaafeb10aed2b74cb1fae11a551>@@@?$__crt_seh_guarded_call@X@@QEAAX$$QEAV<lambda_aa87e3671a710a21b5dc78c0bdf72e11>@@AEAV<lambda_92619d2358a28f41a33ba319515a20b9>@@$$QEAV<lambda_6992ecaafeb10aed2b74cb1fae11a551>@@@Z@4HA 0000000140035fae f   libucrt:per_thread_data.obj
 0001:00034fae       ?fin$0@?0???$?RV<lambda_f2e299630e499de9f9a165e60fcd3db5>@@AEAV<lambda_2ae9d31cdba2644fcbeaf08da7c24588>@@V<lambda_40d01ff24d0e7b3814fdbdcee8eab3c7>@@@?$__crt_seh_guarded_call@X@@QEAAX$$QEAV<lambda_f2e299630e499de9f9a165e60fcd3db5>@@AEAV<lambda_2ae9d31cdba2644fcbeaf08da7c24588>@@$$QEAV<lambda_40d01ff24d0e7b3814fdbdcee8eab3c7>@@@Z@4HA 0000000140035fae f   libucrt:per_thread_data.obj
 0001:00034fae       ?fin$0@?0???$?RV<lambda_48fc4a32460bb0512d3b13f8499328be>@@AEAV<lambda_6c3dac0a4f3f9cefca9bb494422f9b77>@@V<lambda_0a2f2c9f9a56eb2b08bfa6ff61d331c5>@@@?$__crt_seh_guarded_call@H@@QEAAH$$QEAV<lambda_48fc4a32460bb0512d3b13f8499328be>@@AEAV<lambda_6c3dac0a4f3f9cefca9bb494422f9b77>@@$$QEAV<lambda_0a2f2c9f9a56eb2b08bfa6ff61d331c5>@@@Z@4HA 0000000140035fae f   libucrt:winapi_thunks.obj
 0001:00034fae       ?fin$0@?0???$?RV<lambda_e9ce07acdb0b138e546925ae9f1a2c9c>@@AEAV<lambda_2116bde18c9e5f34230805ea4a4660ed>@@V<lambda_5d037afbfc54bf1ca80d3d1ee4062886>@@@?$__crt_seh_guarded_call@PEAD@@QEAAPEAD$$QEAV<lambda_e9ce07acdb0b138e546925ae9f1a2c9c>@@AEAV<lambda_2116bde18c9e5f34230805ea4a4660ed>@@$$QEAV<lambda_5d037afbfc54bf1ca80d3d1ee4062886>@@@Z@4HA 0000000140035fae f   libucrt:setlocale.obj
 0001:00034fae       ?fin$0@?0???$?RV<lambda_1d892b297fdedeee07ed8124eeb2f2fa>@@AEAV<lambda_ffc046909424fd52df0ac47e64813305>@@V<lambda_01a7098693036236037e7cdb9bca3d73>@@@?$__crt_seh_guarded_call@X@@QEAAX$$QEAV<lambda_1d892b297fdedeee07ed8124eeb2f2fa>@@AEAV<lambda_ffc046909424fd52df0ac47e64813305>@@$$QEAV<lambda_01a7098693036236037e7cdb9bca3d73>@@@Z@4HA 0000000140035fae f   libucrt:wsetlocale.obj
 0001:00034fae       ?fin$0@?0???$?RV<lambda_efdfa57d1f175319df784efa44bb7b81>@@AEAV<lambda_5f0a4c1567f8adc6734073e5d1e1b35c>@@V<lambda_2e8a7d3640ea6ccb4c2413664c2db6fd>@@@?$__crt_seh_guarded_call@X@@QEAAX$$QEAV<lambda_efdfa57d1f175319df784efa44bb7b81>@@AEAV<lambda_5f0a4c1567f8adc6734073e5d1e1b35c>@@$$QEAV<lambda_2e8a7d3640ea6ccb4c2413664c2db6fd>@@@Z@4HA 0000000140035fae f   libucrt:mbctype.obj
 0001:00034fae       ?fin$0@?0???$?RV<lambda_450d765d439847d4c735a33c368b5fc0>@@AEAV<lambda_44731a7d0e6d81c3e6aa82d741081786>@@V<lambda_601a2a7da3b7a96e9554ac7215c4b07c>@@@?$__crt_seh_guarded_call@P6AXH@Z@@QEAAP6AXH@Z$$QEAV<lambda_450d765d439847d4c735a33c368b5fc0>@@AEAV<lambda_44731a7d0e6d81c3e6aa82d741081786>@@$$QEAV<lambda_601a2a7da3b7a96e9554ac7215c4b07c>@@@Z@4HA 0000000140035fae f   libucrt:signal.obj
 0001:00034fae       ?fin$0@?0???$?RV<lambda_d80eeec6fff315bfe5c115232f3240e3>@@AEAV<lambda_6e4b09c48022b2350581041d5f6b0c4c>@@V<lambda_2358e3775559c9db80273638284d5e45>@@@?$__crt_seh_guarded_call@X@@QEAAX$$QEAV<lambda_d80eeec6fff315bfe5c115232f3240e3>@@AEAV<lambda_6e4b09c48022b2350581041d5f6b0c4c>@@$$QEAV<lambda_2358e3775559c9db80273638284d5e45>@@@Z@4HA 0000000140035fae f   libucrt:exit.obj
 0001:00034fae       ?fin$0@?0???$?RV<lambda_638799b9deba96c50f710eeac98168cd>@@AEAV<lambda_22ebabd17bc4fa466a2aca6d8deb888d>@@V<lambda_a6f7d7db0129f75315ebf26d50c089f1>@@@?$__crt_seh_guarded_call@H@@QEAAH$$QEAV<lambda_638799b9deba96c50f710eeac98168cd>@@AEAV<lambda_22ebabd17bc4fa466a2aca6d8deb888d>@@$$QEAV<lambda_a6f7d7db0129f75315ebf26d50c089f1>@@@Z@4HA 0000000140035fae f   libucrt:onexit.obj
 0001:00034fae       ?fin$0@?0???$?RV<lambda_7777bce6b2f8c936911f934f8298dc43>@@AEAV<lambda_f03950bc5685219e0bcd2087efbe011e>@@V<lambda_3883c3dff614d5e0c5f61bb1ac94921c>@@@?$__crt_seh_guarded_call@H@@QEAAH$$QEAV<lambda_7777bce6b2f8c936911f934f8298dc43>@@AEAV<lambda_f03950bc5685219e0bcd2087efbe011e>@@$$QEAV<lambda_3883c3dff614d5e0c5f61bb1ac94921c>@@@Z@4HA 0000000140035fae f   libucrt:onexit.obj
 0001:00034fc8       fclose$fin$0               0000000140035fc8 f   libucrt:fclose.obj
 0001:00034fc8       ?fin$0@?0??common_fseek@@YAHV__crt_stdio_stream@@_JH@Z@4HA 0000000140035fc8 f   libucrt:fseek.obj
 0001:00034fc8       ?fin$0@?0???$common_ftell@_J@@YA_JV__crt_stdio_stream@@@Z@4HA 0000000140035fc8 f   libucrt:ftell.obj
 0001:00034fe0       ?fin$0@?0???$?RV<lambda_842d9ff0dc9ef11c61343bbaebe7f885>@@AEAV<lambda_c5860995281e5c4ce005b3de8f5874ee>@@V<lambda_d90129c13df834fdcbf8d2b88dafcf2d>@@@?$__crt_seh_guarded_call@X@@QEAAX$$QEAV<lambda_842d9ff0dc9ef11c61343bbaebe7f885>@@AEAV<lambda_c5860995281e5c4ce005b3de8f5874ee>@@$$QEAV<lambda_d90129c13df834fdcbf8d2b88dafcf2d>@@@Z@4HA 0000000140035fe0 f   libucrt:fflush.obj
 0001:00034fe0       ?fin$0@?0???$?RV<lambda_c376a267cfb53b6959b3b692ec76b120>@@AEAV<lambda_9a32fed5bf61b6b509b2d3f6003082a1>@@V<lambda_572fbb9fa0ab338edf41edfd4b5fcc8d>@@@?$__crt_seh_guarded_call@H@@QEAAH$$QEAV<lambda_c376a267cfb53b6959b3b692ec76b120>@@AEAV<lambda_9a32fed5bf61b6b509b2d3f6003082a1>@@$$QEAV<lambda_572fbb9fa0ab338edf41edfd4b5fcc8d>@@@Z@4HA 0000000140035fe0 f   libucrt:fflush.obj
 0001:00034fe0       ?fin$0@?0???$?RV<lambda_2831f20263db5b546e098b45503eb778>@@AEAV<lambda_5856287d7ecd2be6c9197bb4007c3f6e>@@V<lambda_0838d7e100fbcbd261b69cfea6abb102>@@@?$__crt_seh_guarded_call@_K@@QEAA_K$$QEAV<lambda_2831f20263db5b546e098b45503eb778>@@AEAV<lambda_5856287d7ecd2be6c9197bb4007c3f6e>@@$$QEAV<lambda_0838d7e100fbcbd261b69cfea6abb102>@@@Z@4HA 0000000140035fe0 f   libucrt:fwrite.obj
 0001:00034fe0       ?fin$0@?0???$?RV<lambda_c8e61daa512c69656564d9dbd35486e8>@@AEAV<lambda_b4f66040be5f354a654fb75160c27bfc>@@V<lambda_2ca749746f96040ea1ff4296b14379df>@@@?$__crt_seh_guarded_call@H@@QEAAH$$QEAV<lambda_c8e61daa512c69656564d9dbd35486e8>@@AEAV<lambda_b4f66040be5f354a654fb75160c27bfc>@@$$QEAV<lambda_2ca749746f96040ea1ff4296b14379df>@@@Z@4HA 0000000140035fe0 f   libucrt:setvbuf.obj
 0001:00034ffb       ?fin$0@?0???$?RV<lambda_886d6c58226a84441f68b9f2b8217b83>@@AEAV<lambda_ab61a845afdef5b7c387490eaf3616ee>@@V<lambda_f7f22ab5edc0698d5f6905b0d3f44752>@@@?$__crt_seh_guarded_call@X@@QEAAX$$QEAV<lambda_886d6c58226a84441f68b9f2b8217b83>@@AEAV<lambda_ab61a845afdef5b7c387490eaf3616ee>@@$$QEAV<lambda_f7f22ab5edc0698d5f6905b0d3f44752>@@@Z@4HA 0000000140035ffb f   libucrt:fflush.obj
 0001:00035018       fgetc$fin$0                0000000140036018 f   libucrt:fgetc.obj
 0001:00035032       fputc$fin$0                0000000140036032 f   libucrt:fputc.obj
 0001:0003504c       fread_s$fin$0              000000014003604c f   libucrt:fread.obj
 0001:00035064       ungetc$fin$0               0000000140036064 f   libucrt:ungetc.obj
 0001:0003507c       _query_new_handler$fin$0   000000014003607c f   libucrt:new_handler.obj
 0001:00035092       ?filt$0@?0???R<lambda_6e4b09c48022b2350581041d5f6b0c4c>@@QEBA@XZ@4HA 0000000140036092 f   libucrt:exit.obj
 0001:000350ad       ?fin$0@?0???$?RV<lambda_410d79af7f07d98d83a3f525b3859a53>@@AEAV<lambda_3e16ef9562a7dcce91392c22ab16ea36>@@V<lambda_38119f0e861e05405d8a144b9b982f0a>@@@?$__crt_seh_guarded_call@X@@QEAAX$$QEAV<lambda_410d79af7f07d98d83a3f525b3859a53>@@AEAV<lambda_3e16ef9562a7dcce91392c22ab16ea36>@@$$QEAV<lambda_38119f0e861e05405d8a144b9b982f0a>@@@Z@4HA 00000001400360ad f   libucrt:wsetlocale.obj
 0001:000350c7       ?fin$0@?0???$?RV<lambda_e9338f07fe435327d97d4ef86149e64d>@@AEAV<lambda_2a444430fde8c29194d880d93eed5e8f>@@AEAV<lambda_02db5278e8aef8b5e4976579d73f5304>@@@?$__crt_seh_guarded_call@X@@QEAAX$$QEAV<lambda_e9338f07fe435327d97d4ef86149e64d>@@AEAV<lambda_2a444430fde8c29194d880d93eed5e8f>@@AEAV<lambda_02db5278e8aef8b5e4976579d73f5304>@@@Z@4HA 00000001400360c7 f   libucrt:wsetlocale.obj
 0001:000350e8       _ctrlfp$filt$0             00000001400360e8 f   libucrt:fpctrl.obj
 0001:000350e8       common_control87$filt$0    00000001400360e8 f   libucrt:ieee.obj
 0001:00035114       __acrt_initialize_lowio$fin$0 0000000140036114 f   libucrt:ioinit.obj
 0001:00035114       __acrt_lowio_ensure_fh_exists$fin$0 0000000140036114 f   libucrt:osfinfo.obj
 0001:0003512d       ?dtor$0@?0??_wcstombs_l_helper@@YA_KPEADPEB_W_KPEAU__crt_locale_pointers@@@Z@4HA 000000014003612d f   libucrt:wcstombs.obj
 0001:00035139       _fcloseall$fin$0           0000000140036139 f   libucrt:closeall.obj
 0001:00035152       ?fin$0@?0???$?RV<lambda_751a882b2c74d4b022dec766aa51a29a>@@AEAV<lambda_628dfdc04ba53c8bfc02c9951375f3f5>@@V<lambda_f6c7be5f7998530c34de24c7437d6b54>@@@?$__crt_seh_guarded_call@H@@QEAAH$$QEAV<lambda_751a882b2c74d4b022dec766aa51a29a>@@AEAV<lambda_628dfdc04ba53c8bfc02c9951375f3f5>@@$$QEAV<lambda_f6c7be5f7998530c34de24c7437d6b54>@@@Z@4HA 0000000140036152 f   libucrt:close.obj
 0001:00035152       ?fin$0@?0???$?RV<lambda_a37b2b86f63e897a80ea819b0eb08c01>@@AEAV<lambda_38ce7e780aa69e748d6df282ebc68efe>@@V<lambda_99fb1378e971ab6e7edea83e3a7a83a2>@@@?$__crt_seh_guarded_call@H@@QEAAH$$QEAV<lambda_a37b2b86f63e897a80ea819b0eb08c01>@@AEAV<lambda_38ce7e780aa69e748d6df282ebc68efe>@@$$QEAV<lambda_99fb1378e971ab6e7edea83e3a7a83a2>@@@Z@4HA 0000000140036152 f   libucrt:commit.obj
 0001:0003516c       ?fin$0@?0???$common_lseek@_J@@YA_JH_JH@Z@4HA 000000014003616c f   libucrt:lseek.obj
 0001:0003516c       _write$fin$0               000000014003616c f   libucrt:write.obj
 0001:00035183       _read$fin$0                0000000140036183 f   libucrt:read.obj
 0001:0003519a       raise$fin$0                000000014003619a f   libucrt:signal.obj
 0001:000351bb       ?fin$0@?0??update_thread_multibyte_data_internal@@YAPEAU__crt_multibyte_data@@QEAU__acrt_ptd@@QEAPEAU1@@Z@4HA 00000001400361bb f   libucrt:mbctype.obj
 0001:000351d4       __acrt_update_thread_locale_data$fin$0 00000001400361d4 f   libucrt:locale_refcounting.obj
 0001:000351f0       _IsNonwritableInCurrentImage$filt$0 00000001400361f0 f   LIBCMT:pesect.obj
 0001:00035210       ??__Finitlocks@std@@YAXXZ  0000000140036210 f   libcpmt:xlock.obj
 0001:0003521c       ??__F_Fac_tidy_reg@std@@YAXXZ 000000014003621c f   libcpmt:locale0.obj
 0001:00035278       ??__Fclassic_locale@std@@YAXXZ 0000000140036278 f   libcpmt:locale0.obj
 0001:000352b8       ??__Fcin@std@@YAXXZ        00000001400362b8 f   libcpmt:cin.obj
 0001:0003530c       ??__Ffin@std@@YAXXZ        000000014003630c f   libcpmt:cin.obj
 0001:00035318       ??__Finitlocks@@YAXXZ      0000000140036318 f   libcpmt:cin.obj
 0001:00035324       ??__Fcout@std@@YAXXZ       0000000140036324 f   libcpmt:cout.obj
 0001:00035378       ??__Ffout@std@@YAXXZ       0000000140036378 f   libcpmt:cout.obj
 0001:00035384       ??__Finitlocks@@YAXXZ      0000000140036384 f   libcpmt:cout.obj
 0001:00035390       ??__Finit_atexit@@YAXXZ    0000000140036390 f   libcpmt:iosptrs.obj
 0001:000353d0       ??__Finitlocks@std@@YAXXZ  00000001400363d0 f   libcpmt:iosptrs.obj
 0002:000002c8       ?pre_cpp_initializer@@3P6AXXZEA 00000001400372c8     LIBCMT:exe_main.obj
 0002:000002d0       ?initlocks$initializer$@std@@3P6AXXZEA 00000001400372d0     libcpmt:xlock.obj
 0002:000002d8       ?initlocks$initializer$@@3P6AXXZEA 00000001400372d8     libcpmt:cin.obj
 0002:000002e0       ?fin$initializer$@std@@3P6AXXZEA 00000001400372e0     libcpmt:cin.obj
 0002:000002e8       ?cin$initializer$@std@@3P6AXXZEA 00000001400372e8     libcpmt:cin.obj
 0002:000002f0       ?init_cin$initializer$@std@@3P6AXXZEA 00000001400372f0     libcpmt:cin.obj
 0002:000002f8       ?initlocks$initializer$@@3P6AXXZEA 00000001400372f8     libcpmt:cout.obj
 0002:00000300       ?fout$initializer$@std@@3P6AXXZEA 0000000140037300     libcpmt:cout.obj
 0002:00000308       ?cout$initializer$@std@@3P6AXXZEA 0000000140037308     libcpmt:cout.obj
 0002:00000310       ?init_cout$initializer$@std@@3P6AXXZEA 0000000140037310     libcpmt:cout.obj
 0002:00000318       ?initlocks$initializer$@std@@3P6AXXZEA 0000000140037318     libcpmt:iosptrs.obj
 0002:00000320       ?init_atexit$initializer$@@3P6AXXZEA 0000000140037320     libcpmt:iosptrs.obj
 0002:00000328       ?_Fac_tidy_reg$initializer$@std@@3P6AXXZEA 0000000140037328     libcpmt:locale0.obj
 0002:00000330       ?classic_locale$initializer$@std@@3P6AXXZEA 0000000140037330     libcpmt:locale0.obj
 0002:00000338       ??id$initializer$@?$num_put@DV?$ostreambuf_iterator@DU?$char_traits@D@std@@@std@@@std@@2P6AXXZEA@@3P6AXXZEA 0000000140037338     main.obj
 0002:00000340       ??id$initializer$@?$numpunct@D@std@@2P6AXXZEA@@3P6AXXZEA 0000000140037340     main.obj
 0002:00000348       ??id$initializer$@?$num_get@DV?$istreambuf_iterator@DU?$char_traits@D@std@@@std@@@std@@2P6AXXZEA@@3P6AXXZEA 0000000140037348     main.obj
 0002:00000360       ?pre_c_initializer@@3P6AHXZEA 0000000140037360     LIBCMT:exe_main.obj
 0002:00000368       ?post_pgo_initializer@@3P6AHXZEA 0000000140037368     LIBCMT:exe_main.obj
 0002:000003e0       $SG33461                   00000001400373e0     main.obj
 0002:000003fb       ?_Fake_alloc@std@@3U_Fake_allocator@1@B 00000001400373fb     main.obj
 0002:00000400       $SG33463                   0000000140037400     main.obj
 0002:00000408       $SG33464                   0000000140037408     main.obj
 0002:00000418       $SG33465                   0000000140037418     main.obj
 0002:00000428       $SG33467                   0000000140037428     main.obj
 0002:00000430       $SG33468                   0000000140037430     main.obj
 0002:00000440       $SG33469                   0000000140037440     main.obj
 0002:00000450       $SG33471                   0000000140037450     main.obj
 0002:00000460       $SG33472                   0000000140037460     main.obj
 0002:00000470       $SG33473                   0000000140037470     main.obj
 0002:00000940       ?_Win_errtab@?A0xdad2e229@@3QBU_Win_errtab_t@1@B 0000000140037940     libcpmt:syserror.obj
 0002:00000bc0       ?_Sys_errtab@?A0xdad2e229@@3QBU_Sys_errtab_t@1@B 0000000140037bc0     libcpmt:syserror.obj
 0002:00001788       digits                     0000000140038788     libcpmt:xstoul.obj
 0002:000017b0       ndigs                      00000001400387b0     libcpmt:xstoul.obj
 0002:000017d8       digits                     00000001400387d8     libcpmt:xstoull.obj
 0002:00001800       ndigs                      0000000140038800     libcpmt:xstoull.obj
 0002:000019d0       ?_Whitespace_bitmap@?A0xfa98056f@@3U_Whitespace_bitmap_t@1@B 00000001400389d0     libcpmt:syserror_import_lib.obj
 0002:00001b30       GS_ExceptionPointers       0000000140038b30     LIBCMT:gs_report.obj
 0002:00001b60       ?ExceptionTemplate@?1??UnwindNestedFrames@__FrameHandler4@@SAXPEA_KPEAUEHExceptionRecord@@PEAU_CONTEXT@@0PEAXPEAUFuncInfo4@FH4@@HHPEAUHandlerType4@6@PEAU_xDISPATCHER_CONTEXT@@E@Z@4U_EXCEPTION_RECORD@@B 0000000140038b60     libvcruntime:risctrnsctrl.obj
 0002:00001c00       ?ExceptionTemplate@?1??UnwindNestedFrames@__FrameHandler3@@SAXPEA_KPEAUEHExceptionRecord@@PEAU_CONTEXT@@0PEAXPEBU_s_FuncInfo@@HHPEBU_s_HandlerType@@PEAU_xDISPATCHER_CONTEXT@@E@Z@4U_EXCEPTION_RECORD@@B 0000000140038c00     libvcruntime:risctrnsctrl.obj
 0002:00001cd0       ?tokenTable@@3QBUStringLiteral@@B 0000000140038cd0     libvcruntime:undname.obj
 0002:00001de0       ?nameTable@@3QBUStringLiteral@@B 0000000140038de0     libvcruntime:undname.obj
 0002:00002310       ?rttiTable@@3QBUStringLiteral@@B 0000000140039310     libvcruntime:undname.obj
 0002:00002360       ?IndirectionName@@3QBUStringLiteral@@B 0000000140039360     libvcruntime:undname.obj
 0002:000023c0       ?PrefixName@@3QBUStringLiteral@@B 00000001400393c0     libvcruntime:undname.obj
 0002:00002aa0       ?module_names@?A0x14174aea@@3QBQEB_WB 0000000140039aa0     libvcruntime:winapi_downlevel.obj
 0002:00002b60       ?candidate_modules@?1??try_get_FlsAlloc@@YAP6AKP6AXPEAX@Z@ZXZ@4QBW4module_id@?A0x14174aea@@B 0000000140039b60     libvcruntime:winapi_downlevel.obj
 0002:00002b78       ?candidate_modules@?1??try_get_FlsFree@@YAP6AHK@ZXZ@4QBW4module_id@?A0x14174aea@@B 0000000140039b78     libvcruntime:winapi_downlevel.obj
 0002:00002b88       ?candidate_modules@?1??try_get_FlsGetValue@@YAP6APEAXK@ZXZ@4QBW4module_id@?A0x14174aea@@B 0000000140039b88     libvcruntime:winapi_downlevel.obj
 0002:00002ba0       ?candidate_modules@?1??try_get_FlsSetValue@@YAP6AHKPEAX@ZXZ@4QBW4module_id@?A0x14174aea@@B 0000000140039ba0     libvcruntime:winapi_downlevel.obj
 0002:00002bb8       ?candidate_modules@?1??try_get_InitializeCriticalSectionEx@@YAP6AHPEAU_RTL_CRITICAL_SECTION@@KK@ZXZ@4QBW4module_id@?A0x14174aea@@B 0000000140039bb8     libvcruntime:winapi_downlevel.obj
 0002:00002be0       __flag_x_one_y_snan        0000000140039be0     libucrt:pow.obj
 0002:00002be4       __flag_x_zero_z_inf        0000000140039be4     libucrt:pow.obj
 0002:00002be8       __flag_x_nan               0000000140039be8     libucrt:pow.obj
 0002:00002bec       __flag_y_nan               0000000140039bec     libucrt:pow.obj
 0002:00002bf0       __flag_x_nan_y_nan         0000000140039bf0     libucrt:pow.obj
 0002:00002bf4       __flag_x_neg_y_notint      0000000140039bf4     libucrt:pow.obj
 0002:00002bf8       __flag_z_zero              0000000140039bf8     libucrt:pow.obj
 0002:00002bfc       __flag_z_denormal          0000000140039bfc     libucrt:pow.obj
 0002:00002c00       __flag_z_inf               0000000140039c00     libucrt:pow.obj
 0002:00002c10       __ay_max_bound             0000000140039c10     libucrt:pow.obj
 0002:00002c18       __ay_min_bound             0000000140039c18     libucrt:pow.obj
 0002:00002c20       __sign_mask                0000000140039c20     libucrt:pow.obj
 0002:00002c28       __sign_and_exp_mask        0000000140039c28     libucrt:pow.obj
 0002:00002c30       __exp_mask                 0000000140039c30     libucrt:pow.obj
 0002:00002c38       __neg_inf                  0000000140039c38     libucrt:pow.obj
 0002:00002c40       __pos_inf                  0000000140039c40     libucrt:pow.obj
 0002:00002c48       __pos_one                  0000000140039c48     libucrt:pow.obj
 0002:00002c50       __pos_zero                 0000000140039c50     libucrt:pow.obj
 0002:00002c58       __exp_mant_mask            0000000140039c58     libucrt:pow.obj
 0002:00002c60       __mant_mask                0000000140039c60     libucrt:pow.obj
 0002:00002c68       __ind_pattern              0000000140039c68     libucrt:pow.obj
 0002:00002c70       __neg_qnan                 0000000140039c70     libucrt:pow.obj
 0002:00002c78       __qnan                     0000000140039c78     libucrt:pow.obj
 0002:00002c80       __qnan_set                 0000000140039c80     libucrt:pow.obj
 0002:00002c88       __neg_one                  0000000140039c88     libucrt:pow.obj
 0002:00002c90       __neg_zero                 0000000140039c90     libucrt:pow.obj
 0002:00002c98       __exp_shift                0000000140039c98     libucrt:pow.obj
 0002:00002ca0       __exp_bias                 0000000140039ca0     libucrt:pow.obj
 0002:00002ca8       __exp_bias_m1              0000000140039ca8     libucrt:pow.obj
 0002:00002cb0       __yexp_53                  0000000140039cb0     libucrt:pow.obj
 0002:00002cb8       __mant_full                0000000140039cb8     libucrt:pow.obj
 0002:00002cc0       __1_before_mant            0000000140039cc0     libucrt:pow.obj
 0002:00002cc8       __mask_mant_all8           0000000140039cc8     libucrt:pow.obj
 0002:00002cd0       __mask_mant9               0000000140039cd0     libucrt:pow.obj
 0002:00002ce0       __real_fffffffff8000000    0000000140039ce0     libucrt:pow.obj
 0002:00002cf0       __mask_8000000000000000    0000000140039cf0     libucrt:pow.obj
 0002:00002d00       __real_4090040000000000    0000000140039d00     libucrt:pow.obj
 0002:00002d10       __real_C090C80000000000    0000000140039d10     libucrt:pow.obj
 0002:00002d20       __real_ninf                0000000140039d20     libucrt:pow.obj
 0002:00002d30       __real_inf                 0000000140039d30     libucrt:pow.obj
 0002:00002d40       __real_nan                 0000000140039d40     libucrt:pow.obj
 0002:00002d50       __real_mant                0000000140039d50     libucrt:pow.obj
 0002:00002d60       __mask_1023                0000000140039d60     libucrt:pow.obj
 0002:00002d70       __mask_001                 0000000140039d70     libucrt:pow.obj
 0002:00002d80       __real_log2_lead           0000000140039d80     libucrt:pow.obj
 0002:00002d90       __real_log2_tail           0000000140039d90     libucrt:pow.obj
 0002:00002da0       __real_two                 0000000140039da0     libucrt:pow.obj
 0002:00002db0       __real_one                 0000000140039db0     libucrt:pow.obj
 0002:00002dc0       __real_half                0000000140039dc0     libucrt:pow.obj
 0002:00002dd0       __mask_100                 0000000140039dd0     libucrt:pow.obj
 0002:00002de0       __real_1_over_2            0000000140039de0     libucrt:pow.obj
 0002:00002df0       __real_1_over_3            0000000140039df0     libucrt:pow.obj
 0002:00002e00       __real_1_over_4            0000000140039e00     libucrt:pow.obj
 0002:00002e10       __real_1_over_5            0000000140039e10     libucrt:pow.obj
 0002:00002e20       __real_1_over_6            0000000140039e20     libucrt:pow.obj
 0002:00002e30       __real_1_over_7            0000000140039e30     libucrt:pow.obj
 0002:00002e40       __mask_1023_f              0000000140039e40     libucrt:pow.obj
 0002:00002e50       __mask_2045                0000000140039e50     libucrt:pow.obj
 0002:00002e60       __real_threshold           0000000140039e60     libucrt:pow.obj
 0002:00002e70       __real_notsign             0000000140039e70     libucrt:pow.obj
 0002:00002e80       __log_F_inv_head           0000000140039e80     libucrt:pow.obj
 0002:00003690       __log_F_inv_tail           000000014003a690     libucrt:pow.obj
 0002:00003ea0       __denormal_threshold       000000014003aea0     libucrt:pow.obj
 0002:00003eb0       __enable_almost_inf        000000014003aeb0     libucrt:pow.obj
 0002:00003ec0       __real_zero                000000014003aec0     libucrt:pow.obj
 0002:00003ed0       __real_smallest_denormal   000000014003aed0     libucrt:pow.obj
 0002:00003ee0       __denormal_tiny_threshold  000000014003aee0     libucrt:pow.obj
 0002:00003ef0       __real_p65536              000000014003aef0     libucrt:pow.obj
 0002:00003f00       __real_m68800              000000014003af00     libucrt:pow.obj
 0002:00003f10       __real_64_by_log2          000000014003af10     libucrt:pow.obj
 0002:00003f20       __real_log2_by_64_head     000000014003af20     libucrt:pow.obj
 0002:00003f30       __real_log2_by_64_tail     000000014003af30     libucrt:pow.obj
 0002:00003f40       __real_1_by_720            000000014003af40     libucrt:pow.obj
 0002:00003f50       __real_1_by_120            000000014003af50     libucrt:pow.obj
 0002:00003f60       __real_1_by_24             000000014003af60     libucrt:pow.obj
 0002:00003f70       __real_1_by_6              000000014003af70     libucrt:pow.obj
 0002:00003f80       __real_1_by_2              000000014003af80     libucrt:pow.obj
 0002:00003fb0       __flag_x_one_y_snan        000000014003afb0     libucrt:powf.obj
 0002:00003fb4       __flag_x_zero_z_inf        000000014003afb4     libucrt:powf.obj
 0002:00003fb8       __flag_x_nan               000000014003afb8     libucrt:powf.obj
 0002:00003fbc       __flag_y_nan               000000014003afbc     libucrt:powf.obj
 0002:00003fc0       __flag_x_nan_y_nan         000000014003afc0     libucrt:powf.obj
 0002:00003fc4       __flag_x_neg_y_notint      000000014003afc4     libucrt:powf.obj
 0002:00003fc8       __flag_z_zero              000000014003afc8     libucrt:powf.obj
 0002:00003fcc       __flag_z_denormal          000000014003afcc     libucrt:powf.obj
 0002:00003fd0       __flag_z_inf               000000014003afd0     libucrt:powf.obj
 0002:00003fd4       L__1_by_3                  000000014003afd4     libucrt:powf.obj
 0002:00003fdc       L__log2                    000000014003afdc     libucrt:powf.obj
 0002:00003fe4       L__max_exp_arg             000000014003afe4     libucrt:powf.obj
 0002:00003fec       L__min_exp_arg             000000014003afec     libucrt:powf.obj
 0002:00003ff4       L__real_log2_by_64         000000014003aff4     libucrt:powf.obj
 0002:00003ffc       L__1_by_6                  000000014003affc     libucrt:powf.obj
 0002:00004004       L__real_threshold          000000014003b004     libucrt:powf.obj
 0002:0000400c       L__real_one                000000014003b00c     libucrt:powf.obj
 0002:00004014       L__real_two                000000014003b014     libucrt:powf.obj
 0002:0000401c       L__neg_zero                000000014003b01c     libucrt:powf.obj
 0002:00004030       L__real_ca42               000000014003b030     libucrt:powf.obj
 0002:00004038       L__real_ca4                000000014003b038     libucrt:powf.obj
 0002:00004040       L__real_ca31               000000014003b040     libucrt:powf.obj
 0002:00004048       L__real_ca3                000000014003b048     libucrt:powf.obj
 0002:00004050       L__clear_sign              000000014003b050     libucrt:powf.obj
 0002:00004060       L__real_64_by_log2         000000014003b060     libucrt:powf.obj
 0002:00004070       L__1_by_2                  000000014003b070     libucrt:powf.obj
 0002:00004080       L__1023                    000000014003b080     libucrt:powf.obj
 0002:00004090       L__xexp_bits_xmantissa_bits 000000014003b090     libucrt:powf.obj
 0002:000048b0       ?errtable@@3QBUerrentry@?A0x31fdb9ec@@B 000000014003b8b0     libucrt:errno.obj
 0002:000062c0       _first_127char             000000014003d2c0     libucrt:wsetlocale.obj
 0002:00006480       __acrt_initializers        000000014003d480     libucrt:initialization.obj
 0002:000079b0       ?_names@?1??_get_fname@@9@9 000000014003e9b0     libucrt:fpexcept.obj
 0002:00008cf0       ?strings@?1??fp_format_nan_or_infinity@@YAHW4__acrt_fp_class@@_NPEAD_K1@Z@4QAY03QEBDA 000000014003fcf0     libucrt:cvt.obj
 0002:00008dd0       ?module_names@?A0x391cf84c@@3QBQEB_WB 000000014003fdd0     libucrt:winapi_thunks.obj
 0002:000092d8       ?candidate_modules@?1??try_get_AreFileApisANSI@@YAP6AHXZXZ@4QBW4module_id@?A0x391cf84c@@B 00000001400402d8     libucrt:winapi_thunks.obj
 0002:000092f0       ?candidate_modules@?1??try_get_CompareStringEx@@YAP6AHPEB_WK0H0HPEAU_nlsversioninfo@@PEAX_J@ZXZ@4QBW4module_id@?A0x391cf84c@@B 00000001400402f0     libucrt:winapi_thunks.obj
 0002:00009308       ?candidate_modules@?1??try_get_EnumSystemLocalesEx@@YAP6AHP6AHPEA_WK_J@ZK1PEAX@ZXZ@4QBW4module_id@?A0x391cf84c@@B 0000000140040308     libucrt:winapi_thunks.obj
 0002:00009328       ?candidate_modules@?1??try_get_FlsAlloc@@YAP6AKP6AXPEAX@Z@ZXZ@4QBW4module_id@?A0x391cf84c@@B 0000000140040328     libucrt:winapi_thunks.obj
 0002:00009330       ?candidate_modules@?1??try_get_FlsFree@@YAP6AHK@ZXZ@4QBW4module_id@?A0x391cf84c@@B 0000000140040330     libucrt:winapi_thunks.obj
 0002:00009338       ?candidate_modules@?1??try_get_FlsGetValue@@YAP6APEAXK@ZXZ@4QBW4module_id@?A0x391cf84c@@B 0000000140040338     libucrt:winapi_thunks.obj
 0002:00009340       ?candidate_modules@?1??try_get_FlsSetValue@@YAP6AHKPEAX@ZXZ@4QBW4module_id@?A0x391cf84c@@B 0000000140040340     libucrt:winapi_thunks.obj
 0002:00009348       ?candidate_modules@?1??try_get_GetDateFormatEx@@YAP6AHPEB_WKPEBU_SYSTEMTIME@@0PEA_WH0@ZXZ@4QBW4module_id@?A0x391cf84c@@B 0000000140040348     libucrt:winapi_thunks.obj
 0002:00009360       ?candidate_modules@?1??try_get_GetLocaleInfoEx@@YAP6AHPEB_WKPEA_WH@ZXZ@4QBW4module_id@?A0x391cf84c@@B 0000000140040360     libucrt:winapi_thunks.obj
 0002:00009378       ?candidate_modules@?1??try_get_GetTimeFormatEx@@YAP6AHPEB_WKPEBU_SYSTEMTIME@@0PEA_WH@ZXZ@4QBW4module_id@?A0x391cf84c@@B 0000000140040378     libucrt:winapi_thunks.obj
 0002:00009390       ?candidate_modules@?1??try_get_GetUserDefaultLocaleName@@YAP6AHPEA_WH@ZXZ@4QBW4module_id@?A0x391cf84c@@B 0000000140040390     libucrt:winapi_thunks.obj
 0002:000093b8       ?candidate_modules@?1??try_get_InitializeCriticalSectionEx@@YAP6AHPEAU_RTL_CRITICAL_SECTION@@KK@ZXZ@4QBW4module_id@?A0x391cf84c@@B 00000001400403b8     libucrt:winapi_thunks.obj
 0002:000093c0       ?candidate_modules@?1??try_get_IsValidLocaleName@@YAP6AHPEB_W@ZXZ@4QBW4module_id@?A0x391cf84c@@B 00000001400403c0     libucrt:winapi_thunks.obj
 0002:000093e0       ?candidate_modules@?1??try_get_LCMapStringEx@@YAP6AHPEB_WK0HPEA_WHPEAU_nlsversioninfo@@PEAX_J@ZXZ@4QBW4module_id@?A0x391cf84c@@B 00000001400403e0     libucrt:winapi_thunks.obj
 0002:000093f8       ?candidate_modules@?1??try_get_LCIDToLocaleName@@YAP6AHKPEA_WHK@ZXZ@4QBW4module_id@?A0x391cf84c@@B 00000001400403f8     libucrt:winapi_thunks.obj
 0002:00009418       ?candidate_modules@?1??try_get_LocaleNameToLCID@@YAP6AKPEB_WK@ZXZ@4QBW4module_id@?A0x391cf84c@@B 0000000140040418     libucrt:winapi_thunks.obj
 0002:00009434       ?candidate_modules@?1??try_get_AppPolicyGetProcessTerminationMethod@@YAP6AJPEAXPEAW4AppPolicyProcessTerminationMethod@@@ZXZ@4QBW4module_id@?A0x391cf84c@@B 0000000140040434     libucrt:winapi_thunks.obj
 0002:00009460       $cppxdata$?_wcstombs_l_helper@@YA_KPEADPEB_W_KPEAU__crt_locale_pointers@@@Z 0000000140040460     libucrt:wcstombs.obj
 0002:00009488       ?_mb_locale_names@@3QBQEB_WB 0000000140040488     libucrt:mbctype.obj
 0002:0000a4e0       __real@433fffffffffffff    00000001400414e0     libucrt:fpsr.obj
 0002:0000a4e8       __real@c33fffffffffffff    00000001400414e8     libucrt:fpsr.obj
 0002:0000a520       ?LcidToLocaleNameTable@?A0x881e4c05@@3QBULcidToLocaleName@1@B 0000000140041520     libucrt:lcidtoname_downlevel.obj
 0002:0000bf70       ?LocaleNameToIndexTable@?A0x881e4c05@@3QBULocaleNameIndex@1@B 0000000140042f70     libucrt:lcidtoname_downlevel.obj
 0002:0000d810       __real_ninf                0000000140044810     libucrt:log10.obj
 0002:0000d820       __real_inf                 0000000140044820     libucrt:log10.obj
 0002:0000d830       __real_neg_qnan            0000000140044830     libucrt:log10.obj
 0002:0000d840       __real_qnanbit             0000000140044840     libucrt:log10.obj
 0002:0000d850       __int_1023                 0000000140044850     libucrt:log10.obj
 0002:0000d860       __mask_001                 0000000140044860     libucrt:log10.obj
 0002:0000d870       __mask_mant                0000000140044870     libucrt:log10.obj
 0002:0000d880       __mask_mant_top8           0000000140044880     libucrt:log10.obj
 0002:0000d890       __mask_mant9               0000000140044890     libucrt:log10.obj
 0002:0000d8a0       __real_log10_e             00000001400448a0     libucrt:log10.obj
 0002:0000d8b0       __real_log10_e_lead        00000001400448b0     libucrt:log10.obj
 0002:0000d8c0       __real_log10_e_tail        00000001400448c0     libucrt:log10.obj
 0002:0000d8d0       __real_log10_2_lead        00000001400448d0     libucrt:log10.obj
 0002:0000d8e0       __real_log10_2_tail        00000001400448e0     libucrt:log10.obj
 0002:0000d8f0       __real_two                 00000001400448f0     libucrt:log10.obj
 0002:0000d900       __real_one                 0000000140044900     libucrt:log10.obj
 0002:0000d910       __real_half                0000000140044910     libucrt:log10.obj
 0002:0000d920       __mask_100                 0000000140044920     libucrt:log10.obj
 0002:0000d930       __real_1_over_512          0000000140044930     libucrt:log10.obj
 0002:0000d940       __real_1_over_2            0000000140044940     libucrt:log10.obj
 0002:0000d950       __real_1_over_3            0000000140044950     libucrt:log10.obj
 0002:0000d960       __real_1_over_4            0000000140044960     libucrt:log10.obj
 0002:0000d970       __real_1_over_5            0000000140044970     libucrt:log10.obj
 0002:0000d980       __real_1_over_6            0000000140044980     libucrt:log10.obj
 0002:0000d990       __real_neg_1023            0000000140044990     libucrt:log10.obj
 0002:0000d9a0       __mask_2045                00000001400449a0     libucrt:log10.obj
 0002:0000d9b0       __real_threshold           00000001400449b0     libucrt:log10.obj
 0002:0000d9c0       __real_near_one_lt         00000001400449c0     libucrt:log10.obj
 0002:0000d9d0       __real_near_one_gt         00000001400449d0     libucrt:log10.obj
 0002:0000d9e0       __real_min_norm            00000001400449e0     libucrt:log10.obj
 0002:0000d9f0       __real_notsign             00000001400449f0     libucrt:log10.obj
 0002:0000da00       __real_ca1                 0000000140044a00     libucrt:log10.obj
 0002:0000da10       __real_ca2                 0000000140044a10     libucrt:log10.obj
 0002:0000da20       __real_ca3                 0000000140044a20     libucrt:log10.obj
 0002:0000da30       __real_ca4                 0000000140044a30     libucrt:log10.obj
 0002:0000da40       __mask_lower               0000000140044a40     libucrt:log10.obj
 0002:0000da50       __flag_x_zero              0000000140044a50     libucrt:log10.obj
 0002:0000da54       __flag_x_neg               0000000140044a54     libucrt:log10.obj
 0002:0000da58       __flag_x_nan               0000000140044a58     libucrt:log10.obj
 0002:00010318       $unwind$??$?8DU?$char_traits@D@std@@@std@@YA_NAEBV?$istreambuf_iterator@DU?$char_traits@D@std@@@0@0@Z 0000000140047318     main.obj
 0002:00010318       $unwind$??$_Pocma@V?$allocator@D@std@@@std@@YAXAEAV?$allocator@D@0@0@Z 0000000140047318     main.obj
 0002:00010318       $unwind$??0bad_alloc@std@@AEAA@QEBD@Z 0000000140047318     main.obj
 0002:00010318       $unwind$??0bad_alloc@std@@QEAA@AEBV01@@Z 0000000140047318     main.obj
 0002:00010318       $unwind$??0bad_array_new_length@std@@QEAA@AEBV01@@Z 0000000140047318     main.obj
 0002:00010318       $unwind$??0bad_cast@std@@QEAA@AEBV01@@Z 0000000140047318     main.obj
 0002:00010318       $unwind$??0ctype_base@std@@QEAA@_K@Z 0000000140047318     main.obj
 0002:00010318       $unwind$??0facet@locale@std@@IEAA@_K@Z 0000000140047318     main.obj
 0002:00010318       $unwind$??0failure@ios_base@std@@QEAA@AEBV012@@Z 0000000140047318     main.obj
 0002:00010318       $unwind$??0locale@std@@QEAA@AEBV01@@Z 0000000140047318     main.obj
 0002:00010318       $unwind$??0runtime_error@std@@QEAA@AEBV01@@Z 0000000140047318     main.obj
 0002:00010318       $unwind$??0runtime_error@std@@QEAA@AEBV?$basic_string@DU?$char_traits@D@std@@V?$allocator@D@2@@1@@Z 0000000140047318     main.obj
 0002:00010318       $unwind$??0system_error@std@@QEAA@AEBV01@@Z 0000000140047318     main.obj
 0002:00010318       $unwind$??5?$basic_istream@DU?$char_traits@D@std@@@std@@QEAAAEAV01@AEAN@Z 0000000140047318     main.obj
 0002:00010318       $unwind$??A?$basic_string@DU?$char_traits@D@std@@V?$allocator@D@2@@std@@QEAAAEAD_K@Z 0000000140047318     main.obj
 0002:00010318       $unwind$??A?$basic_string@DU?$char_traits@D@std@@V?$allocator@D@2@@std@@QEBAAEBD_K@Z 0000000140047318     main.obj
 0002:00010318       $unwind$??Y?$basic_string@DU?$char_traits@D@std@@V?$allocator@D@2@@std@@QEAAAEAV01@AEBV01@@Z 0000000140047318     main.obj
 0002:00010318       $unwind$?_Calculate_growth@?$basic_string@DU?$char_traits@D@std@@V?$allocator@D@2@@std@@AEBA_K_K@Z 0000000140047318     main.obj
 0002:00010318       $unwind$?_Check_offset@?$_String_val@U?$_Simple_types@D@std@@@std@@QEBAX_K@Z 0000000140047318     main.obj
 0002:00010318       $unwind$?_Swap_proxy_and_iterators@?$basic_string@DU?$char_traits@D@std@@V?$allocator@D@2@@std@@AEAAXAEAV12@@Z 0000000140047318     main.obj
 0002:00010318       $unwind$?allocate@?$allocator@D@std@@QEAAPEAD_K@Z 0000000140047318     main.obj
 0002:00010318       $unwind$?append@?$basic_string@DU?$char_traits@D@std@@V?$allocator@D@2@@std@@QEAAAEAV12@AEBV12@@Z 0000000140047318     main.obj
 0002:00010318       $unwind$?append@?$basic_string@DU?$char_traits@D@std@@V?$allocator@D@2@@std@@QEAAAEAV12@QEBD@Z 0000000140047318     main.obj
 0002:00010318       $unwind$?assign@?$basic_string@DU?$char_traits@D@std@@V?$allocator@D@2@@std@@QEAAAEAV12@$$QEAV12@@Z 0000000140047318     main.obj
 0002:00010318       $unwind$ldexpf             0000000140047318     main.obj
 0002:00010318       $unwind$_local_unwind      0000000140047318     libvcruntime:jmpuwind.obj
 0002:00010320       $unwind$fabsl              0000000140047320     main.obj
 0002:00010328       $unwind$frexpl             0000000140047328     main.obj
 0002:00010330       $unwind$?_Stodx_v2@std@@YANPEBDPEAPEADHPEAH@Z 0000000140047330     main.obj
 0002:00010330       $unwind$_vsprintf_s_l      0000000140047330     main.obj
 0002:00010330       $unwind$sprintf_s          0000000140047330     main.obj
 0002:00010338       $unwind$??0exception@std@@QEAA@QEBD@Z 0000000140047338     main.obj
 0002:00010340       $unwind$??0exception@std@@QEAA@QEBDH@Z 0000000140047340     main.obj
 0002:00010348       $unwind$??0exception@std@@QEAA@AEBV01@@Z 0000000140047348     main.obj
 0002:00010350       $unwind$??$_Allocate@$0BA@U_Default_allocate_traits@std@@$0A@@std@@YAPEAX_K@Z 0000000140047350     main.obj
 0002:00010350       $unwind$??0?$_String_val@U?$_Simple_types@D@std@@@std@@QEAA@XZ 0000000140047350     main.obj
 0002:00010350       $unwind$??0bad_array_new_length@std@@QEAA@XZ 0000000140047350     main.obj
 0002:00010350       $unwind$??0bad_cast@std@@QEAA@XZ 0000000140047350     main.obj
 0002:00010350       $unwind$??1?$_Compressed_pair@V?$allocator@D@std@@V?$_String_val@U?$_Simple_types@D@std@@@2@$00@std@@QEAA@XZ 0000000140047350     main.obj
 0002:00010350       $unwind$??1?$_String_val@U?$_Simple_types@D@std@@@std@@QEAA@XZ 0000000140047350     main.obj
 0002:00010350       $unwind$??1?$_Tidy_guard@V?$numpunct@D@std@@@std@@QEAA@XZ 0000000140047350     main.obj
 0002:00010350       $unwind$??1?$_Yarn@D@std@@QEAA@XZ 0000000140047350     main.obj
 0002:00010350       $unwind$??1?$_Yarn@_W@std@@QEAA@XZ 0000000140047350     main.obj
 0002:00010350       $unwind$??1?$basic_string@DU?$char_traits@D@std@@V?$allocator@D@2@@std@@QEAA@XZ 0000000140047350     main.obj
 0002:00010350       $unwind$??1?$ctype@D@std@@MEAA@XZ 0000000140047350     main.obj
 0002:00010350       $unwind$??1?$num_get@DV?$istreambuf_iterator@DU?$char_traits@D@std@@@std@@@std@@MEAA@XZ 0000000140047350     main.obj
 0002:00010350       $unwind$??1?$num_put@DV?$ostreambuf_iterator@DU?$char_traits@D@std@@@std@@@std@@MEAA@XZ 0000000140047350     main.obj
 0002:00010350       $unwind$??1?$numpunct@D@std@@MEAA@XZ 0000000140047350     main.obj
 0002:00010350       $unwind$??1?$unique_ptr@V_Facet_base@std@@U?$default_delete@V_Facet_base@std@@@2@@std@@QEAA@XZ 0000000140047350     main.obj
 0002:00010350       $unwind$??1_Iostream_error_category2@std@@UEAA@XZ 0000000140047350     main.obj
 0002:00010350       $unwind$??1_System_error@std@@UEAA@XZ 0000000140047350     main.obj
 0002:00010350       $unwind$??1bad_alloc@std@@UEAA@XZ 0000000140047350     main.obj
 0002:00010350       $unwind$??1bad_array_new_length@std@@UEAA@XZ 0000000140047350     main.obj
 0002:00010350       $unwind$??1bad_cast@std@@UEAA@XZ 0000000140047350     main.obj
 0002:00010350       $unwind$??1ctype_base@std@@UEAA@XZ 0000000140047350     main.obj
 0002:00010350       $unwind$??1exception@std@@UEAA@XZ 0000000140047350     main.obj
 0002:00010350       $unwind$??1facet@locale@std@@MEAA@XZ 0000000140047350     main.obj
 0002:00010350       $unwind$??1failure@ios_base@std@@UEAA@XZ 0000000140047350     main.obj
 0002:00010350       $unwind$??1runtime_error@std@@UEAA@XZ 0000000140047350     main.obj
 0002:00010350       $unwind$??1sentry@?$basic_istream@DU?$char_traits@D@std@@@std@@QEAA@XZ 0000000140047350     main.obj
 0002:00010350       $unwind$??1system_error@std@@UEAA@XZ 0000000140047350     main.obj
 0002:00010350       $unwind$??D?$istreambuf_iterator@DU?$char_traits@D@std@@@std@@QEBADXZ 0000000140047350     main.obj
 0002:00010350       $unwind$??E?$istreambuf_iterator@DU?$char_traits@D@std@@@std@@QEAAAEAV01@XZ 0000000140047350     main.obj
 0002:00010350       $unwind$?_Allocate@_Default_allocate_traits@std@@SAPEAX_K@Z 0000000140047350     main.obj
 0002:00010350       $unwind$?_Getal@?$basic_string@DU?$char_traits@D@std@@V?$allocator@D@2@@std@@AEAAAEAV?$allocator@D@2@XZ 0000000140047350     main.obj
 0002:00010350       $unwind$?_Getal@?$basic_string@DU?$char_traits@D@std@@V?$allocator@D@2@@std@@AEBAAEBV?$allocator@D@2@XZ 0000000140047350     main.obj
 0002:00010350       $unwind$?_Getlconv@_Locinfo@std@@QEBAPEBUlconv@@XZ 0000000140047350     main.obj
 0002:00010350       $unwind$?_Tidy@?$_Yarn@D@std@@AEAAXXZ 0000000140047350     main.obj
 0002:00010350       $unwind$?_Tidy@?$_Yarn@_W@std@@AEAAXXZ 0000000140047350     main.obj
 0002:00010350       $unwind$?_Tidy@?$numpunct@D@std@@AEAAXXZ 0000000140047350     main.obj
 0002:00010350       $unwind$?c_str@?$basic_string@DU?$char_traits@D@std@@V?$allocator@D@2@@std@@QEBAPEBDXZ 0000000140047350     main.obj
 0002:00010350       $unwind$?decimal_point@?$numpunct@D@std@@QEBADXZ 0000000140047350     main.obj
 0002:00010350       $unwind$?length@?$_Narrow_char_traits@DH@std@@SA_KQEBD@Z 0000000140047350     main.obj
 0002:00010350       $unwind$?pubsync@?$basic_streambuf@DU?$char_traits@D@std@@@std@@QEAAHXZ 0000000140047350     main.obj
 0002:00010350       $unwind$?thousands_sep@?$numpunct@D@std@@QEBADXZ 0000000140047350     main.obj
 0002:00010350       $unwind$_putwch_nolock     0000000140047350     libucrt:putwch.obj
 0002:00010358       $unwind$??$_Get_size_of_n@$00@std@@YA_K_K@Z 0000000140047358     main.obj
 0002:00010358       $unwind$?_Gnavail@?$basic_streambuf@DU?$char_traits@D@std@@@std@@IEBA_JXZ 0000000140047358     main.obj
 0002:00010358       $unwind$?_Gninc@?$basic_streambuf@DU?$char_traits@D@std@@@std@@IEAAPEADXZ 0000000140047358     main.obj
 0002:00010358       $unwind$?_Gnpreinc@?$basic_streambuf@DU?$char_traits@D@std@@@std@@IEAAPEADXZ 0000000140047358     main.obj
 0002:00010358       $unwind$?_Large_string_engaged@?$_String_val@U?$_Simple_types@D@std@@@std@@QEBA_NXZ 0000000140047358     main.obj
 0002:00010358       $unwind$?_Pnavail@?$basic_streambuf@DU?$char_traits@D@std@@@std@@IEBA_JXZ 0000000140047358     main.obj
 0002:00010358       $unwind$?_Pninc@?$basic_streambuf@DU?$char_traits@D@std@@@std@@IEAAPEADXZ 0000000140047358     main.obj
 0002:00010358       $unwind$?c_str@?$_Yarn@D@std@@QEBAPEBDXZ 0000000140047358     main.obj
 0002:00010358       $unwind$?empty@?$basic_string@DU?$char_traits@D@std@@V?$allocator@D@2@@std@@QEBA_NXZ 0000000140047358     main.obj
 0002:00010358       $unwind$?what@exception@std@@UEBAPEBDXZ 0000000140047358     main.obj
 0002:00010360       $unwind$??$?0$$V@?$_Compressed_pair@V?$allocator@D@std@@V?$_String_val@U?$_Simple_types@D@std@@@2@$00@std@@QEAA@U_Zero_then_variadic_args_t@1@@Z 0000000140047360     main.obj
 0002:00010360       $unwind$??$_Find_elem@D$0BL@@std@@YA_KAEAY0BL@$$CBDD@Z 0000000140047360     main.obj
 0002:00010360       $unwind$??$_Find_elem@D$0BN@@std@@YA_KAEAY0BN@$$CBDD@Z 0000000140047360     main.obj
 0002:00010360       $unwind$??$_Find_elem@D$0P@@std@@YA_KAEAY0P@$$CBDD@Z 0000000140047360     main.obj
 0002:00010360       $unwind$??_G?$ctype@D@std@@MEAAPEAXI@Z 0000000140047360     main.obj
 0002:00010360       $unwind$??_G?$num_get@DV?$istreambuf_iterator@DU?$char_traits@D@std@@@std@@@std@@MEAAPEAXI@Z 0000000140047360     main.obj
 0002:00010360       $unwind$??_G?$num_put@DV?$ostreambuf_iterator@DU?$char_traits@D@std@@@std@@@std@@MEAAPEAXI@Z 0000000140047360     main.obj
 0002:00010360       $unwind$??_G?$numpunct@D@std@@MEAAPEAXI@Z 0000000140047360     main.obj
 0002:00010360       $unwind$??_G_Facet_base@std@@UEAAPEAXI@Z 0000000140047360     main.obj
 0002:00010360       $unwind$??_G_Iostream_error_category2@std@@UEAAPEAXI@Z 0000000140047360     main.obj
 0002:00010360       $unwind$??_G_System_error@std@@UEAAPEAXI@Z 0000000140047360     main.obj
 0002:00010360       $unwind$??_Gbad_alloc@std@@UEAAPEAXI@Z 0000000140047360     main.obj
 0002:00010360       $unwind$??_Gbad_array_new_length@std@@UEAAPEAXI@Z 0000000140047360     main.obj
 0002:00010360       $unwind$??_Gbad_cast@std@@UEAAPEAXI@Z 0000000140047360     main.obj
 0002:00010360       $unwind$??_Gctype_base@std@@UEAAPEAXI@Z 0000000140047360     main.obj
 0002:00010360       $unwind$??_Gexception@std@@UEAAPEAXI@Z 0000000140047360     main.obj
 0002:00010360       $unwind$??_Gfacet@locale@std@@MEAAPEAXI@Z 0000000140047360     main.obj
 0002:00010360       $unwind$??_Gfailure@ios_base@std@@UEAAPEAXI@Z 0000000140047360     main.obj
 0002:00010360       $unwind$??_Gruntime_error@std@@UEAAPEAXI@Z 0000000140047360     main.obj
 0002:00010360       $unwind$??_Gsystem_error@std@@UEAAPEAXI@Z 0000000140047360     main.obj
 0002:00010360       $unwind$?do_tolower@?$ctype@D@std@@MEBADD@Z 0000000140047360     main.obj
 0002:00010360       $unwind$?do_toupper@?$ctype@D@std@@MEBADD@Z 0000000140047360     main.obj
 0002:00010360       $unwind$?make_error_code@std@@YA?AVerror_code@1@W4io_errc@1@@Z 0000000140047360     main.obj
 0002:00010360       $unwind$?tolower@?$ctype@D@std@@QEBADD@Z 0000000140047360     main.obj
 0002:00010368       $unwind$?_Throw_bad_array_new_length@std@@YAXXZ 0000000140047368     main.obj
 0002:00010368       $unwind$?_Throw_bad_cast@std@@YAXXZ 0000000140047368     main.obj
 0002:00010368       $unwind$_raise_exc         0000000140047368     libucrt:fpexcept.obj
 0002:00010368       $unwind$_raise_excf        0000000140047368     libucrt:fpexcept.obj
 0002:00010368       $unwind$?__scrt_throw_std_bad_alloc@@YAXXZ 0000000140047368     LIBCMT:throw_bad_alloc.obj
 0002:00010368       $unwind$?__scrt_throw_std_bad_array_new_length@@YAXXZ 0000000140047368     LIBCMT:throw_bad_alloc.obj
 0002:00010368       $unwind$?_Xbad_alloc@std@@YAXXZ 0000000140047368     libcpmt:xthrow.obj
 0002:00010368       $unwind$?_Xlength_error@std@@YAXPEBD@Z 0000000140047368     libcpmt:xthrow.obj
 0002:00010368       $unwind$?_Xout_of_range@std@@YAXPEBD@Z 0000000140047368     libcpmt:xthrow.obj
 0002:00010368       $unwind$?_Xruntime_error@std@@YAXPEBD@Z 0000000140047368     libcpmt:xthrow.obj
 0002:00010370       $unwind$??4?$basic_string@DU?$char_traits@D@std@@V?$allocator@D@2@@std@@QEAAAEAV01@$$QEAV01@@Z 0000000140047370     main.obj
 0002:00010370       $unwind$?_Adjust_manually_vector_aligned@std@@YAXAEAPEAXAEA_K@Z 0000000140047370     main.obj
 0002:00010370       $unwind$?_Getfacet@locale@std@@QEBAPEBVfacet@12@_K@Z 0000000140047370     main.obj
 0002:00010370       $unwind$?message@error_code@std@@QEBA?AV?$basic_string@DU?$char_traits@D@std@@V?$allocator@D@2@@2@XZ 0000000140047370     main.obj
 0002:00010378       $unwind$??$__std_find_trivial@$$CBDD@@YAPEBDPEBD0D@Z 0000000140047378     main.obj
 0002:00010378       $unwind$?assign@?$_Narrow_char_traits@DH@std@@SAPEADQEAD_KD@Z 0000000140047378     main.obj
 0002:00010378       $unwind$?copy@?$_Char_traits@DH@std@@SAPEADQEADQEBD_K@Z 0000000140047378     main.obj
 0002:00010378       $unwind$?deallocate@?$allocator@D@std@@QEAAXQEAD_K@Z 0000000140047378     main.obj
 0002:00010378       $unwind$?default_error_condition@error_category@std@@UEBA?AVerror_condition@2@H@Z 0000000140047378     main.obj
 0002:00010378       $unwind$?do_tolower@?$ctype@D@std@@MEBAPEBDPEADPEBD@Z 0000000140047378     main.obj
 0002:00010378       $unwind$?do_toupper@?$ctype@D@std@@MEBAPEBDPEADPEBD@Z 0000000140047378     main.obj
 0002:00010378       $unwind$?move@?$_Char_traits@DH@std@@SAPEADQEADQEBD_K@Z 0000000140047378     main.obj
 0002:00010378       $unwind$?sputn@?$basic_streambuf@DU?$char_traits@D@std@@@std@@QEAA_JPEBD_J@Z 0000000140047378     main.obj
 0002:00010380       $unwind$??$_Within_limits@PEBDD@std@@YA_NAEBQEBDAEBD@Z 0000000140047380     main.obj
 0002:00010380       $unwind$??$exchange@PEAV_Facet_base@std@@$$T@std@@YAPEAV_Facet_base@0@AEAPEAV10@$$QEA$$T@Z 0000000140047380     main.obj
 0002:00010380       $unwind$??$max@_K@std@@YAAEB_KAEB_K0@Z 0000000140047380     main.obj
 0002:00010380       $unwind$??$min@_K@std@@YAAEB_KAEB_K0@Z 0000000140047380     main.obj
 0002:00010380       $unwind$??8error_category@std@@QEBA_NAEBV01@@Z 0000000140047380     main.obj
 0002:00010380       $unwind$?eq_int_type@?$_Narrow_char_traits@DH@std@@SA_NAEBH0@Z 0000000140047380     main.obj
 0002:00010380       $unwind$?width@ios_base@std@@QEAA_J_J@Z 0000000140047380     main.obj
 0002:00010388       $unwind$??__E?id@?$num_get@DV?$istreambuf_iterator@DU?$char_traits@D@std@@@std@@@std@@2V0locale@2@A@@YAXXZ 0000000140047388     main.obj
 0002:00010388       $unwind$??__E?id@?$num_put@DV?$ostreambuf_iterator@DU?$char_traits@D@std@@@std@@@std@@2V0locale@2@A@@YAXXZ 0000000140047388     main.obj
 0002:00010388       $unwind$??__E?id@?$numpunct@D@std@@2V0locale@2@A@@YAXXZ 0000000140047388     main.obj
 0002:00010388       $unwind$?_Xlen_string@std@@YAXXZ 0000000140047388     main.obj
 0002:00010388       $unwind$?_Xran@?$_String_val@U?$_Simple_types@D@std@@@std@@SAXXZ 0000000140047388     main.obj
 0002:00010388       $unwind$?iostream_category@std@@YAAEBVerror_category@1@XZ 0000000140047388     main.obj
 0002:00010388       $unwind$__dcrt_terminate_console_output 0000000140047388     libucrt:initcon.obj
 0002:00010388       $unwind$??$uninitialize_environment_internal@D@@YAXAEAPEAPEAD@Z 0000000140047388     libucrt:environment_initialization.obj
 0002:00010388       $unwind$??$uninitialize_environment_internal@_W@@YAXAEAPEAPEA_W@Z 0000000140047388     libucrt:environment_initialization.obj
 0002:00010388       $unwind$__dcrt_get_or_create_narrow_environment_nolock 0000000140047388     libucrt:environment_initialization.obj
 0002:00010388       $unwind$__dcrt_uninitialize_environments_nolock 0000000140047388     libucrt:environment_initialization.obj
 0002:00010388       $unwind$_get_initial_narrow_environment 0000000140047388     libucrt:environment_initialization.obj
 0002:00010388       $unwind$?__c32rtomb_utf8@__crt_mbstring@@YA_KPEAD_UPEAU_Mbstatet@@@Z 0000000140047388     libucrt:c32rtomb.obj
 0002:00010388       $unwind$tolower            0000000140047388     libucrt:tolower_toupper.obj
 0002:00010388       $unwind$__acrt_initialize_heap 0000000140047388     libucrt:heap_handle.obj
 0002:00010388       $unwind$_msize_base        0000000140047388     libucrt:msize.obj
 0002:00010388       $unwind$_set_new_mode      0000000140047388     libucrt:new_mode.obj
 0002:00010388       $unwind$?initialize_multibyte@@YAHXZ 0000000140047388     libucrt:multibyte_initializer.obj
 0002:00010388       $unwind$__acrt_uninitialize 0000000140047388     libucrt:initialization.obj
 0002:00010388       $unwind$initialize_c       0000000140047388     libucrt:initialization.obj
 0002:00010388       $unwind$uninitialize_allocated_io_buffers 0000000140047388     libucrt:initialization.obj
 0002:00010388       $unwind$uninitialize_environment 0000000140047388     libucrt:initialization.obj
 0002:00010388       $unwind$_lock_locales      0000000140047388     libucrt:locks.obj
 0002:00010388       $unwind$__acrt_initialize_ptd 0000000140047388     libucrt:per_thread_data.obj
 0002:00010388       $unwind$__acrt_uninitialize_ptd 0000000140047388     libucrt:per_thread_data.obj
 0002:00010388       $unwind$__acrt_AreFileApisANSI 0000000140047388     libucrt:winapi_thunks.obj
 0002:00010388       $unwind$__acrt_can_use_vista_locale_apis 0000000140047388     libucrt:winapi_thunks.obj
 0002:00010388       $unwind$__acrt_eagerly_load_locale_apis 0000000140047388     libucrt:winapi_thunks.obj
 0002:00010388       $unwind$__pctype_func      0000000140047388     libucrt:ctype.obj
 0002:00010388       $unwind$___lc_codepage_func 0000000140047388     libucrt:initctype.obj
 0002:00010388       $unwind$___lc_locale_name_func 0000000140047388     libucrt:initctype.obj
 0002:00010388       $unwind$___mb_cur_max_func 0000000140047388     libucrt:initctype.obj
 0002:00010388       $unwind$__acrt_release_locale_ref 0000000140047388     libucrt:locale_refcounting.obj
 0002:00010388       $unwind$localeconv         0000000140047388     libucrt:localeconv.obj
 0002:00010388       $unwind$_copytlocinfo_nolock 0000000140047388     libucrt:wsetlocale.obj
 0002:00010388       $unwind$_isatty            0000000140047388     libucrt:isatty.obj
 0002:00010388       $unwind$_get_osfhandle     0000000140047388     libucrt:osfinfo.obj
 0002:00010388       $unwind$_set_fmode         0000000140047388     libucrt:setmode.obj
 0002:00010388       $unwind$__acrt_initialize_multibyte 0000000140047388     libucrt:mbctype.obj
 0002:00010388       $unwind$__acrt_update_thread_multibyte_data 0000000140047388     libucrt:mbctype.obj
 0002:00010388       $unwind$__doserrno         0000000140047388     libucrt:errno.obj
 0002:00010388       $unwind$_errno             0000000140047388     libucrt:errno.obj
 0002:00010388       $unwind$_invoke_watson     0000000140047388     libucrt:invalid_parameter.obj
 0002:00010388       $unwind$abort              0000000140047388     libucrt:abort.obj
 0002:00010388       $unwind$__acrt_initialize_command_line 0000000140047388     libucrt:argv_data.obj
 0002:00010388       $unwind$_register_thread_local_exe_atexit_callback 0000000140047388     libucrt:exit.obj
 0002:00010388       $unwind$_get_stream_buffer_pointers 0000000140047388     libucrt:_file.obj
 0002:00010388       $unwind$_fgetc_nolock      0000000140047388     libucrt:fgetc.obj
 0002:00010388       $unwind$_fileno            0000000140047388     libucrt:fileno.obj
 0002:00010388       $unwind$fsetpos            0000000140047388     libucrt:fsetpos.obj
 0002:00010388       $unwind$?state_case_normal_tchar@?$output_processor@DV?$string_output_adapter@D@__crt_stdio_output@@V?$format_validation_base@DV?$string_output_adapter@D@__crt_stdio_output@@@2@@__crt_stdio_output@@AEAA_ND@Z 0000000140047388     libucrt:output.obj
 0002:00010388       $unwind$?state_case_size@?$output_processor@DV?$string_output_adapter@D@__crt_stdio_output@@V?$format_validation_base@DV?$string_output_adapter@D@__crt_stdio_output@@@2@@__crt_stdio_output@@AEAA_NXZ 0000000140047388     libucrt:output.obj
 0002:00010388       $unwind$_strnicmp          0000000140047388     libucrt:strnicmp.obj
 0002:00010388       $unwind$_wcsicmp           0000000140047388     libucrt:wcsicmp.obj
 0002:00010388       $unwind$_wcsnicmp          0000000140047388     libucrt:wcsnicmp.obj
 0002:00010388       $unwind$_statfp            0000000140047388     libucrt:fpctrl.obj
 0002:00010388       $unwind$fegetround         0000000140047388     libucrt:fegetround.obj
 0002:00010388       $unwind$_set_errno_from_matherr 0000000140047388     libucrt:fpexcept.obj
 0002:00010388       $unwind$__scrt_initialize_default_local_stdio_options 0000000140047388     LIBCMT:default_local_stdio_options.obj
 0002:00010388       $unwind$?post_pgo_initialization@@YAHXZ 0000000140047388     LIBCMT:exe_main.obj
 0002:00010388       $unwind$?pre_cpp_initialization@@YAXXZ 0000000140047388     LIBCMT:exe_main.obj
 0002:00010388       $unwind$mainCRTStartup     0000000140047388     LIBCMT:exe_main.obj
 0002:00010388       $unwind$__report_rangecheckfailure 0000000140047388     LIBCMT:gs_report.obj
 0002:00010388       $unwind$__GSHandlerCheck   0000000140047388     LIBCMT:gshandler.obj
 0002:00010388       $unwind$__scrt_acquire_startup_lock 0000000140047388     LIBCMT:utility.obj
 0002:00010388       $unwind$atexit             0000000140047388     LIBCMT:utility.obj
 0002:00010388       $unwind$__scrt_is_managed_app 0000000140047388     LIBCMT:utility_desktop.obj
 0002:00010388       $unwind$??__Ecin@std@@YAXXZ 0000000140047388     libcpmt:cin.obj
 0002:00010388       $unwind$??__Einitlocks@@YAXXZ 0000000140047388     libcpmt:cin.obj
 0002:00010388       $unwind$?_Lock@?$basic_filebuf@DU?$char_traits@D@std@@@std@@UEAAXXZ 0000000140047388     libcpmt:cin.obj
 0002:00010388       $unwind$?_Unlock@?$basic_filebuf@DU?$char_traits@D@std@@@std@@UEAAXXZ 0000000140047388     libcpmt:cin.obj
 0002:00010388       $unwind$??__Ecout@std@@YAXXZ 0000000140047388     libcpmt:cout.obj
 0002:00010388       $unwind$??__Einitlocks@@YAXXZ 0000000140047388     libcpmt:cout.obj
 0002:00010388       $unwind$??__Einitlocks@std@@YAXXZ 0000000140047388     libcpmt:iosptrs.obj
 0002:00010388       $unwind$?_Atexit@@YAXP6AXXZ@Z 0000000140047388     libcpmt:iosptrs.obj
 0002:00010388       $unwind$??__Fclassic_locale@std@@YAXXZ 0000000140047388     libcpmt:locale0.obj
 0002:00010388       $unwind$?_Locinfo_dtor@_Locinfo@std@@SAXPEAV12@@Z 0000000140047388     libcpmt:locale0.obj
 0002:00010388       $unwind$_Deletegloballocale 0000000140047388     libcpmt:locale0.obj
 0002:00010388       $unwind$tidy_global        0000000140047388     libcpmt:locale0.obj
 0002:00010388       $unwind$??1_Lockit@std@@QEAA@XZ 0000000140047388     libcpmt:xlock.obj
 0002:00010388       $unwind$??__Einitlocks@std@@YAXXZ 0000000140047388     libcpmt:xlock.obj
 0002:00010388       $unwind$__current_exception 0000000140047388     libvcruntime:ehhelpers.obj
 0002:00010388       $unwind$__current_exception_context 0000000140047388     libvcruntime:ehhelpers.obj
 0002:00010388       $unwind$__std_terminate    0000000140047388     libvcruntime:ehhelpers.obj
 0002:00010388       $unwind$?GetCurrentState@__FrameHandler3@@SAHPEA_KPEAU_xDISPATCHER_CONTEXT@@PEBU_s_FuncInfo@@@Z 0000000140047388     libvcruntime:ehstate.obj
 0002:00010388       $unwind$__vcrt_initialize  0000000140047388     libvcruntime:initialization.obj
 0002:00010388       $unwind$__vcrt_uninitialize 0000000140047388     libvcruntime:initialization.obj
 0002:00010388       $unwind$__vcrt_freefls     0000000140047388     libvcruntime:per_thread_data.obj
 0002:00010388       $unwind$__vcrt_getptd      0000000140047388     libvcruntime:per_thread_data.obj
 0002:00010388       $unwind$__vcrt_initialize_ptd 0000000140047388     libvcruntime:per_thread_data.obj
 0002:00010388       $unwind$__vcrt_uninitialize_ptd 0000000140047388     libvcruntime:per_thread_data.obj
 0002:00010388       $unwind$_purecall          0000000140047388     libvcruntime:purevirt.obj
 0002:00010388       $unwind$?FrameUnwindToEmptyState@__FrameHandler4@@SAXPEA_KPEAU_xDISPATCHER_CONTEXT@@PEAUFuncInfo4@FH4@@@Z 0000000140047388     libvcruntime:risctrnsctrl.obj
 0002:00010388       $unwind$_GetImageBase      0000000140047388     libvcruntime:risctrnsctrl.obj
 0002:00010388       $unwind$_GetThrowImageBase 0000000140047388     libvcruntime:risctrnsctrl.obj
 0002:00010388       $unwind$__uncaught_exception 0000000140047388     libvcruntime:uncaught_exception.obj
 0002:00010390       $unwind$??0?$basic_string@DU?$char_traits@D@std@@V?$allocator@D@2@@std@@QEAA@XZ 0000000140047390     main.obj
 0002:00010390       $unwind$??1locale@std@@QEAA@XZ 0000000140047390     main.obj
 0002:00010390       $unwind$??Bid@locale@std@@QEAA_KXZ 0000000140047390     main.obj
 0002:00010390       $unwind$?_Inc@?$istreambuf_iterator@DU?$char_traits@D@std@@@std@@AEAAXXZ 0000000140047390     main.obj
 0002:00010390       $unwind$?_Myptr@?$_String_val@U?$_Simple_types@D@std@@@std@@QEAAPEADXZ 0000000140047390     main.obj
 0002:00010390       $unwind$?_Myptr@?$_String_val@U?$_Simple_types@D@std@@@std@@QEBAPEBDXZ 0000000140047390     main.obj
 0002:00010390       $unwind$?_Peek@?$istreambuf_iterator@DU?$char_traits@D@std@@@std@@AEBADXZ 0000000140047390     main.obj
 0002:00010390       $unwind$?_Tidy@?$ctype@D@std@@IEAAXXZ 0000000140047390     main.obj
 0002:00010390       $unwind$?_Tidy_init@?$basic_string@DU?$char_traits@D@std@@V?$allocator@D@2@@std@@AEAAXXZ 0000000140047390     main.obj
 0002:00010390       $unwind$?c_str@locale@std@@QEBAPEBDXZ 0000000140047390     main.obj
 0002:00010390       $unwind$?good@ios_base@std@@QEBA_NXZ 0000000140047390     main.obj
 0002:00010390       $unwind$?release@?$unique_ptr@V_Facet_base@std@@U?$default_delete@V_Facet_base@std@@@2@@std@@QEAAPEAV_Facet_base@2@XZ 0000000140047390     main.obj
 0002:00010390       $unwind$?sbumpc@?$basic_streambuf@DU?$char_traits@D@std@@@std@@QEAAHXZ 0000000140047390     main.obj
 0002:00010390       $unwind$?sgetc@?$basic_streambuf@DU?$char_traits@D@std@@@std@@QEAAHXZ 0000000140047390     main.obj
 0002:00010390       $unwind$?snextc@?$basic_streambuf@DU?$char_traits@D@std@@@std@@QEAAHXZ 0000000140047390     main.obj
 0002:00010390       $unwind$__report_gsfailure 0000000140047390     LIBCMT:gs_report.obj
 0002:00010398       $unwind$??0?$basic_string@DU?$char_traits@D@std@@V?$allocator@D@2@@std@@QEAA@AEBV01@@Z 0000000140047398     main.obj
 0002:000103a8       $cppxdata$??0?$basic_string@DU?$char_traits@D@std@@V?$allocator@D@2@@std@@QEAA@AEBV01@@Z 00000001400473a8     main.obj
 0002:000103b1       $stateUnwindMap$??0?$basic_string@DU?$char_traits@D@std@@V?$allocator@D@2@@std@@QEAA@AEBV01@@Z 00000001400473b1     main.obj
 0002:000103b1       $stateUnwindMap$??0?$basic_string@DU?$char_traits@D@std@@V?$allocator@D@2@@std@@QEAA@QEBD@Z 00000001400473b1     main.obj
 0002:000103b1       $stateUnwindMap$??0?$basic_string@DU?$char_traits@D@std@@V?$allocator@D@2@@std@@QEAA@QEBD_K@Z 00000001400473b1     main.obj
 0002:000103b1       $stateUnwindMap$??0?$basic_string@DU?$char_traits@D@std@@V?$allocator@D@2@@std@@QEAA@_KD@Z 00000001400473b1     main.obj
 0002:000103b7       $ip2state$??0?$basic_string@DU?$char_traits@D@std@@V?$allocator@D@2@@std@@QEAA@AEBV01@@Z 00000001400473b7     main.obj
 0002:000103c0       $unwind$?dtor$0@?0???$?6U?$char_traits@D@std@@@std@@YAAEAV?$basic_ostream@DU?$char_traits@D@std@@@0@AEAV10@PEBD@Z@4HA 00000001400473c0     main.obj
 0002:000103c0       $unwind$?dtor$0@?0???$_Common_extract_with_num_get@J@?$basic_istream@DU?$char_traits@D@std@@@std@@AEAAAEAV01@AEAJ@Z@4HA 00000001400473c0     main.obj
 0002:000103c0       $unwind$?dtor$0@?0???$_Common_extract_with_num_get@N@?$basic_istream@DU?$char_traits@D@std@@@std@@AEAAAEAV01@AEAN@Z@4HA 00000001400473c0     main.obj
 0002:000103c0       $unwind$?dtor$0@?0???$_Getloctxt@V?$istreambuf_iterator@DU?$char_traits@D@std@@@std@@D@std@@YAHAEAV?$istreambuf_iterator@DU?$char_traits@D@std@@@0@0_KPEBDW4_Case_sensitive@0@@Z@4HA 00000001400473c0     main.obj
 0002:000103c0       $unwind$?dtor$0@?0???$use_facet@V?$ctype@D@std@@@std@@YAAEBV?$ctype@D@0@AEBVlocale@0@@Z@4HA 00000001400473c0     main.obj
 0002:000103c0       $unwind$?dtor$0@?0???$use_facet@V?$num_get@DV?$istreambuf_iterator@DU?$char_traits@D@std@@@std@@@std@@@std@@YAAEBV?$num_get@DV?$istreambuf_iterator@DU?$char_traits@D@std@@@std@@@0@AEBVlocale@0@@Z@4HA 00000001400473c0     main.obj
 0002:000103c0       $unwind$?dtor$0@?0???$use_facet@V?$num_put@DV?$ostreambuf_iterator@DU?$char_traits@D@std@@@std@@@std@@@std@@YAAEBV?$num_put@DV?$ostreambuf_iterator@DU?$char_traits@D@std@@@std@@@0@AEBVlocale@0@@Z@4HA 00000001400473c0     main.obj
 0002:000103c0       $unwind$?dtor$0@?0???$use_facet@V?$numpunct@D@std@@@std@@YAAEBV?$numpunct@D@0@AEBVlocale@0@@Z@4HA 00000001400473c0     main.obj
 0002:000103c0       $unwind$?dtor$0@?0???0?$basic_string@DU?$char_traits@D@std@@V?$allocator@D@2@@std@@QEAA@AEBV01@@Z@4HA 00000001400473c0     main.obj
 0002:000103c0       $unwind$?dtor$0@?0???0?$basic_string@DU?$char_traits@D@std@@V?$allocator@D@2@@std@@QEAA@QEBD@Z@4HA 00000001400473c0     main.obj
 0002:000103c0       $unwind$?dtor$0@?0???0?$basic_string@DU?$char_traits@D@std@@V?$allocator@D@2@@std@@QEAA@QEBD_K@Z@4HA 00000001400473c0     main.obj
 0002:000103c0       $unwind$?dtor$0@?0???0?$basic_string@DU?$char_traits@D@std@@V?$allocator@D@2@@std@@QEAA@_KD@Z@4HA 00000001400473c0     main.obj
 0002:000103c0       $unwind$?dtor$0@?0???0?$ctype@D@std@@QEAA@AEBV_Locinfo@1@_K@Z@4HA 00000001400473c0     main.obj
 0002:000103c0       $unwind$?dtor$0@?0???0?$num_get@DV?$istreambuf_iterator@DU?$char_traits@D@std@@@std@@@std@@QEAA@AEBV_Locinfo@1@_K@Z@4HA 00000001400473c0     main.obj
 0002:000103c0       $unwind$?dtor$0@?0???0?$num_put@DV?$ostreambuf_iterator@DU?$char_traits@D@std@@@std@@@std@@QEAA@AEBV_Locinfo@1@_K@Z@4HA 00000001400473c0     main.obj
 0002:000103c0       $unwind$?dtor$0@?0???0?$numpunct@D@std@@QEAA@AEBV_Locinfo@1@_K_N@Z@4HA 00000001400473c0     main.obj
 0002:000103c0       $unwind$?dtor$0@?0???0_Locinfo@std@@QEAA@PEBD@Z@4HA 00000001400473c0     main.obj
 0002:000103c0       $unwind$?dtor$0@?0???0sentry@?$basic_istream@DU?$char_traits@D@std@@@std@@QEAA@AEAV12@_N@Z@4HA 00000001400473c0     main.obj
 0002:000103c0       $unwind$?dtor$0@?0???0sentry@?$basic_ostream@DU?$char_traits@D@std@@@std@@QEAA@AEAV12@@Z@4HA 00000001400473c0     main.obj
 0002:000103c0       $unwind$?dtor$0@?0???0system_error@std@@QEAA@Verror_code@1@PEBD@Z@4HA 00000001400473c0     main.obj
 0002:000103c0       $unwind$?dtor$0@?0???6?$basic_ostream@DU?$char_traits@D@std@@@std@@QEAAAEAV01@N@Z@4HA 00000001400473c0     main.obj
 0002:000103c0       $unwind$?dtor$0@?0??_Fput@?$num_put@DV?$ostreambuf_iterator@DU?$char_traits@D@std@@@std@@@std@@AEBA?AV?$ostreambuf_iterator@DU?$char_traits@D@std@@@2@V32@AEAVios_base@2@DPEBD_K@Z@4HA 00000001400473c0     main.obj
 0002:000103c0       $unwind$?dtor$0@?0??_Getcat@?$ctype@D@std@@SA_KPEAPEBVfacet@locale@2@PEBV42@@Z@4HA 00000001400473c0     main.obj
 0002:000103c0       $unwind$?dtor$0@?0??_Getcat@?$num_get@DV?$istreambuf_iterator@DU?$char_traits@D@std@@@std@@@std@@SA_KPEAPEBVfacet@locale@2@PEBV42@@Z@4HA 00000001400473c0     main.obj
 0002:000103c0       $unwind$?dtor$0@?0??_Getcat@?$num_put@DV?$ostreambuf_iterator@DU?$char_traits@D@std@@@std@@@std@@SA_KPEAPEBVfacet@locale@2@PEBV42@@Z@4HA 00000001400473c0     main.obj
 0002:000103c0       $unwind$?dtor$0@?0??_Getcat@?$numpunct@D@std@@SA_KPEAPEBVfacet@locale@2@PEBV42@@Z@4HA 00000001400473c0     main.obj
 0002:000103c0       $unwind$?dtor$0@?0??_Getffld@?$num_get@DV?$istreambuf_iterator@DU?$char_traits@D@std@@@std@@@std@@AEBAHPEADAEAV?$istreambuf_iterator@DU?$char_traits@D@std@@@2@1AEAVios_base@2@PEAH@Z@4HA 00000001400473c0     main.obj
 0002:000103c0       $unwind$?dtor$0@?0??_Getffldx@?$num_get@DV?$istreambuf_iterator@DU?$char_traits@D@std@@@std@@@std@@AEBAHPEADAEAV?$istreambuf_iterator@DU?$char_traits@D@std@@@2@1AEAVios_base@2@PEAH@Z@4HA 00000001400473c0     main.obj
 0002:000103c0       $unwind$?dtor$0@?0??_Getifld@?$num_get@DV?$istreambuf_iterator@DU?$char_traits@D@std@@@std@@@std@@AEBAHPEADAEAV?$istreambuf_iterator@DU?$char_traits@D@std@@@2@1HAEBVlocale@2@@Z@4HA 00000001400473c0     main.obj
 0002:000103c0       $unwind$?dtor$0@?0??_Init@?$numpunct@D@std@@IEAAXAEBV_Locinfo@2@_N@Z@4HA 00000001400473c0     main.obj
 0002:000103c0       $unwind$?dtor$0@?0??_Ipfx@?$basic_istream@DU?$char_traits@D@std@@@std@@QEAA_N_N@Z@4HA 00000001400473c0     main.obj
 0002:000103c0       $unwind$?dtor$0@?0??_Iput@?$num_put@DV?$ostreambuf_iterator@DU?$char_traits@D@std@@@std@@@std@@AEBA?AV?$ostreambuf_iterator@DU?$char_traits@D@std@@@2@V32@AEAVios_base@2@DPEAD_K@Z@4HA 00000001400473c0     main.obj
 0002:000103c0       $unwind$?dtor$0@?0??_Makestr@_System_error@std@@CA?AV?$basic_string@DU?$char_traits@D@std@@V?$allocator@D@2@@2@Verror_code@2@V32@@Z@4HA 00000001400473c0     main.obj
 0002:000103c0       $unwind$?dtor$0@?0??do_get@?$num_get@DV?$istreambuf_iterator@DU?$char_traits@D@std@@@std@@@std@@MEBA?AV?$istreambuf_iterator@DU?$char_traits@D@std@@@2@V32@0AEAVios_base@2@AEAHAEAG@Z@4HA 00000001400473c0     main.obj
 0002:000103c0       $unwind$?dtor$0@?0??do_get@?$num_get@DV?$istreambuf_iterator@DU?$char_traits@D@std@@@std@@@std@@MEBA?AV?$istreambuf_iterator@DU?$char_traits@D@std@@@2@V32@0AEAVios_base@2@AEAHAEAJ@Z@4HA 00000001400473c0     main.obj
 0002:000103c0       $unwind$?dtor$0@?0??do_get@?$num_get@DV?$istreambuf_iterator@DU?$char_traits@D@std@@@std@@@std@@MEBA?AV?$istreambuf_iterator@DU?$char_traits@D@std@@@2@V32@0AEAVios_base@2@AEAHAEAK@Z@4HA 00000001400473c0     main.obj
 0002:000103c0       $unwind$?dtor$0@?0??do_get@?$num_get@DV?$istreambuf_iterator@DU?$char_traits@D@std@@@std@@@std@@MEBA?AV?$istreambuf_iterator@DU?$char_traits@D@std@@@2@V32@0AEAVios_base@2@AEAHAEAPEAX@Z@4HA 00000001400473c0     main.obj
 0002:000103c0       $unwind$?dtor$0@?0??do_get@?$num_get@DV?$istreambuf_iterator@DU?$char_traits@D@std@@@std@@@std@@MEBA?AV?$istreambuf_iterator@DU?$char_traits@D@std@@@2@V32@0AEAVios_base@2@AEAHAEA_J@Z@4HA 00000001400473c0     main.obj
 0002:000103c0       $unwind$?dtor$0@?0??do_get@?$num_get@DV?$istreambuf_iterator@DU?$char_traits@D@std@@@std@@@std@@MEBA?AV?$istreambuf_iterator@DU?$char_traits@D@std@@@2@V32@0AEAVios_base@2@AEAHAEA_K@Z@4HA 00000001400473c0     main.obj
 0002:000103c0       $unwind$?dtor$0@?0??do_get@?$num_get@DV?$istreambuf_iterator@DU?$char_traits@D@std@@@std@@@std@@MEBA?AV?$istreambuf_iterator@DU?$char_traits@D@std@@@2@V32@0AEAVios_base@2@AEAHAEA_N@Z@4HA 00000001400473c0     main.obj
 0002:000103c0       $unwind$?dtor$0@?0??do_put@?$num_put@DV?$ostreambuf_iterator@DU?$char_traits@D@std@@@std@@@std@@MEBA?AV?$ostreambuf_iterator@DU?$char_traits@D@std@@@2@V32@AEAVios_base@2@DN@Z@4HA 00000001400473c0     main.obj
 0002:000103c0       $unwind$?dtor$0@?0??do_put@?$num_put@DV?$ostreambuf_iterator@DU?$char_traits@D@std@@@std@@@std@@MEBA?AV?$ostreambuf_iterator@DU?$char_traits@D@std@@@2@V32@AEAVios_base@2@DO@Z@4HA 00000001400473c0     main.obj
 0002:000103c0       $unwind$?dtor$0@?0??do_put@?$num_put@DV?$ostreambuf_iterator@DU?$char_traits@D@std@@@std@@@std@@MEBA?AV?$ostreambuf_iterator@DU?$char_traits@D@std@@@2@V32@AEAVios_base@2@D_N@Z@4HA 00000001400473c0     main.obj
 0002:000103c0       $unwind$?dtor$0@?0??flush@?$basic_ostream@DU?$char_traits@D@std@@@std@@QEAAAEAV12@XZ@4HA 00000001400473c0     main.obj
 0002:000103c0       $unwind$?dtor$1@?0???$_Common_extract_with_num_get@J@?$basic_istream@DU?$char_traits@D@std@@@std@@AEAAAEAV01@AEAJ@Z@4HA 00000001400473c0     main.obj
 0002:000103c0       $unwind$?dtor$1@?0???$_Common_extract_with_num_get@N@?$basic_istream@DU?$char_traits@D@std@@@std@@AEAAAEAV01@AEAN@Z@4HA 00000001400473c0     main.obj
 0002:000103c0       $unwind$?dtor$1@?0???$_Getloctxt@V?$istreambuf_iterator@DU?$char_traits@D@std@@@std@@D@std@@YAHAEAV?$istreambuf_iterator@DU?$char_traits@D@std@@@0@0_KPEBDW4_Case_sensitive@0@@Z@4HA 00000001400473c0     main.obj
 0002:000103c0       $unwind$?dtor$1@?0???$use_facet@V?$ctype@D@std@@@std@@YAAEBV?$ctype@D@0@AEBVlocale@0@@Z@4HA 00000001400473c0     main.obj
 0002:000103c0       $unwind$?dtor$1@?0???$use_facet@V?$num_get@DV?$istreambuf_iterator@DU?$char_traits@D@std@@@std@@@std@@@std@@YAAEBV?$num_get@DV?$istreambuf_iterator@DU?$char_traits@D@std@@@std@@@0@AEBVlocale@0@@Z@4HA 00000001400473c0     main.obj
 0002:000103c0       $unwind$?dtor$1@?0???$use_facet@V?$num_put@DV?$ostreambuf_iterator@DU?$char_traits@D@std@@@std@@@std@@@std@@YAAEBV?$num_put@DV?$ostreambuf_iterator@DU?$char_traits@D@std@@@std@@@0@AEBVlocale@0@@Z@4HA 00000001400473c0     main.obj
 0002:000103c0       $unwind$?dtor$1@?0???$use_facet@V?$numpunct@D@std@@@std@@YAAEBV?$numpunct@D@0@AEBVlocale@0@@Z@4HA 00000001400473c0     main.obj
 0002:000103c0       $unwind$?dtor$1@?0???0_Locinfo@std@@QEAA@PEBD@Z@4HA 00000001400473c0     main.obj
 0002:000103c0       $unwind$?dtor$1@?0???0_System_error@std@@IEAA@Verror_code@1@AEBV?$basic_string@DU?$char_traits@D@std@@V?$allocator@D@2@@1@@Z@4HA 00000001400473c0     main.obj
 0002:000103c0       $unwind$?dtor$1@?0???6?$basic_ostream@DU?$char_traits@D@std@@@std@@QEAAAEAV01@N@Z@4HA 00000001400473c0     main.obj
 0002:000103c0       $unwind$?dtor$1@?0??_Fput@?$num_put@DV?$ostreambuf_iterator@DU?$char_traits@D@std@@@std@@@std@@AEBA?AV?$ostreambuf_iterator@DU?$char_traits@D@std@@@2@V32@AEAVios_base@2@DPEBD_K@Z@4HA 00000001400473c0     main.obj
 0002:000103c0       $unwind$?dtor$1@?0??_Getcat@?$ctype@D@std@@SA_KPEAPEBVfacet@locale@2@PEBV42@@Z@4HA 00000001400473c0     main.obj
 0002:000103c0       $unwind$?dtor$1@?0??_Getcat@?$num_get@DV?$istreambuf_iterator@DU?$char_traits@D@std@@@std@@@std@@SA_KPEAPEBVfacet@locale@2@PEBV42@@Z@4HA 00000001400473c0     main.obj
 0002:000103c0       $unwind$?dtor$1@?0??_Getcat@?$num_put@DV?$ostreambuf_iterator@DU?$char_traits@D@std@@@std@@@std@@SA_KPEAPEBVfacet@locale@2@PEBV42@@Z@4HA 00000001400473c0     main.obj
 0002:000103c0       $unwind$?dtor$1@?0??_Getcat@?$numpunct@D@std@@SA_KPEAPEBVfacet@locale@2@PEBV42@@Z@4HA 00000001400473c0     main.obj
 0002:000103c0       $unwind$?dtor$1@?0??_Getffld@?$num_get@DV?$istreambuf_iterator@DU?$char_traits@D@std@@@std@@@std@@AEBAHPEADAEAV?$istreambuf_iterator@DU?$char_traits@D@std@@@2@1AEAVios_base@2@PEAH@Z@4HA 00000001400473c0     main.obj
 0002:000103c0       $unwind$?dtor$1@?0??_Getffldx@?$num_get@DV?$istreambuf_iterator@DU?$char_traits@D@std@@@std@@@std@@AEBAHPEADAEAV?$istreambuf_iterator@DU?$char_traits@D@std@@@2@1AEAVios_base@2@PEAH@Z@4HA 00000001400473c0     main.obj
 0002:000103c0       $unwind$?dtor$1@?0??_Getifld@?$num_get@DV?$istreambuf_iterator@DU?$char_traits@D@std@@@std@@@std@@AEBAHPEADAEAV?$istreambuf_iterator@DU?$char_traits@D@std@@@2@1HAEBVlocale@2@@Z@4HA 00000001400473c0     main.obj
 0002:000103c0       $unwind$?dtor$1@?0??_Iput@?$num_put@DV?$ostreambuf_iterator@DU?$char_traits@D@std@@@std@@@std@@AEBA?AV?$ostreambuf_iterator@DU?$char_traits@D@std@@@2@V32@AEAVios_base@2@DPEAD_K@Z@4HA 00000001400473c0     main.obj
 0002:000103c0       $unwind$?dtor$1@?0??_Makestr@_System_error@std@@CA?AV?$basic_string@DU?$char_traits@D@std@@V?$allocator@D@2@@2@Verror_code@2@V32@@Z@4HA 00000001400473c0     main.obj
 0002:000103c0       $unwind$?dtor$1@?0??do_get@?$num_get@DV?$istreambuf_iterator@DU?$char_traits@D@std@@@std@@@std@@MEBA?AV?$istreambuf_iterator@DU?$char_traits@D@std@@@2@V32@0AEAVios_base@2@AEAHAEA_N@Z@4HA 00000001400473c0     main.obj
 0002:000103c0       $unwind$?dtor$1@?0??do_put@?$num_put@DV?$ostreambuf_iterator@DU?$char_traits@D@std@@@std@@@std@@MEBA?AV?$ostreambuf_iterator@DU?$char_traits@D@std@@@2@V32@AEAVios_base@2@D_N@Z@4HA 00000001400473c0     main.obj
 0002:000103c0       $unwind$?dtor$2@?0???0_Locinfo@std@@QEAA@PEBD@Z@4HA 00000001400473c0     main.obj
 0002:000103c0       $unwind$?dtor$2@?0??_Fput@?$num_put@DV?$ostreambuf_iterator@DU?$char_traits@D@std@@@std@@@std@@AEBA?AV?$ostreambuf_iterator@DU?$char_traits@D@std@@@2@V32@AEAVios_base@2@DPEBD_K@Z@4HA 00000001400473c0     main.obj
 0002:000103c0       $unwind$?dtor$2@?0??_Getffld@?$num_get@DV?$istreambuf_iterator@DU?$char_traits@D@std@@@std@@@std@@AEBAHPEADAEAV?$istreambuf_iterator@DU?$char_traits@D@std@@@2@1AEAVios_base@2@PEAH@Z@4HA 00000001400473c0     main.obj
 0002:000103c0       $unwind$?dtor$2@?0??_Getffldx@?$num_get@DV?$istreambuf_iterator@DU?$char_traits@D@std@@@std@@@std@@AEBAHPEADAEAV?$istreambuf_iterator@DU?$char_traits@D@std@@@2@1AEAVios_base@2@PEAH@Z@4HA 00000001400473c0     main.obj
 0002:000103c0       $unwind$?dtor$2@?0??_Iput@?$num_put@DV?$ostreambuf_iterator@DU?$char_traits@D@std@@@std@@@std@@AEBA?AV?$ostreambuf_iterator@DU?$char_traits@D@std@@@2@V32@AEAVios_base@2@DPEAD_K@Z@4HA 00000001400473c0     main.obj
 0002:000103c0       $unwind$?dtor$2@?0??do_get@?$num_get@DV?$istreambuf_iterator@DU?$char_traits@D@std@@@std@@@std@@MEBA?AV?$istreambuf_iterator@DU?$char_traits@D@std@@@2@V32@0AEAVios_base@2@AEAHAEA_N@Z@4HA 00000001400473c0     main.obj
 0002:000103c0       $unwind$?dtor$3@?0???0_Locinfo@std@@QEAA@PEBD@Z@4HA 00000001400473c0     main.obj
 0002:000103c0       $unwind$?dtor$3@?0??_Fput@?$num_put@DV?$ostreambuf_iterator@DU?$char_traits@D@std@@@std@@@std@@AEBA?AV?$ostreambuf_iterator@DU?$char_traits@D@std@@@2@V32@AEAVios_base@2@DPEBD_K@Z@4HA 00000001400473c0     main.obj
 0002:000103c0       $unwind$?dtor$3@?0??_Getffld@?$num_get@DV?$istreambuf_iterator@DU?$char_traits@D@std@@@std@@@std@@AEBAHPEADAEAV?$istreambuf_iterator@DU?$char_traits@D@std@@@2@1AEAVios_base@2@PEAH@Z@4HA 00000001400473c0     main.obj
 0002:000103c0       $unwind$?dtor$3@?0??_Getffldx@?$num_get@DV?$istreambuf_iterator@DU?$char_traits@D@std@@@std@@@std@@AEBAHPEADAEAV?$istreambuf_iterator@DU?$char_traits@D@std@@@2@1AEAVios_base@2@PEAH@Z@4HA 00000001400473c0     main.obj
 0002:000103c0       $unwind$?dtor$3@?0??_Iput@?$num_put@DV?$ostreambuf_iterator@DU?$char_traits@D@std@@@std@@@std@@AEBA?AV?$ostreambuf_iterator@DU?$char_traits@D@std@@@2@V32@AEAVios_base@2@DPEAD_K@Z@4HA 00000001400473c0     main.obj
 0002:000103c0       $unwind$?dtor$3@?0??do_get@?$num_get@DV?$istreambuf_iterator@DU?$char_traits@D@std@@@std@@@std@@MEBA?AV?$istreambuf_iterator@DU?$char_traits@D@std@@@2@V32@0AEAVios_base@2@AEAHAEA_N@Z@4HA 00000001400473c0     main.obj
 0002:000103c0       $unwind$?dtor$4@?0???0_Locinfo@std@@QEAA@PEBD@Z@4HA 00000001400473c0     main.obj
 0002:000103c0       $unwind$?dtor$4@?0??do_get@?$num_get@DV?$istreambuf_iterator@DU?$char_traits@D@std@@@std@@@std@@MEBA?AV?$istreambuf_iterator@DU?$char_traits@D@std@@@2@V32@0AEAVios_base@2@AEAHAEA_N@Z@4HA 00000001400473c0     main.obj
 0002:000103c0       $unwind$?dtor$5@?0???0_Locinfo@std@@QEAA@PEBD@Z@4HA 00000001400473c0     main.obj
 0002:000103c0       $unwind$?dtor$6@?0???0_Locinfo@std@@QEAA@PEBD@Z@4HA 00000001400473c0     main.obj
 0002:000103c0       $unwind$_query_new_handler$fin$0 00000001400473c0     libucrt:new_handler.obj
 0002:000103c0       $unwind$?fin$0@?0???$?RV<lambda_0ae27a3a962d80f24befdcbee591983d>@@AEAV<lambda_8d0ee55de4b1038c4002e0adecdf1839>@@V<lambda_dc504788e8f1664fe9b84e20bfb512f2>@@@?$__crt_seh_guarded_call@X@@QEAAX$$QEAV<lambda_0ae27a3a962d80f24befdcbee591983d>@@AEAV<lambda_8d0ee55de4b1038c4002e0adecdf1839>@@$$QEAV<lambda_dc504788e8f1664fe9b84e20bfb512f2>@@@Z@4HA 00000001400473c0     libucrt:per_thread_data.obj
 0002:000103c0       $unwind$?fin$0@?0???$?RV<lambda_2d41944a1d46af3157314b8a01080d33>@@AEAV<lambda_8f455de75cd7d7f24b4096f044d8b9e6>@@V<lambda_aa500f224e6afead328df44964fe2772>@@@?$__crt_seh_guarded_call@X@@QEAAX$$QEAV<lambda_2d41944a1d46af3157314b8a01080d33>@@AEAV<lambda_8f455de75cd7d7f24b4096f044d8b9e6>@@$$QEAV<lambda_aa500f224e6afead328df44964fe2772>@@@Z@4HA 00000001400473c0     libucrt:per_thread_data.obj
 0002:000103c0       $unwind$?fin$0@?0???$?RV<lambda_aa87e3671a710a21b5dc78c0bdf72e11>@@AEAV<lambda_92619d2358a28f41a33ba319515a20b9>@@V<lambda_6992ecaafeb10aed2b74cb1fae11a551>@@@?$__crt_seh_guarded_call@X@@QEAAX$$QEAV<lambda_aa87e3671a710a21b5dc78c0bdf72e11>@@AEAV<lambda_92619d2358a28f41a33ba319515a20b9>@@$$QEAV<lambda_6992ecaafeb10aed2b74cb1fae11a551>@@@Z@4HA 00000001400473c0     libucrt:per_thread_data.obj
 0002:000103c0       $unwind$?fin$0@?0???$?RV<lambda_f2e299630e499de9f9a165e60fcd3db5>@@AEAV<lambda_2ae9d31cdba2644fcbeaf08da7c24588>@@V<lambda_40d01ff24d0e7b3814fdbdcee8eab3c7>@@@?$__crt_seh_guarded_call@X@@QEAAX$$QEAV<lambda_f2e299630e499de9f9a165e60fcd3db5>@@AEAV<lambda_2ae9d31cdba2644fcbeaf08da7c24588>@@$$QEAV<lambda_40d01ff24d0e7b3814fdbdcee8eab3c7>@@@Z@4HA 00000001400473c0     libucrt:per_thread_data.obj
 0002:000103c0       $unwind$?fin$0@?0???$?RV<lambda_48fc4a32460bb0512d3b13f8499328be>@@AEAV<lambda_6c3dac0a4f3f9cefca9bb494422f9b77>@@V<lambda_0a2f2c9f9a56eb2b08bfa6ff61d331c5>@@@?$__crt_seh_guarded_call@H@@QEAAH$$QEAV<lambda_48fc4a32460bb0512d3b13f8499328be>@@AEAV<lambda_6c3dac0a4f3f9cefca9bb494422f9b77>@@$$QEAV<lambda_0a2f2c9f9a56eb2b08bfa6ff61d331c5>@@@Z@4HA 00000001400473c0     libucrt:winapi_thunks.obj
 0002:000103c0       $unwind$__acrt_update_thread_locale_data$fin$0 00000001400473c0     libucrt:locale_refcounting.obj
 0002:000103c0       $unwind$?fin$0@?0???$?RV<lambda_e9ce07acdb0b138e546925ae9f1a2c9c>@@AEAV<lambda_2116bde18c9e5f34230805ea4a4660ed>@@V<lambda_5d037afbfc54bf1ca80d3d1ee4062886>@@@?$__crt_seh_guarded_call@PEAD@@QEAAPEAD$$QEAV<lambda_e9ce07acdb0b138e546925ae9f1a2c9c>@@AEAV<lambda_2116bde18c9e5f34230805ea4a4660ed>@@$$QEAV<lambda_5d037afbfc54bf1ca80d3d1ee4062886>@@@Z@4HA 00000001400473c0     libucrt:setlocale.obj
 0002:000103c0       $unwind$?fin$0@?0???$?RV<lambda_1d892b297fdedeee07ed8124eeb2f2fa>@@AEAV<lambda_ffc046909424fd52df0ac47e64813305>@@V<lambda_01a7098693036236037e7cdb9bca3d73>@@@?$__crt_seh_guarded_call@X@@QEAAX$$QEAV<lambda_1d892b297fdedeee07ed8124eeb2f2fa>@@AEAV<lambda_ffc046909424fd52df0ac47e64813305>@@$$QEAV<lambda_01a7098693036236037e7cdb9bca3d73>@@@Z@4HA 00000001400473c0     libucrt:wsetlocale.obj
 0002:000103c0       $unwind$?fin$0@?0???$?RV<lambda_410d79af7f07d98d83a3f525b3859a53>@@AEAV<lambda_3e16ef9562a7dcce91392c22ab16ea36>@@V<lambda_38119f0e861e05405d8a144b9b982f0a>@@@?$__crt_seh_guarded_call@X@@QEAAX$$QEAV<lambda_410d79af7f07d98d83a3f525b3859a53>@@AEAV<lambda_3e16ef9562a7dcce91392c22ab16ea36>@@$$QEAV<lambda_38119f0e861e05405d8a144b9b982f0a>@@@Z@4HA 00000001400473c0     libucrt:wsetlocale.obj
 0002:000103c0       $unwind$?fin$0@?0???$?RV<lambda_e9338f07fe435327d97d4ef86149e64d>@@AEAV<lambda_2a444430fde8c29194d880d93eed5e8f>@@AEAV<lambda_02db5278e8aef8b5e4976579d73f5304>@@@?$__crt_seh_guarded_call@X@@QEAAX$$QEAV<lambda_e9338f07fe435327d97d4ef86149e64d>@@AEAV<lambda_2a444430fde8c29194d880d93eed5e8f>@@AEAV<lambda_02db5278e8aef8b5e4976579d73f5304>@@@Z@4HA 00000001400473c0     libucrt:wsetlocale.obj
 0002:000103c0       $unwind$?fin$0@?0???$?RV<lambda_751a882b2c74d4b022dec766aa51a29a>@@AEAV<lambda_628dfdc04ba53c8bfc02c9951375f3f5>@@V<lambda_f6c7be5f7998530c34de24c7437d6b54>@@@?$__crt_seh_guarded_call@H@@QEAAH$$QEAV<lambda_751a882b2c74d4b022dec766aa51a29a>@@AEAV<lambda_628dfdc04ba53c8bfc02c9951375f3f5>@@$$QEAV<lambda_f6c7be5f7998530c34de24c7437d6b54>@@@Z@4HA 00000001400473c0     libucrt:close.obj
 0002:000103c0       $unwind$?fin$0@?0???$?RV<lambda_a37b2b86f63e897a80ea819b0eb08c01>@@AEAV<lambda_38ce7e780aa69e748d6df282ebc68efe>@@V<lambda_99fb1378e971ab6e7edea83e3a7a83a2>@@@?$__crt_seh_guarded_call@H@@QEAAH$$QEAV<lambda_a37b2b86f63e897a80ea819b0eb08c01>@@AEAV<lambda_38ce7e780aa69e748d6df282ebc68efe>@@$$QEAV<lambda_99fb1378e971ab6e7edea83e3a7a83a2>@@@Z@4HA 00000001400473c0     libucrt:commit.obj
 0002:000103c0       $unwind$__acrt_initialize_lowio$fin$0 00000001400473c0     libucrt:ioinit.obj
 0002:000103c0       $unwind$?fin$0@?0???$common_lseek@_J@@YA_JH_JH@Z@4HA 00000001400473c0     libucrt:lseek.obj
 0002:000103c0       $unwind$__acrt_lowio_ensure_fh_exists$fin$0 00000001400473c0     libucrt:osfinfo.obj
 0002:000103c0       $unwind$_read$fin$0        00000001400473c0     libucrt:read.obj
 0002:000103c0       $unwind$_write$fin$0       00000001400473c0     libucrt:write.obj
 0002:000103c0       $unwind$?fin$0@?0???$?RV<lambda_efdfa57d1f175319df784efa44bb7b81>@@AEAV<lambda_5f0a4c1567f8adc6734073e5d1e1b35c>@@V<lambda_2e8a7d3640ea6ccb4c2413664c2db6fd>@@@?$__crt_seh_guarded_call@X@@QEAAX$$QEAV<lambda_efdfa57d1f175319df784efa44bb7b81>@@AEAV<lambda_5f0a4c1567f8adc6734073e5d1e1b35c>@@$$QEAV<lambda_2e8a7d3640ea6ccb4c2413664c2db6fd>@@@Z@4HA 00000001400473c0     libucrt:mbctype.obj
 0002:000103c0       $unwind$?fin$0@?0??update_thread_multibyte_data_internal@@YAPEAU__crt_multibyte_data@@QEAU__acrt_ptd@@QEAPEAU1@@Z@4HA 00000001400473c0     libucrt:mbctype.obj
 0002:000103c0       $unwind$?fin$0@?0???$?RV<lambda_450d765d439847d4c735a33c368b5fc0>@@AEAV<lambda_44731a7d0e6d81c3e6aa82d741081786>@@V<lambda_601a2a7da3b7a96e9554ac7215c4b07c>@@@?$__crt_seh_guarded_call@P6AXH@Z@@QEAAP6AXH@Z$$QEAV<lambda_450d765d439847d4c735a33c368b5fc0>@@AEAV<lambda_44731a7d0e6d81c3e6aa82d741081786>@@$$QEAV<lambda_601a2a7da3b7a96e9554ac7215c4b07c>@@@Z@4HA 00000001400473c0     libucrt:signal.obj
 0002:000103c0       $unwind$raise$fin$0        00000001400473c0     libucrt:signal.obj
 0002:000103c0       $unwind$?filt$0@?0???R<lambda_6e4b09c48022b2350581041d5f6b0c4c>@@QEBA@XZ@4HA 00000001400473c0     libucrt:exit.obj
 0002:000103c0       $unwind$?fin$0@?0???$?RV<lambda_d80eeec6fff315bfe5c115232f3240e3>@@AEAV<lambda_6e4b09c48022b2350581041d5f6b0c4c>@@V<lambda_2358e3775559c9db80273638284d5e45>@@@?$__crt_seh_guarded_call@X@@QEAAX$$QEAV<lambda_d80eeec6fff315bfe5c115232f3240e3>@@AEAV<lambda_6e4b09c48022b2350581041d5f6b0c4c>@@$$QEAV<lambda_2358e3775559c9db80273638284d5e45>@@@Z@4HA 00000001400473c0     libucrt:exit.obj
 0002:000103c0       $unwind$?fin$0@?0???$?RV<lambda_638799b9deba96c50f710eeac98168cd>@@AEAV<lambda_22ebabd17bc4fa466a2aca6d8deb888d>@@V<lambda_a6f7d7db0129f75315ebf26d50c089f1>@@@?$__crt_seh_guarded_call@H@@QEAAH$$QEAV<lambda_638799b9deba96c50f710eeac98168cd>@@AEAV<lambda_22ebabd17bc4fa466a2aca6d8deb888d>@@$$QEAV<lambda_a6f7d7db0129f75315ebf26d50c089f1>@@@Z@4HA 00000001400473c0     libucrt:onexit.obj
 0002:000103c0       $unwind$?fin$0@?0???$?RV<lambda_7777bce6b2f8c936911f934f8298dc43>@@AEAV<lambda_f03950bc5685219e0bcd2087efbe011e>@@V<lambda_3883c3dff614d5e0c5f61bb1ac94921c>@@@?$__crt_seh_guarded_call@H@@QEAAH$$QEAV<lambda_7777bce6b2f8c936911f934f8298dc43>@@AEAV<lambda_f03950bc5685219e0bcd2087efbe011e>@@$$QEAV<lambda_3883c3dff614d5e0c5f61bb1ac94921c>@@@Z@4HA 00000001400473c0     libucrt:onexit.obj
 0002:000103c0       $unwind$_fcloseall$fin$0   00000001400473c0     libucrt:closeall.obj
 0002:000103c0       $unwind$fclose$fin$0       00000001400473c0     libucrt:fclose.obj
 0002:000103c0       $unwind$?fin$0@?0???$?RV<lambda_842d9ff0dc9ef11c61343bbaebe7f885>@@AEAV<lambda_c5860995281e5c4ce005b3de8f5874ee>@@V<lambda_d90129c13df834fdcbf8d2b88dafcf2d>@@@?$__crt_seh_guarded_call@X@@QEAAX$$QEAV<lambda_842d9ff0dc9ef11c61343bbaebe7f885>@@AEAV<lambda_c5860995281e5c4ce005b3de8f5874ee>@@$$QEAV<lambda_d90129c13df834fdcbf8d2b88dafcf2d>@@@Z@4HA 00000001400473c0     libucrt:fflush.obj
 0002:000103c0       $unwind$?fin$0@?0???$?RV<lambda_886d6c58226a84441f68b9f2b8217b83>@@AEAV<lambda_ab61a845afdef5b7c387490eaf3616ee>@@V<lambda_f7f22ab5edc0698d5f6905b0d3f44752>@@@?$__crt_seh_guarded_call@X@@QEAAX$$QEAV<lambda_886d6c58226a84441f68b9f2b8217b83>@@AEAV<lambda_ab61a845afdef5b7c387490eaf3616ee>@@$$QEAV<lambda_f7f22ab5edc0698d5f6905b0d3f44752>@@@Z@4HA 00000001400473c0     libucrt:fflush.obj
 0002:000103c0       $unwind$?fin$0@?0???$?RV<lambda_c376a267cfb53b6959b3b692ec76b120>@@AEAV<lambda_9a32fed5bf61b6b509b2d3f6003082a1>@@V<lambda_572fbb9fa0ab338edf41edfd4b5fcc8d>@@@?$__crt_seh_guarded_call@H@@QEAAH$$QEAV<lambda_c376a267cfb53b6959b3b692ec76b120>@@AEAV<lambda_9a32fed5bf61b6b509b2d3f6003082a1>@@$$QEAV<lambda_572fbb9fa0ab338edf41edfd4b5fcc8d>@@@Z@4HA 00000001400473c0     libucrt:fflush.obj
 0002:000103c0       $unwind$fgetc$fin$0        00000001400473c0     libucrt:fgetc.obj
 0002:000103c0       $unwind$fputc$fin$0        00000001400473c0     libucrt:fputc.obj
 0002:000103c0       $unwind$?fin$0@?0??common_fseek@@YAHV__crt_stdio_stream@@_JH@Z@4HA 00000001400473c0     libucrt:fseek.obj
 0002:000103c0       $unwind$?fin$0@?0???$common_ftell@_J@@YA_JV__crt_stdio_stream@@@Z@4HA 00000001400473c0     libucrt:ftell.obj
 0002:000103c0       $unwind$?fin$0@?0???$?RV<lambda_2831f20263db5b546e098b45503eb778>@@AEAV<lambda_5856287d7ecd2be6c9197bb4007c3f6e>@@V<lambda_0838d7e100fbcbd261b69cfea6abb102>@@@?$__crt_seh_guarded_call@_K@@QEAA_K$$QEAV<lambda_2831f20263db5b546e098b45503eb778>@@AEAV<lambda_5856287d7ecd2be6c9197bb4007c3f6e>@@$$QEAV<lambda_0838d7e100fbcbd261b69cfea6abb102>@@@Z@4HA 00000001400473c0     libucrt:fwrite.obj
 0002:000103c0       $unwind$?fin$0@?0???$?RV<lambda_c8e61daa512c69656564d9dbd35486e8>@@AEAV<lambda_b4f66040be5f354a654fb75160c27bfc>@@V<lambda_2ca749746f96040ea1ff4296b14379df>@@@?$__crt_seh_guarded_call@H@@QEAAH$$QEAV<lambda_c8e61daa512c69656564d9dbd35486e8>@@AEAV<lambda_b4f66040be5f354a654fb75160c27bfc>@@$$QEAV<lambda_2ca749746f96040ea1ff4296b14379df>@@@Z@4HA 00000001400473c0     libucrt:setvbuf.obj
 0002:000103c0       $unwind$ungetc$fin$0       00000001400473c0     libucrt:ungetc.obj
 0002:000103c0       $unwind$_ctrlfp$filt$0     00000001400473c0     libucrt:fpctrl.obj
 0002:000103c0       $unwind$common_control87$filt$0 00000001400473c0     libucrt:ieee.obj
 0002:000103c0       $unwind$?filt$0@?0??__scrt_common_main_seh@@YAHXZ@4HA 00000001400473c0     LIBCMT:exe_main.obj
 0002:000103c0       $unwind$_IsNonwritableInCurrentImage$filt$0 00000001400473c0     LIBCMT:pesect.obj
 0002:000103c0       $unwind$?dtor$0@?0???0?$basic_istream@DU?$char_traits@D@std@@@std@@QEAA@PEAV?$basic_streambuf@DU?$char_traits@D@std@@@1@_N@Z@4HA 00000001400473c0     libcpmt:cin.obj
 0002:000103c0       $unwind$?dtor$0@?0??_Getcat@?$codecvt@DDU_Mbstatet@@@std@@SA_KPEAPEBVfacet@locale@2@PEBV42@@Z@4HA 00000001400473c0     libcpmt:cin.obj
 0002:000103c0       $unwind$?dtor$0@?0???0?$basic_ostream@DU?$char_traits@D@std@@@std@@QEAA@PEAV?$basic_streambuf@DU?$char_traits@D@std@@@1@_N@Z@4HA 00000001400473c0     libcpmt:cout.obj
 0002:000103c0       $unwind$?filt$0@?0??CxxCallCatchBlock@__FrameHandler3@@SAPEAXPEAU_EXCEPTION_RECORD@@@Z@4HA 00000001400473c0     libvcruntime:frame.obj
 0002:000103c0       $unwind$?filt$0@?0??CxxCallCatchBlock@__FrameHandler4@@SAPEAXPEAU_EXCEPTION_RECORD@@@Z@4HA 00000001400473c0     libvcruntime:frame.obj
 0002:000103c0       $unwind$?filt$0@?0??FrameUnwindToState@__FrameHandler3@@SAXPEA_KPEAU_xDISPATCHER_CONTEXT@@PEBU_s_FuncInfo@@H@Z@4HA 00000001400473c0     libvcruntime:frame.obj
 0002:000103c0       $unwind$?fin$1@?0??FrameUnwindToState@__FrameHandler3@@SAXPEA_KPEAU_xDISPATCHER_CONTEXT@@PEBU_s_FuncInfo@@H@Z@4HA 00000001400473c0     libvcruntime:frame.obj
 0002:000103c8       $unwind$??0?$basic_string@DU?$char_traits@D@std@@V?$allocator@D@2@@std@@QEAA@QEBD_K@Z 00000001400473c8     main.obj
 0002:000103c8       $unwind$??0?$basic_string@DU?$char_traits@D@std@@V?$allocator@D@2@@std@@QEAA@_KD@Z 00000001400473c8     main.obj
 0002:000103d8       $cppxdata$??0?$basic_string@DU?$char_traits@D@std@@V?$allocator@D@2@@std@@QEAA@QEBD_K@Z 00000001400473d8     main.obj
 0002:000103d8       $cppxdata$??0?$basic_string@DU?$char_traits@D@std@@V?$allocator@D@2@@std@@QEAA@_KD@Z 00000001400473d8     main.obj
 0002:000103e1       $ip2state$??0?$basic_string@DU?$char_traits@D@std@@V?$allocator@D@2@@std@@QEAA@QEBD_K@Z 00000001400473e1     main.obj
 0002:000103e1       $ip2state$??0?$basic_string@DU?$char_traits@D@std@@V?$allocator@D@2@@std@@QEAA@_KD@Z 00000001400473e1     main.obj
 0002:000103e8       $unwind$??0?$basic_string@DU?$char_traits@D@std@@V?$allocator@D@2@@std@@QEAA@QEBD@Z 00000001400473e8     main.obj
 0002:000103f8       $cppxdata$??0?$basic_string@DU?$char_traits@D@std@@V?$allocator@D@2@@std@@QEAA@QEBD@Z 00000001400473f8     main.obj
 0002:00010401       $ip2state$??0?$basic_string@DU?$char_traits@D@std@@V?$allocator@D@2@@std@@QEAA@QEBD@Z 0000000140047401     main.obj
 0002:00010408       $unwind$??$?0U?$default_delete@V_Facet_base@std@@@std@@$0A@@?$unique_ptr@V_Facet_base@std@@U?$default_delete@V_Facet_base@std@@@2@@std@@QEAA@PEAV_Facet_base@1@@Z 0000000140047408     main.obj
 0002:00010408       $unwind$??$?9DU?$char_traits@D@std@@@std@@YA_NAEBV?$istreambuf_iterator@DU?$char_traits@D@std@@@0@0@Z 0000000140047408     main.obj
 0002:00010408       $unwind$??$_Construct_in_place@PEADAEAPEAD@std@@YAXAEAPEAD0@Z 0000000140047408     main.obj
 0002:00010408       $unwind$??$_Construct_in_place@PEADAEBQEAD@std@@YAXAEAPEADAEBQEAD@Z 0000000140047408     main.obj
 0002:00010408       $unwind$??0?$basic_string@DU?$char_traits@D@std@@V?$allocator@D@2@@std@@QEAA@$$QEAV01@@Z 0000000140047408     main.obj
 0002:00010408       $unwind$??0_Sentry_base@?$basic_istream@DU?$char_traits@D@std@@@std@@QEAA@AEAV12@@Z 0000000140047408     main.obj
 0002:00010408       $unwind$??0_Sentry_base@?$basic_ostream@DU?$char_traits@D@std@@@std@@QEAA@AEAV12@@Z 0000000140047408     main.obj
 0002:00010408       $unwind$??5?$basic_istream@DU?$char_traits@D@std@@@std@@QEAAAEAV01@AEAH@Z 0000000140047408     main.obj
 0002:00010408       $unwind$??8std@@YA_NAEBVerror_condition@0@0@Z 0000000140047408     main.obj
 0002:00010408       $unwind$??R?$default_delete@V_Facet_base@std@@@std@@QEBAXPEAV_Facet_base@1@@Z 0000000140047408     main.obj
 0002:00010408       $unwind$?_Eos@?$basic_string@DU?$char_traits@D@std@@V?$allocator@D@2@@std@@AEAAX_K@Z 0000000140047408     main.obj
 0002:00010408       $unwind$?_Memcpy_val_from@?$basic_string@DU?$char_traits@D@std@@V?$allocator@D@2@@std@@AEAAXAEBV12@@Z 0000000140047408     main.obj
 0002:00010408       $unwind$?do_falsename@?$numpunct@D@std@@MEBA?AV?$basic_string@DU?$char_traits@D@std@@V?$allocator@D@2@@2@XZ 0000000140047408     main.obj
 0002:00010408       $unwind$?do_grouping@?$numpunct@D@std@@MEBA?AV?$basic_string@DU?$char_traits@D@std@@V?$allocator@D@2@@2@XZ 0000000140047408     main.obj
 0002:00010408       $unwind$?do_truename@?$numpunct@D@std@@MEBA?AV?$basic_string@DU?$char_traits@D@std@@V?$allocator@D@2@@2@XZ 0000000140047408     main.obj
 0002:00010408       $unwind$?equal@?$istreambuf_iterator@DU?$char_traits@D@std@@@std@@QEBA_NAEBV12@@Z 0000000140047408     main.obj
 0002:00010408       $unwind$?falsename@?$numpunct@D@std@@QEBA?AV?$basic_string@DU?$char_traits@D@std@@V?$allocator@D@2@@2@XZ 0000000140047408     main.obj
 0002:00010408       $unwind$?getloc@ios_base@std@@QEBA?AVlocale@2@XZ 0000000140047408     main.obj
 0002:00010408       $unwind$?grouping@?$numpunct@D@std@@QEBA?AV?$basic_string@DU?$char_traits@D@std@@V?$allocator@D@2@@2@XZ 0000000140047408     main.obj
 0002:00010408       $unwind$?truename@?$numpunct@D@std@@QEBA?AV?$basic_string@DU?$char_traits@D@std@@V?$allocator@D@2@@2@XZ 0000000140047408     main.obj
 0002:00010410       $unwind$?_Take_contents@?$basic_string@DU?$char_traits@D@std@@V?$allocator@D@2@@std@@AEAAXAEAV12@@Z 0000000140047410     main.obj
 0002:00010420       $cppxdata$??$_Deallocate@$0BA@$0A@@std@@YAXPEAX_K@Z 0000000140047420     main.obj
 0002:00010420       $cppxdata$??0?$istreambuf_iterator@DU?$char_traits@D@std@@@std@@QEAA@AEAV?$basic_istream@DU?$char_traits@D@std@@@1@@Z 0000000140047420     main.obj
 0002:00010420       $cppxdata$??0locale@std@@QEAA@XZ 0000000140047420     main.obj
 0002:00010420       $cppxdata$??1_Locinfo@std@@QEAA@XZ 0000000140047420     main.obj
 0002:00010420       $cppxdata$??1_Sentry_base@?$basic_istream@DU?$char_traits@D@std@@@std@@QEAA@XZ 0000000140047420     main.obj
 0002:00010420       $cppxdata$??1_Sentry_base@?$basic_ostream@DU?$char_traits@D@std@@@std@@QEAA@XZ 0000000140047420     main.obj
 0002:00010420       $cppxdata$??1sentry@?$basic_ostream@DU?$char_traits@D@std@@@std@@QEAA@XZ 0000000140047420     main.obj
 0002:00010420       $cppxdata$?_Take_contents@?$basic_string@DU?$char_traits@D@std@@V?$allocator@D@2@@std@@AEAAXAEAV12@@Z 0000000140047420     main.obj
 0002:00010420       $cppxdata$?_Tidy_deallocate@?$basic_string@DU?$char_traits@D@std@@V?$allocator@D@2@@std@@AEAAXXZ 0000000140047420     main.obj
 0002:00010425       $ip2state$??$_Deallocate@$0BA@$0A@@std@@YAXPEAX_K@Z 0000000140047425     main.obj
 0002:00010425       $ip2state$??0?$istreambuf_iterator@DU?$char_traits@D@std@@@std@@QEAA@AEAV?$basic_istream@DU?$char_traits@D@std@@@1@@Z 0000000140047425     main.obj
 0002:00010425       $ip2state$??0locale@std@@QEAA@XZ 0000000140047425     main.obj
 0002:00010425       $ip2state$??1_Locinfo@std@@QEAA@XZ 0000000140047425     main.obj
 0002:00010425       $ip2state$??1_Sentry_base@?$basic_istream@DU?$char_traits@D@std@@@std@@QEAA@XZ 0000000140047425     main.obj
 0002:00010425       $ip2state$??1_Sentry_base@?$basic_ostream@DU?$char_traits@D@std@@@std@@QEAA@XZ 0000000140047425     main.obj
 0002:00010425       $ip2state$??1sentry@?$basic_ostream@DU?$char_traits@D@std@@@std@@QEAA@XZ 0000000140047425     main.obj
 0002:00010425       $ip2state$?_Take_contents@?$basic_string@DU?$char_traits@D@std@@V?$allocator@D@2@@std@@AEAAXAEAV12@@Z 0000000140047425     main.obj
 0002:00010425       $ip2state$?_Tidy_deallocate@?$basic_string@DU?$char_traits@D@std@@V?$allocator@D@2@@std@@AEAAXXZ 0000000140047425     main.obj
 0002:00010428       $unwind$?append@?$basic_string@DU?$char_traits@D@std@@V?$allocator@D@2@@std@@QEAAAEAV12@QEBD_K@Z 0000000140047428     main.obj
 0002:00010428       $unwind$?append@?$basic_string@DU?$char_traits@D@std@@V?$allocator@D@2@@std@@QEAAAEAV12@_KD@Z 0000000140047428     main.obj
 0002:00010430       $unwind$?insert@?$basic_string@DU?$char_traits@D@std@@V?$allocator@D@2@@std@@QEAAAEAV12@_K0D@Z 0000000140047430     main.obj
 0002:00010438       $unwind$?push_back@?$basic_string@DU?$char_traits@D@std@@V?$allocator@D@2@@std@@QEAAXD@Z 0000000140047438     main.obj
 0002:00010440       $unwind$?max_size@?$basic_string@DU?$char_traits@D@std@@V?$allocator@D@2@@std@@QEBA_KXZ 0000000140047440     main.obj
 0002:00010440       $unwind$_towlower_l        0000000140047440     libucrt:towlower.obj
 0002:00010448       $unwind$??$_Find_unchecked@PEBDD@std@@YAPEBDPEBDQEBDAEBD@Z 0000000140047448     main.obj
 0002:00010448       $unwind$?_Calculate_growth@?$basic_string@DU?$char_traits@D@std@@V?$allocator@D@2@@std@@CA_K_K00@Z 0000000140047448     main.obj
 0002:00010448       $unwind$?equivalent@error_category@std@@UEBA_NAEBVerror_code@2@H@Z 0000000140047448     main.obj
 0002:00010448       $unwind$?message@_Iostream_error_category2@std@@UEBA?AV?$basic_string@DU?$char_traits@D@std@@V?$allocator@D@2@@2@H@Z 0000000140047448     main.obj
 0002:00010448       $unwind$?resize@?$basic_string@DU?$char_traits@D@std@@V?$allocator@D@2@@std@@QEAAX_KD@Z 0000000140047448     main.obj
 0002:00010450       $unwind$?_Tidy_deallocate@?$basic_string@DU?$char_traits@D@std@@V?$allocator@D@2@@std@@AEAAXXZ 0000000140047450     main.obj
 0002:00010460       $unwind$?clear@?$basic_ios@DU?$char_traits@D@std@@@std@@QEAAXH_N@Z 0000000140047460     main.obj
 0002:00010460       $unwind$?equivalent@error_category@std@@UEBA_NHAEBVerror_condition@2@@Z 0000000140047460     main.obj
 0002:00010468       $unwind$?_Makestr@_System_error@std@@CA?AV?$basic_string@DU?$char_traits@D@std@@V?$allocator@D@2@@2@Verror_code@2@V32@@Z 0000000140047468     main.obj
 0002:0001047c       $cppxdata$?_Makestr@_System_error@std@@CA?AV?$basic_string@DU?$char_traits@D@std@@V?$allocator@D@2@@2@Verror_code@2@V32@@Z 000000014004747c     main.obj
 0002:00010485       $stateUnwindMap$?_Makestr@_System_error@std@@CA?AV?$basic_string@DU?$char_traits@D@std@@V?$allocator@D@2@@2@Verror_code@2@V32@@Z 0000000140047485     main.obj
 0002:00010490       $ip2state$?_Makestr@_System_error@std@@CA?AV?$basic_string@DU?$char_traits@D@std@@V?$allocator@D@2@@2@Verror_code@2@V32@@Z 0000000140047490     main.obj
 0002:0001049c       $unwind$??0_System_error@std@@IEAA@Verror_code@1@AEBV?$basic_string@DU?$char_traits@D@std@@V?$allocator@D@2@@1@@Z 000000014004749c     main.obj
 0002:000104b4       $cppxdata$??0_System_error@std@@IEAA@Verror_code@1@AEBV?$basic_string@DU?$char_traits@D@std@@V?$allocator@D@2@@1@@Z 00000001400474b4     main.obj
 0002:000104bd       $stateUnwindMap$??0_System_error@std@@IEAA@Verror_code@1@AEBV?$basic_string@DU?$char_traits@D@std@@V?$allocator@D@2@@1@@Z 00000001400474bd     main.obj
 0002:000104c3       $ip2state$??0_System_error@std@@IEAA@Verror_code@1@AEBV?$basic_string@DU?$char_traits@D@std@@V?$allocator@D@2@@1@@Z 00000001400474c3     main.obj
 0002:000104cc       $unwind$??0_System_error@std@@QEAA@AEBV01@@Z 00000001400474cc     main.obj
 0002:000104d8       $unwind$??0system_error@std@@QEAA@Verror_code@1@PEBD@Z 00000001400474d8     main.obj
 0002:000104f0       $cppxdata$??0system_error@std@@QEAA@Verror_code@1@PEBD@Z 00000001400474f0     main.obj
 0002:000104f9       $stateUnwindMap$??0system_error@std@@QEAA@Verror_code@1@PEBD@Z 00000001400474f9     main.obj
 0002:000104ff       $ip2state$??0system_error@std@@QEAA@Verror_code@1@PEBD@Z 00000001400474ff     main.obj
 0002:00010508       $unwind$??0_Locinfo@std@@QEAA@PEBD@Z 0000000140047508     main.obj
 0002:00010518       $cppxdata$??0_Locinfo@std@@QEAA@PEBD@Z 0000000140047518     main.obj
 0002:00010521       $stateUnwindMap$??0_Locinfo@std@@QEAA@PEBD@Z 0000000140047521     main.obj
 0002:00010545       $ip2state$??0_Locinfo@std@@QEAA@PEBD@Z 0000000140047545     main.obj
 0002:00010558       $unwind$??0locale@std@@QEAA@XZ 0000000140047558     main.obj
 0002:00010558       $unwind$??1_Locinfo@std@@QEAA@XZ 0000000140047558     main.obj
 0002:00010568       $unwind$?_Getctype@_Locinfo@std@@QEBA?AU_Ctypevec@@XZ 0000000140047568     main.obj
 0002:00010574       $unwind$?_Getcvt@_Locinfo@std@@QEBA?AU_Cvtvec@@XZ 0000000140047574     main.obj
 0002:00010588       $unwind$?is@?$ctype@D@std@@QEBA_NFD@Z 0000000140047588     main.obj
 0002:00010590       $unwind$?do_narrow@?$ctype@D@std@@MEBAPEBDPEBD0DPEAD@Z 0000000140047590     main.obj
 0002:00010590       $unwind$?do_widen@?$ctype@D@std@@MEBAPEBDPEBD0PEAD@Z 0000000140047590     main.obj
 0002:00010590       $unwind$?widen@?$ctype@D@std@@QEBAPEBDPEBD0PEAD@Z 0000000140047590     main.obj
 0002:00010598       $unwind$??0?$ctype@D@std@@QEAA@AEBV_Locinfo@1@_K@Z 0000000140047598     main.obj
 0002:000105a8       $cppxdata$??0?$ctype@D@std@@QEAA@AEBV_Locinfo@1@_K@Z 00000001400475a8     main.obj
 0002:000105b1       $stateUnwindMap$??0?$ctype@D@std@@QEAA@AEBV_Locinfo@1@_K@Z 00000001400475b1     main.obj
 0002:000105b7       $ip2state$??0?$ctype@D@std@@QEAA@AEBV_Locinfo@1@_K@Z 00000001400475b7     main.obj
 0002:000105b7       $ip2state$??0?$num_get@DV?$istreambuf_iterator@DU?$char_traits@D@std@@@std@@@std@@QEAA@AEBV_Locinfo@1@_K@Z 00000001400475b7     main.obj
 0002:000105b7       $ip2state$??0?$num_put@DV?$ostreambuf_iterator@DU?$char_traits@D@std@@@std@@@std@@QEAA@AEBV_Locinfo@1@_K@Z 00000001400475b7     main.obj
 0002:000105c0       $unwind$?_Getcat@?$ctype@D@std@@SA_KPEAPEBVfacet@locale@2@PEBV42@@Z 00000001400475c0     main.obj
 0002:000105d0       $cppxdata$?_Getcat@?$ctype@D@std@@SA_KPEAPEBVfacet@locale@2@PEBV42@@Z 00000001400475d0     main.obj
 0002:000105d9       $stateUnwindMap$?_Getcat@?$ctype@D@std@@SA_KPEAPEBVfacet@locale@2@PEBV42@@Z 00000001400475d9     main.obj
 0002:000105d9       $stateUnwindMap$?_Getcat@?$numpunct@D@std@@SA_KPEAPEBVfacet@locale@2@PEBV42@@Z 00000001400475d9     main.obj
 0002:000105e9       $ip2state$?_Getcat@?$ctype@D@std@@SA_KPEAPEBVfacet@locale@2@PEBV42@@Z 00000001400475e9     main.obj
 0002:000105e9       $ip2state$?_Getcat@?$num_get@DV?$istreambuf_iterator@DU?$char_traits@D@std@@@std@@@std@@SA_KPEAPEBVfacet@locale@2@PEBV42@@Z 00000001400475e9     main.obj
 0002:000105e9       $ip2state$?_Getcat@?$num_put@DV?$ostreambuf_iterator@DU?$char_traits@D@std@@@std@@@std@@SA_KPEAPEBVfacet@locale@2@PEBV42@@Z 00000001400475e9     main.obj
 0002:000105f8       $unwind$?_Init@?$ctype@D@std@@IEAAXAEBV_Locinfo@2@@Z 00000001400475f8     main.obj
 0002:00010604       $unwind$??$use_facet@V?$ctype@D@std@@@std@@YAAEBV?$ctype@D@0@AEBVlocale@0@@Z 0000000140047604     main.obj
 0002:00010604       $unwind$??$use_facet@V?$num_get@DV?$istreambuf_iterator@DU?$char_traits@D@std@@@std@@@std@@@std@@YAAEBV?$num_get@DV?$istreambuf_iterator@DU?$char_traits@D@std@@@std@@@0@AEBVlocale@0@@Z 0000000140047604     main.obj
 0002:00010604       $unwind$??$use_facet@V?$num_put@DV?$ostreambuf_iterator@DU?$char_traits@D@std@@@std@@@std@@@std@@YAAEBV?$num_put@DV?$ostreambuf_iterator@DU?$char_traits@D@std@@@std@@@0@AEBVlocale@0@@Z 0000000140047604     main.obj
 0002:00010604       $unwind$??$use_facet@V?$numpunct@D@std@@@std@@YAAEBV?$numpunct@D@0@AEBVlocale@0@@Z 0000000140047604     main.obj
 0002:00010614       $cppxdata$??$use_facet@V?$ctype@D@std@@@std@@YAAEBV?$ctype@D@0@AEBVlocale@0@@Z 0000000140047614     main.obj
 0002:00010614       $cppxdata$??$use_facet@V?$num_get@DV?$istreambuf_iterator@DU?$char_traits@D@std@@@std@@@std@@@std@@YAAEBV?$num_get@DV?$istreambuf_iterator@DU?$char_traits@D@std@@@std@@@0@AEBVlocale@0@@Z 0000000140047614     main.obj
 0002:00010614       $cppxdata$??$use_facet@V?$num_put@DV?$ostreambuf_iterator@DU?$char_traits@D@std@@@std@@@std@@@std@@YAAEBV?$num_put@DV?$ostreambuf_iterator@DU?$char_traits@D@std@@@std@@@0@AEBVlocale@0@@Z 0000000140047614     main.obj
 0002:00010614       $cppxdata$??$use_facet@V?$numpunct@D@std@@@std@@YAAEBV?$numpunct@D@0@AEBVlocale@0@@Z 0000000140047614     main.obj
 0002:0001061d       $stateUnwindMap$??$use_facet@V?$ctype@D@std@@@std@@YAAEBV?$ctype@D@0@AEBVlocale@0@@Z 000000014004761d     main.obj
 0002:0001061d       $stateUnwindMap$??$use_facet@V?$num_get@DV?$istreambuf_iterator@DU?$char_traits@D@std@@@std@@@std@@@std@@YAAEBV?$num_get@DV?$istreambuf_iterator@DU?$char_traits@D@std@@@std@@@0@AEBVlocale@0@@Z 000000014004761d     main.obj
 0002:0001061d       $stateUnwindMap$??$use_facet@V?$num_put@DV?$ostreambuf_iterator@DU?$char_traits@D@std@@@std@@@std@@@std@@YAAEBV?$num_put@DV?$ostreambuf_iterator@DU?$char_traits@D@std@@@std@@@0@AEBVlocale@0@@Z 000000014004761d     main.obj
 0002:0001061d       $stateUnwindMap$??$use_facet@V?$numpunct@D@std@@@std@@YAAEBV?$numpunct@D@0@AEBVlocale@0@@Z 000000014004761d     main.obj
 0002:00010628       $ip2state$??$use_facet@V?$ctype@D@std@@@std@@YAAEBV?$ctype@D@0@AEBVlocale@0@@Z 0000000140047628     main.obj
 0002:00010628       $ip2state$??$use_facet@V?$num_get@DV?$istreambuf_iterator@DU?$char_traits@D@std@@@std@@@std@@@std@@YAAEBV?$num_get@DV?$istreambuf_iterator@DU?$char_traits@D@std@@@std@@@0@AEBVlocale@0@@Z 0000000140047628     main.obj
 0002:00010628       $ip2state$??$use_facet@V?$num_put@DV?$ostreambuf_iterator@DU?$char_traits@D@std@@@std@@@std@@@std@@YAAEBV?$num_put@DV?$ostreambuf_iterator@DU?$char_traits@D@std@@@std@@@0@AEBVlocale@0@@Z 0000000140047628     main.obj
 0002:00010628       $ip2state$??$use_facet@V?$numpunct@D@std@@@std@@YAAEBV?$numpunct@D@0@AEBVlocale@0@@Z 0000000140047628     main.obj
 0002:00010634       $unwind$??0failure@ios_base@std@@QEAA@PEBDAEBVerror_code@2@@Z 0000000140047634     main.obj
 0002:00010640       $unwind$?clear@ios_base@std@@QEAAXH_N@Z 0000000140047640     main.obj
 0002:00010648       $unwind$??R<lambda_319d5e083f45f90dcdce5dce53cbb275>@@QEBA@QEADQEBD_KD@Z 0000000140047648     main.obj
 0002:00010648       $unwind$??R<lambda_65e615be2a453ca0576c979606f46740>@@QEBA@QEADQEBD_K12@Z 0000000140047648     main.obj
 0002:00010648       $unwind$??R<lambda_b986da8d428e4af07c64af60eec09b61>@@QEBA@QEADQEBD_K22D@Z 0000000140047648     main.obj
 0002:00010648       $unwind$??R<lambda_e1befb086ad3257e3f042a63030725f7>@@QEBA@QEADQEBD_K2D@Z 0000000140047648     main.obj
 0002:00010648       $unwind$?_Stofx_v2@std@@YAMPEBDPEAPEADHPEAH@Z 0000000140047648     main.obj
 0002:00010650       $unwind$main               0000000140047650     main.obj
 0002:00010658       $unwind$??$?0AEAPEAV_Facet_base@std@@@?$_Compressed_pair@U?$default_delete@V_Facet_base@std@@@std@@PEAV_Facet_base@2@$00@std@@QEAA@U_Zero_then_variadic_args_t@1@AEAPEAV_Facet_base@1@@Z 0000000140047658     main.obj
 0002:00010658       $unwind$??$?0V?$allocator@D@std@@$$V@?$_Compressed_pair@V?$allocator@D@std@@V?$_String_val@U?$_Simple_types@D@std@@@2@$00@std@@QEAA@U_One_then_variadic_args_t@1@$$QEAV?$allocator@D@1@@Z 0000000140047658     main.obj
 0002:00010658       $unwind$?setstate@?$basic_ios@DU?$char_traits@D@std@@@std@@QEAAXH_N@Z 0000000140047658     main.obj
 0002:00010660       $unwind$?_Osfx@?$basic_ostream@DU?$char_traits@D@std@@@std@@QEAAXXZ 0000000140047660     main.obj
 0002:00010670       $cppxdata$?_Osfx@?$basic_ostream@DU?$char_traits@D@std@@@std@@QEAAXXZ 0000000140047670     main.obj
 0002:0001067d       $stateUnwindMap$?_Osfx@?$basic_ostream@DU?$char_traits@D@std@@@std@@QEAAXXZ 000000014004767d     main.obj
 0002:00010680       $tryMap$?_Osfx@?$basic_ostream@DU?$char_traits@D@std@@@std@@QEAAXXZ 0000000140047680     main.obj
 0002:00010688       $handlerMap$?_Osfx@?$basic_ostream@DU?$char_traits@D@std@@@std@@QEAAXXZ 0000000140047688     main.obj
 0002:0001068f       $ip2state$?_Osfx@?$basic_ostream@DU?$char_traits@D@std@@@std@@QEAAXXZ 000000014004768f     main.obj
 0002:00010698       $unwind$?catch$0@?0??_Osfx@?$basic_ostream@DU?$char_traits@D@std@@@std@@QEAAXXZ@4HA 0000000140047698     main.obj
 0002:00010698       $unwind$?catch$1@?0???$?6U?$char_traits@D@std@@@std@@YAAEAV?$basic_ostream@DU?$char_traits@D@std@@@0@AEAV10@PEBD@Z@4HA 0000000140047698     main.obj
 0002:00010698       $unwind$?catch$1@?0??_Ipfx@?$basic_istream@DU?$char_traits@D@std@@@std@@QEAA_N_N@Z@4HA 0000000140047698     main.obj
 0002:00010698       $unwind$?catch$1@?0??flush@?$basic_ostream@DU?$char_traits@D@std@@@std@@QEAAAEAV12@XZ@4HA 0000000140047698     main.obj
 0002:000106a0       $unwind$??6?$basic_ostream@DU?$char_traits@D@std@@@std@@QEAAAEAV01@N@Z 00000001400476a0     main.obj
 0002:000106b4       $cppxdata$??6?$basic_ostream@DU?$char_traits@D@std@@@std@@QEAAAEAV01@N@Z 00000001400476b4     main.obj
 0002:000106c1       $stateUnwindMap$??6?$basic_ostream@DU?$char_traits@D@std@@@std@@QEAAAEAV01@N@Z 00000001400476c1     main.obj
 0002:000106ce       $tryMap$??6?$basic_ostream@DU?$char_traits@D@std@@@std@@QEAAAEAV01@N@Z 00000001400476ce     main.obj
 0002:000106d6       $handlerMap$??6?$basic_ostream@DU?$char_traits@D@std@@@std@@QEAAAEAV01@N@Z 00000001400476d6     main.obj
 0002:000106dd       $ip2state$??6?$basic_ostream@DU?$char_traits@D@std@@@std@@QEAAAEAV01@N@Z 00000001400476dd     main.obj
 0002:000106f0       $unwind$?catch$2@?0???6?$basic_ostream@DU?$char_traits@D@std@@@std@@QEAAAEAV01@N@Z@4HA 00000001400476f0     main.obj
 0002:000106f8       $unwind$?flush@?$basic_ostream@DU?$char_traits@D@std@@@std@@QEAAAEAV12@XZ 00000001400476f8     main.obj
 0002:00010708       $cppxdata$?flush@?$basic_ostream@DU?$char_traits@D@std@@@std@@QEAAAEAV12@XZ 0000000140047708     main.obj
 0002:00010715       $stateUnwindMap$?flush@?$basic_ostream@DU?$char_traits@D@std@@@std@@QEAAAEAV12@XZ 0000000140047715     main.obj
 0002:0001071d       $tryMap$?flush@?$basic_ostream@DU?$char_traits@D@std@@@std@@QEAAAEAV12@XZ 000000014004771d     main.obj
 0002:00010725       $handlerMap$?flush@?$basic_ostream@DU?$char_traits@D@std@@@std@@QEAAAEAV12@XZ 0000000140047725     main.obj
 0002:0001072c       $ip2state$?flush@?$basic_ostream@DU?$char_traits@D@std@@@std@@QEAAAEAV12@XZ 000000014004772c     main.obj
 0002:00010738       $unwind$??$?6U?$char_traits@D@std@@@std@@YAAEAV?$basic_ostream@DU?$char_traits@D@std@@@0@AEAV10@PEBD@Z 0000000140047738     main.obj
 0002:00010748       $cppxdata$??$?6U?$char_traits@D@std@@@std@@YAAEAV?$basic_ostream@DU?$char_traits@D@std@@@0@AEAV10@PEBD@Z 0000000140047748     main.obj
 0002:00010755       $stateUnwindMap$??$?6U?$char_traits@D@std@@@std@@YAAEAV?$basic_ostream@DU?$char_traits@D@std@@@0@AEAV10@PEBD@Z 0000000140047755     main.obj
 0002:0001075d       $tryMap$??$?6U?$char_traits@D@std@@@std@@YAAEAV?$basic_ostream@DU?$char_traits@D@std@@@0@AEAV10@PEBD@Z 000000014004775d     main.obj
 0002:00010765       $handlerMap$??$?6U?$char_traits@D@std@@@std@@YAAEAV?$basic_ostream@DU?$char_traits@D@std@@@0@AEAV10@PEBD@Z 0000000140047765     main.obj
 0002:0001076c       $ip2state$??$?6U?$char_traits@D@std@@@std@@YAAEAV?$basic_ostream@DU?$char_traits@D@std@@@0@AEAV10@PEBD@Z 000000014004776c     main.obj
 0002:0001077c       $unwind$?_Ipfx@?$basic_istream@DU?$char_traits@D@std@@@std@@QEAA_N_N@Z 000000014004777c     main.obj
 0002:0001078c       $cppxdata$?_Ipfx@?$basic_istream@DU?$char_traits@D@std@@@std@@QEAA_N_N@Z 000000014004778c     main.obj
 0002:00010799       $stateUnwindMap$?_Ipfx@?$basic_istream@DU?$char_traits@D@std@@@std@@QEAA_N_N@Z 0000000140047799     main.obj
 0002:000107a1       $tryMap$?_Ipfx@?$basic_istream@DU?$char_traits@D@std@@@std@@QEAA_N_N@Z 00000001400477a1     main.obj
 0002:000107a9       $handlerMap$?_Ipfx@?$basic_istream@DU?$char_traits@D@std@@@std@@QEAA_N_N@Z 00000001400477a9     main.obj
 0002:000107b0       $ip2state$?_Ipfx@?$basic_istream@DU?$char_traits@D@std@@@std@@QEAA_N_N@Z 00000001400477b0     main.obj
 0002:000107c0       $unwind$??$_Common_extract_with_num_get@N@?$basic_istream@DU?$char_traits@D@std@@@std@@AEAAAEAV01@AEAN@Z 00000001400477c0     main.obj
 0002:000107d4       $cppxdata$??$_Common_extract_with_num_get@N@?$basic_istream@DU?$char_traits@D@std@@@std@@AEAAAEAV01@AEAN@Z 00000001400477d4     main.obj
 0002:000107e1       $stateUnwindMap$??$_Common_extract_with_num_get@J@?$basic_istream@DU?$char_traits@D@std@@@std@@AEAAAEAV01@AEAJ@Z 00000001400477e1     main.obj
 0002:000107e1       $stateUnwindMap$??$_Common_extract_with_num_get@N@?$basic_istream@DU?$char_traits@D@std@@@std@@AEAAAEAV01@AEAN@Z 00000001400477e1     main.obj
 0002:000107ee       $tryMap$??$_Common_extract_with_num_get@N@?$basic_istream@DU?$char_traits@D@std@@@std@@AEAAAEAV01@AEAN@Z 00000001400477ee     main.obj
 0002:000107f6       $handlerMap$??$_Common_extract_with_num_get@N@?$basic_istream@DU?$char_traits@D@std@@@std@@AEAAAEAV01@AEAN@Z 00000001400477f6     main.obj
 0002:000107fd       $ip2state$??$_Common_extract_with_num_get@J@?$basic_istream@DU?$char_traits@D@std@@@std@@AEAAAEAV01@AEAJ@Z 00000001400477fd     main.obj
 0002:000107fd       $ip2state$??$_Common_extract_with_num_get@N@?$basic_istream@DU?$char_traits@D@std@@@std@@AEAAAEAV01@AEAN@Z 00000001400477fd     main.obj
 0002:00010810       $unwind$?catch$2@?0???$_Common_extract_with_num_get@J@?$basic_istream@DU?$char_traits@D@std@@@std@@AEAAAEAV01@AEAJ@Z@4HA 0000000140047810     main.obj
 0002:00010810       $unwind$?catch$2@?0???$_Common_extract_with_num_get@N@?$basic_istream@DU?$char_traits@D@std@@@std@@AEAAAEAV01@AEAN@Z@4HA 0000000140047810     main.obj
 0002:00010818       $unwind$??$_Common_extract_with_num_get@J@?$basic_istream@DU?$char_traits@D@std@@@std@@AEAAAEAV01@AEAJ@Z 0000000140047818     main.obj
 0002:0001082c       $cppxdata$??$_Common_extract_with_num_get@J@?$basic_istream@DU?$char_traits@D@std@@@std@@AEAAAEAV01@AEAJ@Z 000000014004782c     main.obj
 0002:00010839       $tryMap$??$_Common_extract_with_num_get@J@?$basic_istream@DU?$char_traits@D@std@@@std@@AEAAAEAV01@AEAJ@Z 0000000140047839     main.obj
 0002:00010841       $handlerMap$??$_Common_extract_with_num_get@J@?$basic_istream@DU?$char_traits@D@std@@@std@@AEAAAEAV01@AEAJ@Z 0000000140047841     main.obj
 0002:00010848       $unwind$??1_Sentry_base@?$basic_istream@DU?$char_traits@D@std@@@std@@QEAA@XZ 0000000140047848     main.obj
 0002:00010848       $unwind$??1_Sentry_base@?$basic_ostream@DU?$char_traits@D@std@@@std@@QEAA@XZ 0000000140047848     main.obj
 0002:00010848       $unwind$??1sentry@?$basic_ostream@DU?$char_traits@D@std@@@std@@QEAA@XZ 0000000140047848     main.obj
 0002:00010858       $unwind$??0sentry@?$basic_ostream@DU?$char_traits@D@std@@@std@@QEAA@AEAV12@@Z 0000000140047858     main.obj
 0002:00010868       $cppxdata$??0sentry@?$basic_ostream@DU?$char_traits@D@std@@@std@@QEAA@AEAV12@@Z 0000000140047868     main.obj
 0002:00010871       $stateUnwindMap$??0sentry@?$basic_ostream@DU?$char_traits@D@std@@@std@@QEAA@AEAV12@@Z 0000000140047871     main.obj
 0002:00010877       $ip2state$??0sentry@?$basic_ostream@DU?$char_traits@D@std@@@std@@QEAA@AEAV12@@Z 0000000140047877     main.obj
 0002:00010880       $unwind$?_Getcat@?$num_get@DV?$istreambuf_iterator@DU?$char_traits@D@std@@@std@@@std@@SA_KPEAPEBVfacet@locale@2@PEBV42@@Z 0000000140047880     main.obj
 0002:00010880       $unwind$?_Getcat@?$num_put@DV?$ostreambuf_iterator@DU?$char_traits@D@std@@@std@@@std@@SA_KPEAPEBVfacet@locale@2@PEBV42@@Z 0000000140047880     main.obj
 0002:00010890       $cppxdata$?_Getcat@?$num_get@DV?$istreambuf_iterator@DU?$char_traits@D@std@@@std@@@std@@SA_KPEAPEBVfacet@locale@2@PEBV42@@Z 0000000140047890     main.obj
 0002:00010890       $cppxdata$?_Getcat@?$num_put@DV?$ostreambuf_iterator@DU?$char_traits@D@std@@@std@@@std@@SA_KPEAPEBVfacet@locale@2@PEBV42@@Z 0000000140047890     main.obj
 0002:00010899       $stateUnwindMap$?_Getcat@?$num_get@DV?$istreambuf_iterator@DU?$char_traits@D@std@@@std@@@std@@SA_KPEAPEBVfacet@locale@2@PEBV42@@Z 0000000140047899     main.obj
 0002:00010899       $stateUnwindMap$?_Getcat@?$num_put@DV?$ostreambuf_iterator@DU?$char_traits@D@std@@@std@@@std@@SA_KPEAPEBVfacet@locale@2@PEBV42@@Z 0000000140047899     main.obj
 0002:000108ac       $unwind$??0?$num_get@DV?$istreambuf_iterator@DU?$char_traits@D@std@@@std@@@std@@QEAA@AEBV_Locinfo@1@_K@Z 00000001400478ac     main.obj
 0002:000108ac       $unwind$??0?$num_put@DV?$ostreambuf_iterator@DU?$char_traits@D@std@@@std@@@std@@QEAA@AEBV_Locinfo@1@_K@Z 00000001400478ac     main.obj
 0002:000108bc       $cppxdata$??0?$num_get@DV?$istreambuf_iterator@DU?$char_traits@D@std@@@std@@@std@@QEAA@AEBV_Locinfo@1@_K@Z 00000001400478bc     main.obj
 0002:000108bc       $cppxdata$??0?$num_put@DV?$ostreambuf_iterator@DU?$char_traits@D@std@@@std@@@std@@QEAA@AEBV_Locinfo@1@_K@Z 00000001400478bc     main.obj
 0002:000108c5       $stateUnwindMap$??0?$num_get@DV?$istreambuf_iterator@DU?$char_traits@D@std@@@std@@@std@@QEAA@AEBV_Locinfo@1@_K@Z 00000001400478c5     main.obj
 0002:000108c5       $stateUnwindMap$??0?$num_put@DV?$ostreambuf_iterator@DU?$char_traits@D@std@@@std@@@std@@QEAA@AEBV_Locinfo@1@_K@Z 00000001400478c5     main.obj
 0002:000108c5       $stateUnwindMap$??0?$numpunct@D@std@@QEAA@AEBV_Locinfo@1@_K_N@Z 00000001400478c5     main.obj
 0002:000108cc       $unwind$?put@?$num_put@DV?$ostreambuf_iterator@DU?$char_traits@D@std@@@std@@@std@@QEBA?AV?$ostreambuf_iterator@DU?$char_traits@D@std@@@2@V32@AEAVios_base@2@DN@Z 00000001400478cc     main.obj
 0002:000108d8       $unwind$?do_put@?$num_put@DV?$ostreambuf_iterator@DU?$char_traits@D@std@@@std@@@std@@MEBA?AV?$ostreambuf_iterator@DU?$char_traits@D@std@@@2@V32@AEAVios_base@2@D_N@Z 00000001400478d8     main.obj
 0002:000108f0       $cppxdata$?do_put@?$num_put@DV?$ostreambuf_iterator@DU?$char_traits@D@std@@@std@@@std@@MEBA?AV?$ostreambuf_iterator@DU?$char_traits@D@std@@@2@V32@AEAVios_base@2@D_N@Z 00000001400478f0     main.obj
 0002:000108f9       $stateUnwindMap$?do_put@?$num_put@DV?$ostreambuf_iterator@DU?$char_traits@D@std@@@std@@@std@@MEBA?AV?$ostreambuf_iterator@DU?$char_traits@D@std@@@2@V32@AEAVios_base@2@D_N@Z 00000001400478f9     main.obj
 0002:00010904       $ip2state$?do_put@?$num_put@DV?$ostreambuf_iterator@DU?$char_traits@D@std@@@std@@@std@@MEBA?AV?$ostreambuf_iterator@DU?$char_traits@D@std@@@2@V32@AEAVios_base@2@D_N@Z 0000000140047904     main.obj
 0002:00010914       $unwind$?do_put@?$num_put@DV?$ostreambuf_iterator@DU?$char_traits@D@std@@@std@@@std@@MEBA?AV?$ostreambuf_iterator@DU?$char_traits@D@std@@@2@V32@AEAVios_base@2@DJ@Z 0000000140047914     main.obj
 0002:00010914       $unwind$?do_put@?$num_put@DV?$ostreambuf_iterator@DU?$char_traits@D@std@@@std@@@std@@MEBA?AV?$ostreambuf_iterator@DU?$char_traits@D@std@@@2@V32@AEAVios_base@2@DK@Z 0000000140047914     main.obj
 0002:00010914       $unwind$?do_put@?$num_put@DV?$ostreambuf_iterator@DU?$char_traits@D@std@@@std@@@std@@MEBA?AV?$ostreambuf_iterator@DU?$char_traits@D@std@@@2@V32@AEAVios_base@2@D_J@Z 0000000140047914     main.obj
 0002:00010914       $unwind$?do_put@?$num_put@DV?$ostreambuf_iterator@DU?$char_traits@D@std@@@std@@@std@@MEBA?AV?$ostreambuf_iterator@DU?$char_traits@D@std@@@2@V32@AEAVios_base@2@D_K@Z 0000000140047914     main.obj
 0002:00010928       $unwind$?do_put@?$num_put@DV?$ostreambuf_iterator@DU?$char_traits@D@std@@@std@@@std@@MEBA?AV?$ostreambuf_iterator@DU?$char_traits@D@std@@@2@V32@AEAVios_base@2@DN@Z 0000000140047928     main.obj
 0002:00010928       $unwind$?do_put@?$num_put@DV?$ostreambuf_iterator@DU?$char_traits@D@std@@@std@@@std@@MEBA?AV?$ostreambuf_iterator@DU?$char_traits@D@std@@@2@V32@AEAVios_base@2@DO@Z 0000000140047928     main.obj
 0002:00010940       $cppxdata$?do_put@?$num_put@DV?$ostreambuf_iterator@DU?$char_traits@D@std@@@std@@@std@@MEBA?AV?$ostreambuf_iterator@DU?$char_traits@D@std@@@2@V32@AEAVios_base@2@DN@Z 0000000140047940     main.obj
 0002:00010940       $cppxdata$?do_put@?$num_put@DV?$ostreambuf_iterator@DU?$char_traits@D@std@@@std@@@std@@MEBA?AV?$ostreambuf_iterator@DU?$char_traits@D@std@@@2@V32@AEAVios_base@2@DO@Z 0000000140047940     main.obj
 0002:00010949       $stateUnwindMap$?do_put@?$num_put@DV?$ostreambuf_iterator@DU?$char_traits@D@std@@@std@@@std@@MEBA?AV?$ostreambuf_iterator@DU?$char_traits@D@std@@@2@V32@AEAVios_base@2@DN@Z 0000000140047949     main.obj
 0002:00010949       $stateUnwindMap$?do_put@?$num_put@DV?$ostreambuf_iterator@DU?$char_traits@D@std@@@std@@@std@@MEBA?AV?$ostreambuf_iterator@DU?$char_traits@D@std@@@2@V32@AEAVios_base@2@DO@Z 0000000140047949     main.obj
 0002:0001094f       $ip2state$?do_put@?$num_put@DV?$ostreambuf_iterator@DU?$char_traits@D@std@@@std@@@std@@MEBA?AV?$ostreambuf_iterator@DU?$char_traits@D@std@@@2@V32@AEAVios_base@2@DN@Z 000000014004794f     main.obj
 0002:0001094f       $ip2state$?do_put@?$num_put@DV?$ostreambuf_iterator@DU?$char_traits@D@std@@@std@@@std@@MEBA?AV?$ostreambuf_iterator@DU?$char_traits@D@std@@@2@V32@AEAVios_base@2@DO@Z 000000014004794f     main.obj
 0002:00010958       $unwind$?do_put@?$num_put@DV?$ostreambuf_iterator@DU?$char_traits@D@std@@@std@@@std@@MEBA?AV?$ostreambuf_iterator@DU?$char_traits@D@std@@@2@V32@AEAVios_base@2@DPEBX@Z 0000000140047958     main.obj
 0002:0001096c       $unwind$?_Ffmt@?$num_put@DV?$ostreambuf_iterator@DU?$char_traits@D@std@@@std@@@std@@AEBAPEADPEADDH@Z 000000014004796c     main.obj
 0002:0001096c       $unwind$?_Ifmt@?$num_put@DV?$ostreambuf_iterator@DU?$char_traits@D@std@@@std@@@std@@AEBAPEADPEADPEBDH@Z 000000014004796c     main.obj
 0002:00010974       $unwind$?_Fput@?$num_put@DV?$ostreambuf_iterator@DU?$char_traits@D@std@@@std@@@std@@AEBA?AV?$ostreambuf_iterator@DU?$char_traits@D@std@@@2@V32@AEAVios_base@2@DPEBD_K@Z 0000000140047974     main.obj
 0002:0001098c       $cppxdata$?_Fput@?$num_put@DV?$ostreambuf_iterator@DU?$char_traits@D@std@@@std@@@std@@AEBA?AV?$ostreambuf_iterator@DU?$char_traits@D@std@@@2@V32@AEAVios_base@2@DPEBD_K@Z 000000014004798c     main.obj
 0002:00010995       $stateUnwindMap$?_Fput@?$num_put@DV?$ostreambuf_iterator@DU?$char_traits@D@std@@@std@@@std@@AEBA?AV?$ostreambuf_iterator@DU?$char_traits@D@std@@@2@V32@AEAVios_base@2@DPEBD_K@Z 0000000140047995     main.obj
 0002:000109aa       $ip2state$?_Fput@?$num_put@DV?$ostreambuf_iterator@DU?$char_traits@D@std@@@std@@@std@@AEBA?AV?$ostreambuf_iterator@DU?$char_traits@D@std@@@2@V32@AEAVios_base@2@DPEBD_K@Z 00000001400479aa     main.obj
 0002:000109c0       $unwind$?_Iput@?$num_put@DV?$ostreambuf_iterator@DU?$char_traits@D@std@@@std@@@std@@AEBA?AV?$ostreambuf_iterator@DU?$char_traits@D@std@@@2@V32@AEAVios_base@2@DPEAD_K@Z 00000001400479c0     main.obj
 0002:000109d8       $cppxdata$?_Iput@?$num_put@DV?$ostreambuf_iterator@DU?$char_traits@D@std@@@std@@@std@@AEBA?AV?$ostreambuf_iterator@DU?$char_traits@D@std@@@2@V32@AEAVios_base@2@DPEAD_K@Z 00000001400479d8     main.obj
 0002:000109e1       $stateUnwindMap$?_Iput@?$num_put@DV?$ostreambuf_iterator@DU?$char_traits@D@std@@@std@@@std@@AEBA?AV?$ostreambuf_iterator@DU?$char_traits@D@std@@@2@V32@AEAVios_base@2@DPEAD_K@Z 00000001400479e1     main.obj
 0002:000109f6       $ip2state$?_Iput@?$num_put@DV?$ostreambuf_iterator@DU?$char_traits@D@std@@@std@@@std@@AEBA?AV?$ostreambuf_iterator@DU?$char_traits@D@std@@@2@V32@AEAVios_base@2@DPEAD_K@Z 00000001400479f6     main.obj
 0002:00010a0c       $unwind$?_Put@?$num_put@DV?$ostreambuf_iterator@DU?$char_traits@D@std@@@std@@@std@@AEBA?AV?$ostreambuf_iterator@DU?$char_traits@D@std@@@2@V32@PEBD_K@Z 0000000140047a0c     main.obj
 0002:00010a0c       $unwind$?_Rep@?$num_put@DV?$ostreambuf_iterator@DU?$char_traits@D@std@@@std@@@std@@AEBA?AV?$ostreambuf_iterator@DU?$char_traits@D@std@@@2@V32@D_K@Z 0000000140047a0c     main.obj
 0002:00010a18       $unwind$??4?$ostreambuf_iterator@DU?$char_traits@D@std@@@std@@QEAAAEAV01@D@Z 0000000140047a18     main.obj
 0002:00010a20       $unwind$??$_Construct@$00PEBD@?$basic_string@DU?$char_traits@D@std@@V?$allocator@D@2@@std@@AEAAXQEBD_K@Z 0000000140047a20     main.obj
 0002:00010a28       $unwind$??$_Construct@$01PEBD@?$basic_string@DU?$char_traits@D@std@@V?$allocator@D@2@@std@@AEAAXQEBD_K@Z 0000000140047a28     main.obj
 0002:00010a30       $unwind$??$_Float_put_desired_precision@N@std@@YAH_JH@Z 0000000140047a30     main.obj
 0002:00010a30       $unwind$??$_Float_put_desired_precision@O@std@@YAH_JH@Z 0000000140047a30     main.obj
 0002:00010a38       $unwind$??0?$numpunct@D@std@@QEAA@AEBV_Locinfo@1@_K_N@Z 0000000140047a38     main.obj
 0002:00010a48       $cppxdata$??0?$numpunct@D@std@@QEAA@AEBV_Locinfo@1@_K_N@Z 0000000140047a48     main.obj
 0002:00010a51       $ip2state$??0?$numpunct@D@std@@QEAA@AEBV_Locinfo@1@_K_N@Z 0000000140047a51     main.obj
 0002:00010a58       $unwind$?_Getcat@?$numpunct@D@std@@SA_KPEAPEBVfacet@locale@2@PEBV42@@Z 0000000140047a58     main.obj
 0002:00010a68       $cppxdata$?_Getcat@?$numpunct@D@std@@SA_KPEAPEBVfacet@locale@2@PEBV42@@Z 0000000140047a68     main.obj
 0002:00010a71       $ip2state$?_Getcat@?$numpunct@D@std@@SA_KPEAPEBVfacet@locale@2@PEBV42@@Z 0000000140047a71     main.obj
 0002:00010a80       $unwind$?_Init@?$numpunct@D@std@@IEAAXAEBV_Locinfo@2@_N@Z 0000000140047a80     main.obj
 0002:00010a98       $cppxdata$?_Init@?$numpunct@D@std@@IEAAXAEBV_Locinfo@2@_N@Z 0000000140047a98     main.obj
 0002:00010aa1       $stateUnwindMap$?_Init@?$numpunct@D@std@@IEAAXAEBV_Locinfo@2@_N@Z 0000000140047aa1     main.obj
 0002:00010aa7       $ip2state$?_Init@?$numpunct@D@std@@IEAAXAEBV_Locinfo@2@_N@Z 0000000140047aa7     main.obj
 0002:00010ab0       $unwind$??$_Reallocate_grow_by@V<lambda_319d5e083f45f90dcdce5dce53cbb275>@@D@?$basic_string@DU?$char_traits@D@std@@V?$allocator@D@2@@std@@AEAAAEAV01@_KV<lambda_319d5e083f45f90dcdce5dce53cbb275>@@D@Z 0000000140047ab0     main.obj
 0002:00010ab0       $unwind$??$_Reallocate_grow_by@V<lambda_65e615be2a453ca0576c979606f46740>@@PEBD_K@?$basic_string@DU?$char_traits@D@std@@V?$allocator@D@2@@std@@AEAAAEAV01@_KV<lambda_65e615be2a453ca0576c979606f46740>@@PEBD_K@Z 0000000140047ab0     main.obj
 0002:00010ab0       $unwind$??$_Reallocate_grow_by@V<lambda_e1befb086ad3257e3f042a63030725f7>@@_KD@?$basic_string@DU?$char_traits@D@std@@V?$allocator@D@2@@std@@AEAAAEAV01@_KV<lambda_e1befb086ad3257e3f042a63030725f7>@@_KD@Z 0000000140047ab0     main.obj
 0002:00010ab8       $unwind$?sputc@?$basic_streambuf@DU?$char_traits@D@std@@@std@@QEAAHD@Z 0000000140047ab8     main.obj
 0002:00010ac0       $unwind$??$_Deallocate@$0BA@$0A@@std@@YAXPEAX_K@Z 0000000140047ac0     main.obj
 0002:00010ad0       $unwind$??$_Reallocate_grow_by@V<lambda_b986da8d428e4af07c64af60eec09b61>@@_K_KD@?$basic_string@DU?$char_traits@D@std@@V?$allocator@D@2@@std@@AEAAAEAV01@_KV<lambda_b986da8d428e4af07c64af60eec09b61>@@_K2D@Z 0000000140047ad0     main.obj
 0002:00010ad8       $unwind$??$_Construct@$0A@D@?$basic_string@DU?$char_traits@D@std@@V?$allocator@D@2@@std@@AEAAXD_K@Z 0000000140047ad8     main.obj
 0002:00010ae0       $unwind$??0sentry@?$basic_istream@DU?$char_traits@D@std@@@std@@QEAA@AEAV12@_N@Z 0000000140047ae0     main.obj
 0002:00010af0       $cppxdata$??0sentry@?$basic_istream@DU?$char_traits@D@std@@@std@@QEAA@AEAV12@_N@Z 0000000140047af0     main.obj
 0002:00010af9       $stateUnwindMap$??0sentry@?$basic_istream@DU?$char_traits@D@std@@@std@@QEAA@AEAV12@_N@Z 0000000140047af9     main.obj
 0002:00010aff       $ip2state$??0sentry@?$basic_istream@DU?$char_traits@D@std@@@std@@QEAA@AEAV12@_N@Z 0000000140047aff     main.obj
 0002:00010b08       $unwind$?get@?$num_get@DV?$istreambuf_iterator@DU?$char_traits@D@std@@@std@@@std@@QEBA?AV?$istreambuf_iterator@DU?$char_traits@D@std@@@2@V32@0AEAVios_base@2@AEAHAEAJ@Z 0000000140047b08     main.obj
 0002:00010b08       $unwind$?get@?$num_get@DV?$istreambuf_iterator@DU?$char_traits@D@std@@@std@@@std@@QEBA?AV?$istreambuf_iterator@DU?$char_traits@D@std@@@2@V32@0AEAVios_base@2@AEAHAEAN@Z 0000000140047b08     main.obj
 0002:00010b14       $unwind$?do_get@?$num_get@DV?$istreambuf_iterator@DU?$char_traits@D@std@@@std@@@std@@MEBA?AV?$istreambuf_iterator@DU?$char_traits@D@std@@@2@V32@0AEAVios_base@2@AEAHAEA_N@Z 0000000140047b14     main.obj
 0002:00010b2c       $cppxdata$?do_get@?$num_get@DV?$istreambuf_iterator@DU?$char_traits@D@std@@@std@@@std@@MEBA?AV?$istreambuf_iterator@DU?$char_traits@D@std@@@2@V32@0AEAVios_base@2@AEAHAEA_N@Z 0000000140047b2c     main.obj
 0002:00010b35       $stateUnwindMap$?do_get@?$num_get@DV?$istreambuf_iterator@DU?$char_traits@D@std@@@std@@@std@@MEBA?AV?$istreambuf_iterator@DU?$char_traits@D@std@@@2@V32@0AEAVios_base@2@AEAHAEA_N@Z 0000000140047b35     main.obj
 0002:00010b4f       $ip2state$?do_get@?$num_get@DV?$istreambuf_iterator@DU?$char_traits@D@std@@@std@@@std@@MEBA?AV?$istreambuf_iterator@DU?$char_traits@D@std@@@2@V32@0AEAVios_base@2@AEAHAEA_N@Z 0000000140047b4f     main.obj
 0002:00010b68       $unwind$?do_get@?$num_get@DV?$istreambuf_iterator@DU?$char_traits@D@std@@@std@@@std@@MEBA?AV?$istreambuf_iterator@DU?$char_traits@D@std@@@2@V32@0AEAVios_base@2@AEAHAEAG@Z 0000000140047b68     main.obj
 0002:00010b80       $cppxdata$?do_get@?$num_get@DV?$istreambuf_iterator@DU?$char_traits@D@std@@@std@@@std@@MEBA?AV?$istreambuf_iterator@DU?$char_traits@D@std@@@2@V32@0AEAVios_base@2@AEAHAEAG@Z 0000000140047b80     main.obj
 0002:00010b89       $stateUnwindMap$?do_get@?$num_get@DV?$istreambuf_iterator@DU?$char_traits@D@std@@@std@@@std@@MEBA?AV?$istreambuf_iterator@DU?$char_traits@D@std@@@2@V32@0AEAVios_base@2@AEAHAEAG@Z 0000000140047b89     main.obj
 0002:00010b8f       $ip2state$?do_get@?$num_get@DV?$istreambuf_iterator@DU?$char_traits@D@std@@@std@@@std@@MEBA?AV?$istreambuf_iterator@DU?$char_traits@D@std@@@2@V32@0AEAVios_base@2@AEAHAEAG@Z 0000000140047b8f     main.obj
 0002:00010b8f       $ip2state$?do_get@?$num_get@DV?$istreambuf_iterator@DU?$char_traits@D@std@@@std@@@std@@MEBA?AV?$istreambuf_iterator@DU?$char_traits@D@std@@@2@V32@0AEAVios_base@2@AEAHAEAJ@Z 0000000140047b8f     main.obj
 0002:00010b8f       $ip2state$?do_get@?$num_get@DV?$istreambuf_iterator@DU?$char_traits@D@std@@@std@@@std@@MEBA?AV?$istreambuf_iterator@DU?$char_traits@D@std@@@2@V32@0AEAVios_base@2@AEAHAEAK@Z 0000000140047b8f     main.obj
 0002:00010b8f       $ip2state$?do_get@?$num_get@DV?$istreambuf_iterator@DU?$char_traits@D@std@@@std@@@std@@MEBA?AV?$istreambuf_iterator@DU?$char_traits@D@std@@@2@V32@0AEAVios_base@2@AEAHAEA_J@Z 0000000140047b8f     main.obj
 0002:00010b8f       $ip2state$?do_get@?$num_get@DV?$istreambuf_iterator@DU?$char_traits@D@std@@@std@@@std@@MEBA?AV?$istreambuf_iterator@DU?$char_traits@D@std@@@2@V32@0AEAVios_base@2@AEAHAEA_K@Z 0000000140047b8f     main.obj
 0002:00010b98       $unwind$?do_get@?$num_get@DV?$istreambuf_iterator@DU?$char_traits@D@std@@@std@@@std@@MEBA?AV?$istreambuf_iterator@DU?$char_traits@D@std@@@2@V32@0AEAVios_base@2@AEAHAEAI@Z 0000000140047b98     main.obj
 0002:00010b98       $unwind$?do_get@?$num_get@DV?$istreambuf_iterator@DU?$char_traits@D@std@@@std@@@std@@MEBA?AV?$istreambuf_iterator@DU?$char_traits@D@std@@@2@V32@0AEAVios_base@2@AEAHAEAO@Z 0000000140047b98     main.obj
 0002:00010ba4       $unwind$?do_get@?$num_get@DV?$istreambuf_iterator@DU?$char_traits@D@std@@@std@@@std@@MEBA?AV?$istreambuf_iterator@DU?$char_traits@D@std@@@2@V32@0AEAVios_base@2@AEAHAEAJ@Z 0000000140047ba4     main.obj
 0002:00010ba4       $unwind$?do_get@?$num_get@DV?$istreambuf_iterator@DU?$char_traits@D@std@@@std@@@std@@MEBA?AV?$istreambuf_iterator@DU?$char_traits@D@std@@@2@V32@0AEAVios_base@2@AEAHAEAK@Z 0000000140047ba4     main.obj
 0002:00010ba4       $unwind$?do_get@?$num_get@DV?$istreambuf_iterator@DU?$char_traits@D@std@@@std@@@std@@MEBA?AV?$istreambuf_iterator@DU?$char_traits@D@std@@@2@V32@0AEAVios_base@2@AEAHAEA_J@Z 0000000140047ba4     main.obj
 0002:00010ba4       $unwind$?do_get@?$num_get@DV?$istreambuf_iterator@DU?$char_traits@D@std@@@std@@@std@@MEBA?AV?$istreambuf_iterator@DU?$char_traits@D@std@@@2@V32@0AEAVios_base@2@AEAHAEA_K@Z 0000000140047ba4     main.obj
 0002:00010bbc       $cppxdata$?do_get@?$num_get@DV?$istreambuf_iterator@DU?$char_traits@D@std@@@std@@@std@@MEBA?AV?$istreambuf_iterator@DU?$char_traits@D@std@@@2@V32@0AEAVios_base@2@AEAHAEAJ@Z 0000000140047bbc     main.obj
 0002:00010bbc       $cppxdata$?do_get@?$num_get@DV?$istreambuf_iterator@DU?$char_traits@D@std@@@std@@@std@@MEBA?AV?$istreambuf_iterator@DU?$char_traits@D@std@@@2@V32@0AEAVios_base@2@AEAHAEAK@Z 0000000140047bbc     main.obj
 0002:00010bbc       $cppxdata$?do_get@?$num_get@DV?$istreambuf_iterator@DU?$char_traits@D@std@@@std@@@std@@MEBA?AV?$istreambuf_iterator@DU?$char_traits@D@std@@@2@V32@0AEAVios_base@2@AEAHAEA_J@Z 0000000140047bbc     main.obj
 0002:00010bbc       $cppxdata$?do_get@?$num_get@DV?$istreambuf_iterator@DU?$char_traits@D@std@@@std@@@std@@MEBA?AV?$istreambuf_iterator@DU?$char_traits@D@std@@@2@V32@0AEAVios_base@2@AEAHAEA_K@Z 0000000140047bbc     main.obj
 0002:00010bc5       $stateUnwindMap$?do_get@?$num_get@DV?$istreambuf_iterator@DU?$char_traits@D@std@@@std@@@std@@MEBA?AV?$istreambuf_iterator@DU?$char_traits@D@std@@@2@V32@0AEAVios_base@2@AEAHAEAJ@Z 0000000140047bc5     main.obj
 0002:00010bc5       $stateUnwindMap$?do_get@?$num_get@DV?$istreambuf_iterator@DU?$char_traits@D@std@@@std@@@std@@MEBA?AV?$istreambuf_iterator@DU?$char_traits@D@std@@@2@V32@0AEAVios_base@2@AEAHAEAK@Z 0000000140047bc5     main.obj
 0002:00010bc5       $stateUnwindMap$?do_get@?$num_get@DV?$istreambuf_iterator@DU?$char_traits@D@std@@@std@@@std@@MEBA?AV?$istreambuf_iterator@DU?$char_traits@D@std@@@2@V32@0AEAVios_base@2@AEAHAEAPEAX@Z 0000000140047bc5     main.obj
 0002:00010bc5       $stateUnwindMap$?do_get@?$num_get@DV?$istreambuf_iterator@DU?$char_traits@D@std@@@std@@@std@@MEBA?AV?$istreambuf_iterator@DU?$char_traits@D@std@@@2@V32@0AEAVios_base@2@AEAHAEA_J@Z 0000000140047bc5     main.obj
 0002:00010bc5       $stateUnwindMap$?do_get@?$num_get@DV?$istreambuf_iterator@DU?$char_traits@D@std@@@std@@@std@@MEBA?AV?$istreambuf_iterator@DU?$char_traits@D@std@@@2@V32@0AEAVios_base@2@AEAHAEA_K@Z 0000000140047bc5     main.obj
 0002:00010bcc       $unwind$?do_get@?$num_get@DV?$istreambuf_iterator@DU?$char_traits@D@std@@@std@@@std@@MEBA?AV?$istreambuf_iterator@DU?$char_traits@D@std@@@2@V32@0AEAVios_base@2@AEAHAEAM@Z 0000000140047bcc     main.obj
 0002:00010bcc       $unwind$?do_get@?$num_get@DV?$istreambuf_iterator@DU?$char_traits@D@std@@@std@@@std@@MEBA?AV?$istreambuf_iterator@DU?$char_traits@D@std@@@2@V32@0AEAVios_base@2@AEAHAEAN@Z 0000000140047bcc     main.obj
 0002:00010be0       $unwind$?do_get@?$num_get@DV?$istreambuf_iterator@DU?$char_traits@D@std@@@std@@@std@@MEBA?AV?$istreambuf_iterator@DU?$char_traits@D@std@@@2@V32@0AEAVios_base@2@AEAHAEAPEAX@Z 0000000140047be0     main.obj
 0002:00010bf8       $cppxdata$?do_get@?$num_get@DV?$istreambuf_iterator@DU?$char_traits@D@std@@@std@@@std@@MEBA?AV?$istreambuf_iterator@DU?$char_traits@D@std@@@2@V32@0AEAVios_base@2@AEAHAEAPEAX@Z 0000000140047bf8     main.obj
 0002:00010c01       $ip2state$?do_get@?$num_get@DV?$istreambuf_iterator@DU?$char_traits@D@std@@@std@@@std@@MEBA?AV?$istreambuf_iterator@DU?$char_traits@D@std@@@2@V32@0AEAVios_base@2@AEAHAEAPEAX@Z 0000000140047c01     main.obj
 0002:00010c08       $unwind$?_Getifld@?$num_get@DV?$istreambuf_iterator@DU?$char_traits@D@std@@@std@@@std@@AEBAHPEADAEAV?$istreambuf_iterator@DU?$char_traits@D@std@@@2@1HAEBVlocale@2@@Z 0000000140047c08     main.obj
 0002:00010c1c       $cppxdata$?_Getifld@?$num_get@DV?$istreambuf_iterator@DU?$char_traits@D@std@@@std@@@std@@AEBAHPEADAEAV?$istreambuf_iterator@DU?$char_traits@D@std@@@2@1HAEBVlocale@2@@Z 0000000140047c1c     main.obj
 0002:00010c25       $stateUnwindMap$?_Getifld@?$num_get@DV?$istreambuf_iterator@DU?$char_traits@D@std@@@std@@@std@@AEBAHPEADAEAV?$istreambuf_iterator@DU?$char_traits@D@std@@@2@1HAEBVlocale@2@@Z 0000000140047c25     main.obj
 0002:00010c30       $ip2state$?_Getifld@?$num_get@DV?$istreambuf_iterator@DU?$char_traits@D@std@@@std@@@std@@AEBAHPEADAEAV?$istreambuf_iterator@DU?$char_traits@D@std@@@2@1HAEBVlocale@2@@Z 0000000140047c30     main.obj
 0002:00010c40       $unwind$?_Getffld@?$num_get@DV?$istreambuf_iterator@DU?$char_traits@D@std@@@std@@@std@@AEBAHPEADAEAV?$istreambuf_iterator@DU?$char_traits@D@std@@@2@1AEAVios_base@2@PEAH@Z 0000000140047c40     main.obj
 0002:00010c54       $cppxdata$?_Getffld@?$num_get@DV?$istreambuf_iterator@DU?$char_traits@D@std@@@std@@@std@@AEBAHPEADAEAV?$istreambuf_iterator@DU?$char_traits@D@std@@@2@1AEAVios_base@2@PEAH@Z 0000000140047c54     main.obj
 0002:00010c5d       $stateUnwindMap$?_Getffld@?$num_get@DV?$istreambuf_iterator@DU?$char_traits@D@std@@@std@@@std@@AEBAHPEADAEAV?$istreambuf_iterator@DU?$char_traits@D@std@@@2@1AEAVios_base@2@PEAH@Z 0000000140047c5d     main.obj
 0002:00010c72       $ip2state$?_Getffld@?$num_get@DV?$istreambuf_iterator@DU?$char_traits@D@std@@@std@@@std@@AEBAHPEADAEAV?$istreambuf_iterator@DU?$char_traits@D@std@@@2@1AEAVios_base@2@PEAH@Z 0000000140047c72     main.obj
 0002:00010c8c       $unwind$?_Getffldx@?$num_get@DV?$istreambuf_iterator@DU?$char_traits@D@std@@@std@@@std@@AEBAHPEADAEAV?$istreambuf_iterator@DU?$char_traits@D@std@@@2@1AEAVios_base@2@PEAH@Z 0000000140047c8c     main.obj
 0002:00010ca0       $cppxdata$?_Getffldx@?$num_get@DV?$istreambuf_iterator@DU?$char_traits@D@std@@@std@@@std@@AEBAHPEADAEAV?$istreambuf_iterator@DU?$char_traits@D@std@@@2@1AEAVios_base@2@PEAH@Z 0000000140047ca0     main.obj
 0002:00010ca9       $stateUnwindMap$?_Getffldx@?$num_get@DV?$istreambuf_iterator@DU?$char_traits@D@std@@@std@@@std@@AEBAHPEADAEAV?$istreambuf_iterator@DU?$char_traits@D@std@@@2@1AEAVios_base@2@PEAH@Z 0000000140047ca9     main.obj
 0002:00010cbe       $ip2state$?_Getffldx@?$num_get@DV?$istreambuf_iterator@DU?$char_traits@D@std@@@std@@@std@@AEBAHPEADAEAV?$istreambuf_iterator@DU?$char_traits@D@std@@@2@1AEAVios_base@2@PEAH@Z 0000000140047cbe     main.obj
 0002:00010cd4       $unwind$??0?$istreambuf_iterator@DU?$char_traits@D@std@@@std@@QEAA@AEAV?$basic_istream@DU?$char_traits@D@std@@@1@@Z 0000000140047cd4     main.obj
 0002:00010ce4       $unwind$??$_Getloctxt@V?$istreambuf_iterator@DU?$char_traits@D@std@@@std@@D@std@@YAHAEAV?$istreambuf_iterator@DU?$char_traits@D@std@@@0@0_KPEBDW4_Case_sensitive@0@@Z 0000000140047ce4     main.obj
 0002:00010cf8       $cppxdata$??$_Getloctxt@V?$istreambuf_iterator@DU?$char_traits@D@std@@@std@@D@std@@YAHAEAV?$istreambuf_iterator@DU?$char_traits@D@std@@@0@0_KPEBDW4_Case_sensitive@0@@Z 0000000140047cf8     main.obj
 0002:00010d01       $stateUnwindMap$??$_Getloctxt@V?$istreambuf_iterator@DU?$char_traits@D@std@@@std@@D@std@@YAHAEAV?$istreambuf_iterator@DU?$char_traits@D@std@@@0@0_KPEBDW4_Case_sensitive@0@@Z 0000000140047d01     main.obj
 0002:00010d0c       $ip2state$??$_Getloctxt@V?$istreambuf_iterator@DU?$char_traits@D@std@@@std@@D@std@@YAHAEAV?$istreambuf_iterator@DU?$char_traits@D@std@@@0@0_KPEBDW4_Case_sensitive@0@@Z 0000000140047d0c     main.obj
 0002:00010d1c       $unwind$??$_Maklocstr@D@std@@YAPEADPEBDPEADAEBU_Cvtvec@@@Z 0000000140047d1c     main.obj
 0002:00010d24       $unwind$??$_Getvals@D@?$numpunct@D@std@@IEAAXDPEBUlconv@@U_Cvtvec@@@Z 0000000140047d24     main.obj
 0002:00010d2c       $unwind$??$_Allocate_manually_vector_aligned@U_Default_allocate_traits@std@@@std@@YAPEAX_K@Z 0000000140047d2c     main.obj
 0002:00010d34       $unwind$?__c16rtomb_utf8@__crt_mbstring@@YA_KPEAD_SPEAU_Mbstatet@@@Z 0000000140047d34     libucrt:c16rtomb.obj
 0002:00010d34       $unwind$_calloc_base       0000000140047d34     libucrt:calloc_base.obj
 0002:00010d34       $unwind$_malloc_base       0000000140047d34     libucrt:malloc_base.obj
 0002:00010d34       $unwind$_callnewh          0000000140047d34     libucrt:new_handler.obj
 0002:00010d34       $unwind$initialize_pointers 0000000140047d34     libucrt:initialization.obj
 0002:00010d34       $unwind$uninitialize_allocated_memory 0000000140047d34     libucrt:initialization.obj
 0002:00010d34       $unwind$__acrt_initialize_locks 0000000140047d34     libucrt:locks.obj
 0002:00010d34       $unwind$__acrt_uninitialize_locks 0000000140047d34     libucrt:locks.obj
 0002:00010d34       $unwind$__acrt_getptd_head 0000000140047d34     libucrt:per_thread_data.obj
 0002:00010d34       $unwind$__acrt_get_process_end_policy 0000000140047d34     libucrt:win_policies.obj
 0002:00010d34       $unwind$__acrt_AppPolicyGetProcessTerminationMethodInternal 0000000140047d34     libucrt:winapi_thunks.obj
 0002:00010d34       $unwind$__acrt_FlsAlloc    0000000140047d34     libucrt:winapi_thunks.obj
 0002:00010d34       $unwind$__acrt_FlsFree     0000000140047d34     libucrt:winapi_thunks.obj
 0002:00010d34       $unwind$__acrt_FlsGetValue 0000000140047d34     libucrt:winapi_thunks.obj
 0002:00010d34       $unwind$__acrt_IsValidLocaleName 0000000140047d34     libucrt:winapi_thunks.obj
 0002:00010d34       $unwind$__acrt_uninitialize_winapi_thunks 0000000140047d34     libucrt:winapi_thunks.obj
 0002:00010d34       $unwind$__acrt_update_locale_info 0000000140047d34     libucrt:locale_update.obj
 0002:00010d34       $unwind$__acrt_update_multibyte_info 0000000140047d34     libucrt:locale_update.obj
 0002:00010d34       $unwind$_configthreadlocale 0000000140047d34     libucrt:wsetlocale.obj
 0002:00010d34       $unwind$__acrt_allocate_buffer_for_argv 0000000140047d34     libucrt:argv_parsing.obj
 0002:00010d34       $unwind$?exit_or_terminate_process@@YAXI@Z 0000000140047d34     libucrt:exit.obj
 0002:00010d34       $unwind$?try_cor_exit_process@@YAXI@Z 0000000140047d34     libucrt:exit.obj
 0002:00010d34       $unwind$__acrt_uninitialize_stdio 0000000140047d34     libucrt:_file.obj
 0002:00010d34       $unwind$?stream_is_at_end_of_file_nolock@@YA_NV__crt_stdio_stream@@@Z 0000000140047d34     libucrt:_flsbuf.obj
 0002:00010d34       $unwind$__acrt_stdio_free_buffer_nolock 0000000140047d34     libucrt:_freebuf.obj
 0002:00010d34       $unwind$__acrt_should_use_temporary_buffer 0000000140047d34     libucrt:_sftbuf.obj
 0002:00010d34       $unwind$_fflush_nolock     0000000140047d34     libucrt:fflush.obj
 0002:00010d34       $unwind$?state_case_normal@?$output_processor@DV?$string_output_adapter@D@__crt_stdio_output@@V?$format_validation_base@DV?$string_output_adapter@D@__crt_stdio_output@@@2@@__crt_stdio_output@@AEAA_NXZ 0000000140047d34     libucrt:output.obj
 0002:00010d34       $unwind$?type_case_s@?$output_processor@DV?$string_output_adapter@D@__crt_stdio_output@@V?$format_validation_base@DV?$string_output_adapter@D@__crt_stdio_output@@@2@@__crt_stdio_output@@AEAA_NXZ 0000000140047d34     libucrt:output.obj
 0002:00010d34       $unwind$strcpy_s           0000000140047d34     libucrt:strcpy_s.obj
 0002:00010d34       $unwind$wcscat_s           0000000140047d34     libucrt:wcscat_s.obj
 0002:00010d34       $unwind$wcscpy_s           0000000140047d34     libucrt:wcscpy_s.obj
 0002:00010d34       $unwind$_clrfp             0000000140047d34     libucrt:fpctrl.obj
 0002:00010d34       $unwind$_set_statfp        0000000140047d34     libucrt:fpctrl.obj
 0002:00010d34       $unwind$_clearfp           0000000140047d34     libucrt:ieee.obj
 0002:00010d34       $unwind$_controlfp_s       0000000140047d34     libucrt:contrlfp.obj
 0002:00010d34       $unwind$fegetenv           0000000140047d34     libucrt:fegetenv.obj
 0002:00010d34       $unwind$feholdexcept       0000000140047d34     libucrt:feholdexcept.obj
 0002:00010d34       $unwind$fesetenv           0000000140047d34     libucrt:fesetenv.obj
 0002:00010d34       $unwind$?pre_c_initialization@@YAHXZ 0000000140047d34     LIBCMT:exe_main.obj
 0002:00010d34       $unwind$__raise_securityfailure 0000000140047d34     LIBCMT:gs_report.obj
 0002:00010d34       $unwind$??2@YAPEAX_K@Z     0000000140047d34     LIBCMT:new_scalar.obj
 0002:00010d34       $unwind$??_Gtype_info@@UEAAPEAXI@Z 0000000140047d34     LIBCMT:std_type_info_static.obj
 0002:00010d34       $unwind$__scrt_initialize_crt 0000000140047d34     LIBCMT:utility.obj
 0002:00010d34       $unwind$__scrt_initialize_onexit_tables 0000000140047d34     LIBCMT:utility.obj
 0002:00010d34       $unwind$__scrt_release_startup_lock 0000000140047d34     LIBCMT:utility.obj
 0002:00010d34       $unwind$__scrt_uninitialize_crt 0000000140047d34     LIBCMT:utility.obj
 0002:00010d34       $unwind$_onexit            0000000140047d34     LIBCMT:utility.obj
 0002:00010d34       $unwind$_Getctype          0000000140047d34     libcpmt:_tolower.obj
 0002:00010d34       $unwind$??_G?$codecvt@DDU_Mbstatet@@@std@@MEAAPEAXI@Z 0000000140047d34     libcpmt:cin.obj
 0002:00010d34       $unwind$??__Efin@std@@YAXXZ 0000000140047d34     libcpmt:cin.obj
 0002:00010d34       $unwind$?imbue@?$basic_filebuf@DU?$char_traits@D@std@@@std@@MEAAXAEBVlocale@2@@Z 0000000140047d34     libcpmt:cin.obj
 0002:00010d34       $unwind$?setbuf@?$basic_filebuf@DU?$char_traits@D@std@@@std@@MEAAPEAV?$basic_streambuf@DU?$char_traits@D@std@@@2@PEAD_J@Z 0000000140047d34     libcpmt:cin.obj
 0002:00010d34       $unwind$?uflow@?$basic_streambuf@DU?$char_traits@D@std@@@std@@MEAAHXZ 0000000140047d34     libcpmt:cin.obj
 0002:00010d34       $unwind$??__Efout@std@@YAXXZ 0000000140047d34     libcpmt:cout.obj
 0002:00010d34       $unwind$?_Addstd@ios_base@std@@SAXPEAV12@@Z 0000000140047d34     libcpmt:ios.obj
 0002:00010d34       $unwind$?_Ios_base_dtor@ios_base@std@@CAXPEAV12@@Z 0000000140047d34     libcpmt:ios.obj
 0002:00010d34       $unwind$??__F_Fac_tidy_reg@std@@YAXXZ 0000000140047d34     libcpmt:locale0.obj
 0002:00010d34       $unwind$?_Facet_Register@std@@YAXPEAV_Facet_base@1@@Z 0000000140047d34     libcpmt:locale0.obj
 0002:00010d34       $unwind$?_New_Locimp@_Locimp@locale@std@@CAPEAV123@_N@Z 0000000140047d34     libcpmt:locale0.obj
 0002:00010d34       $unwind$?_Setgloballocale@locale@std@@CAXPEAX@Z 0000000140047d34     libcpmt:locale0.obj
 0002:00010d34       $unwind$??0_Lockit@std@@QEAA@H@Z 0000000140047d34     libcpmt:xlock.obj
 0002:00010d34       $unwind$??1_Init_locks@std@@QEAA@XZ 0000000140047d34     libcpmt:xlock.obj
 0002:00010d34       $unwind$??0length_error@std@@QEAA@AEBV01@@Z 0000000140047d34     libcpmt:xthrow.obj
 0002:00010d34       $unwind$??0logic_error@std@@QEAA@AEBV01@@Z 0000000140047d34     libcpmt:xthrow.obj
 0002:00010d34       $unwind$??0out_of_range@std@@QEAA@AEBV01@@Z 0000000140047d34     libcpmt:xthrow.obj
 0002:00010d34       $unwind$_IsExceptionObjectToBeDestroyed 0000000140047d34     libvcruntime:ehhelpers.obj
 0002:00010d34       $unwind$?GetUnwindTryBlock@__FrameHandler3@@SAHPEA_KPEAU_xDISPATCHER_CONTEXT@@PEBU_s_FuncInfo@@@Z 0000000140047d34     libvcruntime:ehstate.obj
 0002:00010d34       $unwind$?StateFromIp@__FrameHandler3@@SAHPEBU_s_FuncInfo@@PEAU_xDISPATCHER_CONTEXT@@_K@Z 0000000140047d34     libvcruntime:ehstate.obj
 0002:00010d34       $unwind$??0HandlerMap4@FH4@@QEAA@PEBUTryBlockMapEntry4@1@_KH@Z 0000000140047d34     libvcruntime:frame.obj
 0002:00010d34       $unwind$??0bad_exception@std@@QEAA@AEBV01@@Z 0000000140047d34     libvcruntime:frame.obj
 0002:00010d34       $unwind$__vcrt_initialize_locks 0000000140047d34     libvcruntime:locks.obj
 0002:00010d34       $unwind$__vcrt_uninitialize_locks 0000000140047d34     libvcruntime:locks.obj
 0002:00010d34       $unwind$?ExecutionInCatch@__FrameHandler3@@SA_NPEAU_xDISPATCHER_CONTEXT@@PEBU_s_FuncInfo@@@Z 0000000140047d34     libvcruntime:risctrnsctrl.obj
 0002:00010d34       $unwind$_CreateFrameInfo   0000000140047d34     libvcruntime:risctrnsctrl.obj
 0002:00010d34       $unwind$_SetImageBase      0000000140047d34     libvcruntime:risctrnsctrl.obj
 0002:00010d34       $unwind$_SetThrowImageBase 0000000140047d34     libvcruntime:risctrnsctrl.obj
 0002:00010d34       $unwind$__std_exception_destroy 0000000140047d34     libvcruntime:std_exception.obj
 0002:00010d34       $unwind$__vcrt_FlsAlloc    0000000140047d34     libvcruntime:winapi_downlevel.obj
 0002:00010d34       $unwind$__vcrt_FlsFree     0000000140047d34     libvcruntime:winapi_downlevel.obj
 0002:00010d34       $unwind$__vcrt_FlsGetValue 0000000140047d34     libvcruntime:winapi_downlevel.obj
 0002:00010d3c       $unwind$??$common_initialize_environment_nolock@D@@YAHXZ 0000000140047d3c     libucrt:environment_initialization.obj
 0002:00010d3c       $unwind$islower            0000000140047d3c     libucrt:_ctype.obj
 0002:00010d3c       $unwind$isspace            0000000140047d3c     libucrt:_ctype.obj
 0002:00010d3c       $unwind$isupper            0000000140047d3c     libucrt:_ctype.obj
 0002:00010d3c       $unwind$_realloc_base      0000000140047d3c     libucrt:realloc_base.obj
 0002:00010d3c       $unwind$?replace_current_thread_locale_nolock@@YAXQEAU__acrt_ptd@@QEAU__crt_locale_data@@@Z 0000000140047d3c     libucrt:per_thread_data.obj
 0002:00010d3c       $unwind$__acrt_execute_uninitializers 0000000140047d3c     libucrt:shared_initialization.obj
 0002:00010d3c       $unwind$__acrt_FlsSetValue 0000000140047d3c     libucrt:winapi_thunks.obj
 0002:00010d3c       $unwind$__acrt_GetUserDefaultLocaleName 0000000140047d3c     libucrt:winapi_thunks.obj
 0002:00010d3c       $unwind$__acrt_LocaleNameToLCID 0000000140047d3c     libucrt:winapi_thunks.obj
 0002:00010d3c       $unwind$GetLocaleNameFromLangCountry 0000000140047d3c     libucrt:get_qualified_locale.obj
 0002:00010d3c       $unwind$GetLocaleNameFromLanguage 0000000140047d3c     libucrt:get_qualified_locale.obj
 0002:00010d3c       $unwind$GetLcidFromLangCountry 0000000140047d3c     libucrt:getqloc_downlevel.obj
 0002:00010d3c       $unwind$GetLcidFromLanguage 0000000140047d3c     libucrt:getqloc_downlevel.obj
 0002:00010d3c       $unwind$_updatetlocinfoEx_nolock 0000000140047d3c     libucrt:locale_refcounting.obj
 0002:00010d3c       $unwind$_close_nolock      0000000140047d3c     libucrt:close.obj
 0002:00010d3c       $unwind$__acrt_uninitialize_lowio 0000000140047d3c     libucrt:ioinit.obj
 0002:00010d3c       $unwind$__acrt_errno_map_os_error 0000000140047d3c     libucrt:errno.obj
 0002:00010d3c       $unwind$_initterm_e        0000000140047d3c     libucrt:initterm.obj
 0002:00010d3c       $unwind$__acrt_stdio_flush_and_write_narrow_nolock 0000000140047d3c     libucrt:_flsbuf.obj
 0002:00010d3c       $unwind$__acrt_stdio_allocate_buffer_nolock 0000000140047d3c     libucrt:_getbuf.obj
 0002:00010d3c       $unwind$__acrt_stdio_begin_temporary_buffering_nolock 0000000140047d3c     libucrt:_sftbuf.obj
 0002:00010d3c       $unwind$_fclose_nolock     0000000140047d3c     libucrt:fclose.obj
 0002:00010d3c       $unwind$fgetpos            0000000140047d3c     libucrt:fgetpos.obj
 0002:00010d3c       $unwind$?common_fseek_binary_mode_read_only_fast_track_nolock@@YA_NV__crt_stdio_stream@@_JH@Z 0000000140047d3c     libucrt:fseek.obj
 0002:00010d3c       $unwind$?type_case_n@?$output_processor@DV?$string_output_adapter@D@__crt_stdio_output@@V?$format_validation_base@DV?$string_output_adapter@D@__crt_stdio_output@@@2@@__crt_stdio_output@@AEAA_NXZ 0000000140047d3c     libucrt:output.obj
 0002:00010d3c       $unwind$_ungetc_nolock     0000000140047d3c     libucrt:ungetc.obj
 0002:00010d3c       $unwind$strncpy_s          0000000140047d3c     libucrt:strncpy_s.obj
 0002:00010d3c       $unwind$wcsncat_s          0000000140047d3c     libucrt:wcsncat_s.obj
 0002:00010d3c       $unwind$wcsncpy_s          0000000140047d3c     libucrt:wcsncpy_s.obj
 0002:00010d3c       $unwind$_RTC_Initialize    0000000140047d3c     LIBCMT:initsect.obj
 0002:00010d3c       $unwind$_RTC_Terminate     0000000140047d3c     LIBCMT:initsect.obj
 0002:00010d3c       $unwind$__scrt_unhandled_exception_filter 0000000140047d3c     LIBCMT:utility_desktop.obj
 0002:00010d3c       $unwind$??_G?$basic_filebuf@DU?$char_traits@D@std@@@std@@UEAAPEAXI@Z 0000000140047d3c     libcpmt:cin.obj
 0002:00010d3c       $unwind$?_Initcvt@?$basic_filebuf@DU?$char_traits@D@std@@@std@@IEAAXAEBV?$codecvt@DDU_Mbstatet@@@2@@Z 0000000140047d3c     libcpmt:cin.obj
 0002:00010d3c       $unwind$?close@?$basic_filebuf@DU?$char_traits@D@std@@@std@@QEAAPEAV12@XZ 0000000140047d3c     libcpmt:cin.obj
 0002:00010d3c       $unwind$?pbackfail@?$basic_filebuf@DU?$char_traits@D@std@@@std@@MEAAHH@Z 0000000140047d3c     libcpmt:cin.obj
 0002:00010d3c       $unwind$?sync@?$basic_filebuf@DU?$char_traits@D@std@@@std@@MEAAHXZ 0000000140047d3c     libcpmt:cin.obj
 0002:00010d3c       $unwind$?underflow@?$basic_filebuf@DU?$char_traits@D@std@@@std@@MEAAHXZ 0000000140047d3c     libcpmt:cin.obj
 0002:00010d3c       $unwind$??_G_Locimp@locale@std@@MEAAPEAXI@Z 0000000140047d3c     libcpmt:locale0.obj
 0002:00010d3c       $unwind$?_Locinfo_ctor@_Locinfo@std@@SAXPEAV12@PEBD@Z 0000000140047d3c     libcpmt:locale0.obj
 0002:00010d3c       $unwind$??0_Init_locks@std@@QEAA@XZ 0000000140047d3c     libcpmt:xlock.obj
 0002:00010d3c       $unwind$??_Glength_error@std@@UEAAPEAXI@Z 0000000140047d3c     libcpmt:xthrow.obj
 0002:00010d3c       $unwind$??_Glogic_error@std@@UEAAPEAXI@Z 0000000140047d3c     libcpmt:xthrow.obj
 0002:00010d3c       $unwind$??_Gout_of_range@std@@UEAAPEAXI@Z 0000000140047d3c     libcpmt:xthrow.obj
 0002:00010d3c       $unwind$_Getcvt            0000000140047d3c     libcpmt:xwctomb.obj
 0002:00010d3c       $unwind$__FrameUnwindFilter 0000000140047d3c     libvcruntime:ehhelpers.obj
 0002:00010d3c       $unwind$?SetUnwindTryBlock@__FrameHandler3@@SAXPEA_KPEAU_xDISPATCHER_CONTEXT@@PEBU_s_FuncInfo@@H@Z 0000000140047d3c     libvcruntime:ehstate.obj
 0002:00010d3c       $unwind$??_Gbad_exception@std@@UEAAPEAXI@Z 0000000140047d3c     libvcruntime:frame.obj
 0002:00010d3c       $unwind$?ExFilterRethrow@@YAHPEAU_EXCEPTION_POINTERS@@PEAUEHExceptionRecord@@PEAH@Z 0000000140047d3c     libvcruntime:frame.obj
 0002:00010d3c       $unwind$?ExFilterRethrowFH4@@YAHPEAU_EXCEPTION_POINTERS@@PEAUEHExceptionRecord@@HPEAH@Z 0000000140047d3c     libvcruntime:frame.obj
 0002:00010d3c       $unwind$__vcrt_getptd_noinit 0000000140047d3c     libvcruntime:per_thread_data.obj
 0002:00010d3c       $unwind$_FindAndUnlinkFrame 0000000140047d3c     libvcruntime:risctrnsctrl.obj
 0002:00010d3c       $unwind$__vcrt_FlsSetValue 0000000140047d3c     libvcruntime:winapi_downlevel.obj
 0002:00010d48       $unwind$?__mbrtowc_utf8@__crt_mbstring@@YA_KPEA_WPEBD_KPEAU_Mbstatet@@@Z 0000000140047d48     libucrt:mbrtowc.obj
 0002:00010d48       $unwind$??$common_xtox_s@K_W@@YAHKQEA_W_KI_N@Z 0000000140047d48     libucrt:xtoa.obj
 0002:00010d48       $unwind$?type_case_c_tchar@?$output_processor@DV?$string_output_adapter@D@__crt_stdio_output@@V?$format_validation_base@DV?$string_output_adapter@D@__crt_stdio_output@@@2@@__crt_stdio_output@@AEAA_ND@Z 0000000140047d48     libucrt:output.obj
 0002:00010d48       $unwind$__stdio_common_vsprintf_s 0000000140047d48     libucrt:output.obj
 0002:00010d48       $unwind$??0length_error@std@@QEAA@PEBD@Z 0000000140047d48     libcpmt:xthrow.obj
 0002:00010d48       $unwind$??0out_of_range@std@@QEAA@PEBD@Z 0000000140047d48     libcpmt:xthrow.obj
 0002:00010d48       $unwind$??0runtime_error@std@@QEAA@PEBD@Z 0000000140047d48     libcpmt:xthrow.obj
 0002:00010d50       $unwind$memcpy_s           0000000140047d50     libucrt:cfout.obj
 0002:00010d50       $unwind$??0_LocaleUpdate@@QEAA@QEAU__crt_locale_pointers@@@Z 0000000140047d50     libucrt:strtod.obj
 0002:00010d50       $unwind$memcpy_s           0000000140047d50     libucrt:strtod.obj
 0002:00010d50       $unwind$__acrt_getptd      0000000140047d50     libucrt:per_thread_data.obj
 0002:00010d50       $unwind$__acrt_getptd_noexit 0000000140047d50     libucrt:per_thread_data.obj
 0002:00010d50       $unwind$__acrt_execute_initializers 0000000140047d50     libucrt:shared_initialization.obj
 0002:00010d50       $unwind$__acrt_InitializeCriticalSectionEx 0000000140047d50     libucrt:winapi_thunks.obj
 0002:00010d50       $unwind$?free_crt_array_internal@@YAXQEAPEBX_K@Z 0000000140047d50     libucrt:inittime.obj
 0002:00010d50       $unwind$__acrt_locale_initialize_time 0000000140047d50     libucrt:inittime.obj
 0002:00010d50       $unwind$??$common_lseek_nolock@_J@@YA_JH_JH@Z 0000000140047d50     libucrt:lseek.obj
 0002:00010d50       $unwind$__acrt_stdio_flush_nolock 0000000140047d50     libucrt:fflush.obj
 0002:00010d50       $unwind$?common_fseek_nolock@@YAHV__crt_stdio_stream@@_JH@Z 0000000140047d50     libucrt:fseek.obj
 0002:00010d50       $unwind$??$common_ftell_nolock@_J@@YA_JV__crt_stdio_stream@@@Z 0000000140047d50     libucrt:ftell.obj
 0002:00010d50       $unwind$??R<lambda_5856287d7ecd2be6c9197bb4007c3f6e>@@QEBA_KXZ 0000000140047d50     libucrt:fwrite.obj
 0002:00010d50       $unwind$??R<lambda_b4f66040be5f354a654fb75160c27bfc>@@QEBAHXZ 0000000140047d50     libucrt:setvbuf.obj
 0002:00010d50       $unwind$_exception_enabled 0000000140047d50     libucrt:libm_error.obj
 0002:00010d50       $unwind$??_G?$basic_streambuf@DU?$char_traits@D@std@@@std@@UEAAPEAXI@Z 0000000140047d50     libcpmt:cin.obj
 0002:00010d50       $unwind$?_Erase_noexcept@?$basic_string@DU?$char_traits@D@std@@V?$allocator@D@2@@std@@AEAAAEAV12@_K_K@Z 0000000140047d50     libcpmt:cin.obj
 0002:00010d50       $unwind$??4?$_Yarn@D@std@@QEAAAEAV01@PEBD@Z 0000000140047d50     libcpmt:locale0.obj
 0002:00010d50       $unwind$__vcrt_getptd_noexit 0000000140047d50     libvcruntime:per_thread_data.obj
 0002:00010d50       $unwind$?FrameUnwindToEmptyState@__FrameHandler3@@SAXPEA_KPEAU_xDISPATCHER_CONTEXT@@PEBU_s_FuncInfo@@@Z 0000000140047d50     libvcruntime:risctrnsctrl.obj
 0002:00010d50       $unwind$__vcrt_InitializeCriticalSectionEx 0000000140047d50     libvcruntime:winapi_downlevel.obj
 0002:00010d60       $unwind$iswctype           0000000140047d60     libucrt:iswctype.obj
 0002:00010d60       $unwind$?_Locimp_dtor@_Locimp@locale@std@@CAXPEAV123@@Z 0000000140047d60     libcpmt:locale0.obj
 0002:00010d6c       $unwind$??0_Locimp@locale@std@@AEAA@_N@Z 0000000140047d6c     libcpmt:locale0.obj
 0002:00010d7c       $unwind$?_Init@locale@std@@CAPEAV_Locimp@12@_N@Z 0000000140047d7c     libcpmt:locale0.obj
 0002:00010d98       $cppxdata$?_Init@locale@std@@CAPEAV_Locimp@12@_N@Z 0000000140047d98     libcpmt:locale0.obj
 0002:00010da1       $stateUnwindMap$?_Init@locale@std@@CAPEAV_Locimp@12@_N@Z 0000000140047da1     libcpmt:locale0.obj
 0002:00010da8       $ip2state$?_Init@locale@std@@CAPEAV_Locimp@12@_N@Z 0000000140047da8     libcpmt:locale0.obj
 0002:00010db0       $unwind$_Tolower           0000000140047db0     libcpmt:_tolower.obj
 0002:00010dc0       $unwind$_Toupper           0000000140047dc0     libcpmt:_toupper.obj
 0002:00010dd4       $unwind$??R<lambda_22ebabd17bc4fa466a2aca6d8deb888d>@@QEBAHXZ 0000000140047dd4     libucrt:onexit.obj
 0002:00010dd4       $unwind$_Stolx             0000000140047dd4     libcpmt:xstol.obj
 0002:00010dec       $unwind$_Stoulx            0000000140047dec     libcpmt:xstoul.obj
 0002:00010e04       $unwind$_Stollx            0000000140047e04     libcpmt:xstoll.obj
 0002:00010e04       $unwind$?GetEstablisherFrame@__FrameHandler3@@SAPEA_KPEA_KPEAU_xDISPATCHER_CONTEXT@@PEBU_s_FuncInfo@@0@Z 0000000140047e04     libvcruntime:risctrnsctrl.obj
 0002:00010e1c       $unwind$_Stoullx           0000000140047e1c     libcpmt:xstoull.obj
 0002:00010e34       $unwind$?clear@ios_base@std@@QEAAXH@Z 0000000140047e34     libcpmt:cin.obj
 0002:00010e3c       $unwind$?_Init@ios_base@std@@IEAAXXZ 0000000140047e3c     libcpmt:cin.obj
 0002:00010e50       $cppxdata$?_Init@ios_base@std@@IEAAXXZ 0000000140047e50     libcpmt:cin.obj
 0002:00010e59       $stateUnwindMap$??0?$basic_streambuf@DU?$char_traits@D@std@@@std@@IEAA@XZ 0000000140047e59     libcpmt:cin.obj
 0002:00010e59       $stateUnwindMap$??1?$basic_ios@DU?$char_traits@D@std@@@std@@UEAA@XZ 0000000140047e59     libcpmt:cin.obj
 0002:00010e59       $stateUnwindMap$??_G?$basic_ios@DU?$char_traits@D@std@@@std@@UEAAPEAXI@Z 0000000140047e59     libcpmt:cin.obj
 0002:00010e59       $stateUnwindMap$??_G?$basic_istream@DU?$char_traits@D@std@@@std@@UEAAPEAXI@Z 0000000140047e59     libcpmt:cin.obj
 0002:00010e59       $stateUnwindMap$??_Gios_base@std@@UEAAPEAXI@Z 0000000140047e59     libcpmt:cin.obj
 0002:00010e59       $stateUnwindMap$??__Fcin@std@@YAXXZ 0000000140047e59     libcpmt:cin.obj
 0002:00010e59       $stateUnwindMap$?_Init@ios_base@std@@IEAAXXZ 0000000140047e59     libcpmt:cin.obj
 0002:00010e59       $stateUnwindMap$??_G?$basic_ostream@DU?$char_traits@D@std@@@std@@UEAAPEAXI@Z 0000000140047e59     libcpmt:cout.obj
 0002:00010e59       $stateUnwindMap$??__Fcout@std@@YAXXZ 0000000140047e59     libcpmt:cout.obj
 0002:00010e59       $stateUnwindMap$??__Finit_atexit@@YAXXZ 0000000140047e59     libcpmt:iosptrs.obj
 0002:00010e5f       $ip2state$?_Init@ios_base@std@@IEAAXXZ 0000000140047e5f     libcpmt:cin.obj
 0002:00010e68       $unwind$??_G?$basic_ios@DU?$char_traits@D@std@@@std@@UEAAPEAXI@Z 0000000140047e68     libcpmt:cin.obj
 0002:00010e68       $unwind$??_Gios_base@std@@UEAAPEAXI@Z 0000000140047e68     libcpmt:cin.obj
 0002:00010e7c       $cppxdata$??_G?$basic_ios@DU?$char_traits@D@std@@@std@@UEAAPEAXI@Z 0000000140047e7c     libcpmt:cin.obj
 0002:00010e7c       $cppxdata$??_Gios_base@std@@UEAAPEAXI@Z 0000000140047e7c     libcpmt:cin.obj
 0002:00010e85       $ip2state$??_G?$basic_ios@DU?$char_traits@D@std@@@std@@UEAAPEAXI@Z 0000000140047e85     libcpmt:cin.obj
 0002:00010e85       $ip2state$??_Gios_base@std@@UEAAPEAXI@Z 0000000140047e85     libcpmt:cin.obj
 0002:00010e88       $unwind$??0?$basic_streambuf@DU?$char_traits@D@std@@@std@@IEAA@XZ 0000000140047e88     libcpmt:cin.obj
 0002:00010e9c       $cppxdata$??0?$basic_streambuf@DU?$char_traits@D@std@@@std@@IEAA@XZ 0000000140047e9c     libcpmt:cin.obj
 0002:00010ea5       $ip2state$??0?$basic_streambuf@DU?$char_traits@D@std@@@std@@IEAA@XZ 0000000140047ea5     libcpmt:cin.obj
 0002:00010eac       $unwind$?should_round_up@@YA_NQEBN_KFW4__acrt_rounding_mode@@@Z 0000000140047eac     libucrt:cvt.obj
 0002:00010eac       $unwind$TranslateName      0000000140047eac     libucrt:get_qualified_locale.obj
 0002:00010eac       $unwind$??$parse_command_line@D@@YAXPEADPEAPEAD0PEA_K2@Z 0000000140047eac     libucrt:argv_parsing.obj
 0002:00010eac       $unwind$?xsgetn@?$basic_streambuf@DU?$char_traits@D@std@@@std@@MEAA_JPEAD_J@Z 0000000140047eac     libcpmt:cin.obj
 0002:00010eac       $unwind$?xsputn@?$basic_streambuf@DU?$char_traits@D@std@@@std@@MEAA_JPEBD_J@Z 0000000140047eac     libcpmt:cin.obj
 0002:00010ec8       $unwind$??1?$basic_filebuf@DU?$char_traits@D@std@@@std@@UEAA@XZ 0000000140047ec8     libcpmt:cin.obj
 0002:00010ed8       $cppxdata$??1?$basic_filebuf@DU?$char_traits@D@std@@@std@@UEAA@XZ 0000000140047ed8     libcpmt:cin.obj
 0002:00010edd       $ip2state$??1?$basic_filebuf@DU?$char_traits@D@std@@@std@@UEAA@XZ 0000000140047edd     libcpmt:cin.obj
 0002:00010ee0       $unwind$?overflow@?$basic_filebuf@DU?$char_traits@D@std@@@std@@MEAAHH@Z 0000000140047ee0     libcpmt:cin.obj
 0002:00010f00       $unwind$?uflow@?$basic_filebuf@DU?$char_traits@D@std@@@std@@MEAAHXZ 0000000140047f00     libcpmt:cin.obj
 0002:00010f24       $cppxdata$?uflow@?$basic_filebuf@DU?$char_traits@D@std@@@std@@MEAAHXZ 0000000140047f24     libcpmt:cin.obj
 0002:00010f2d       $stateUnwindMap$?uflow@?$basic_filebuf@DU?$char_traits@D@std@@@std@@MEAAHXZ 0000000140047f2d     libcpmt:cin.obj
 0002:00010f39       $ip2state$?uflow@?$basic_filebuf@DU?$char_traits@D@std@@@std@@MEAAHXZ 0000000140047f39     libcpmt:cin.obj
 0002:00010f40       $unwind$??$parse_floating_point_possible_nan@DV?$c_string_character_source@D@__crt_strtox@@PEBD@__crt_strtox@@YA?AW4floating_point_parse_result@0@AEADAEAV?$c_string_character_source@D@0@PEBD@Z 0000000140047f40     libucrt:strtod.obj
 0002:00010f40       $unwind$?initialize_stdio_handles_nolock@@YAXXZ 0000000140047f40     libucrt:ioinit.obj
 0002:00010f40       $unwind$__acrt_initialize_stdio 0000000140047f40     libucrt:_file.obj
 0002:00010f40       $unwind$?type_case_integer@?$output_processor@DV?$string_output_adapter@D@__crt_stdio_output@@V?$format_validation_base@DV?$string_output_adapter@D@__crt_stdio_output@@@2@@__crt_stdio_output@@AEAA_NI_N@Z 0000000140047f40     libucrt:output.obj
 0002:00010f40       $unwind$__GSHandlerCheck_EH 0000000140047f40     LIBCMT:gshandlereh.obj
 0002:00010f40       $unwind$__GSHandlerCheck_EH4 0000000140047f40     LIBCMT:gshandlereh4.obj
 0002:00010f40       $unwind$__GSHandlerCheck_SEH 0000000140047f40     LIBCMT:gshandlerseh.obj
 0002:00010f40       $unwind$?xsgetn@?$basic_filebuf@DU?$char_traits@D@std@@@std@@MEAA_JPEAD_J@Z 0000000140047f40     libcpmt:cin.obj
 0002:00010f40       $unwind$??$TypeMatchHelper@V__FrameHandler3@@@@YAHPEBU_s_HandlerType@@PEBU_s_CatchableType@@PEBU_s_ThrowInfo@@@Z 0000000140047f40     libvcruntime:frame.obj
 0002:00010f40       $unwind$??$TypeMatchHelper@V__FrameHandler4@@@@YAHPEAUHandlerType4@FH4@@PEBU_s_CatchableType@@PEBU_s_ThrowInfo@@@Z 0000000140047f40     libvcruntime:frame.obj
 0002:00010f58       $unwind$?xsputn@?$basic_filebuf@DU?$char_traits@D@std@@@std@@MEAA_JPEBD_J@Z 0000000140047f58     libcpmt:cin.obj
 0002:00010f70       $unwind$?parse_int_from_format_string@?$output_processor@DV?$string_output_adapter@D@__crt_stdio_output@@V?$format_validation_base@DV?$string_output_adapter@D@__crt_stdio_output@@@2@@__crt_stdio_output@@AEAA_NQEAH@Z 0000000140047f70     libucrt:output.obj
 0002:00010f70       $unwind$?seekoff@?$basic_filebuf@DU?$char_traits@D@std@@@std@@MEAA?AV?$fpos@U_Mbstatet@@@2@_JHH@Z 0000000140047f70     libcpmt:cin.obj
 0002:00010f84       $unwind$ProcessCodePage    0000000140047f84     libucrt:get_qualified_locale.obj
 0002:00010f84       $unwind$ProcessCodePage    0000000140047f84     libucrt:getqloc_downlevel.obj
 0002:00010f84       $unwind$TestDefaultLanguage 0000000140047f84     libucrt:getqloc_downlevel.obj
 0002:00010f84       $unwind$?seekpos@?$basic_filebuf@DU?$char_traits@D@std@@@std@@MEAA?AV?$fpos@U_Mbstatet@@@2@V32@H@Z 0000000140047f84     libcpmt:cin.obj
 0002:00010f94       $unwind$?_Init@?$basic_filebuf@DU?$char_traits@D@std@@@std@@IEAAXPEAU_iobuf@@W4_Initfl@12@@Z 0000000140047f94     libcpmt:cin.obj
 0002:00010fa0       $unwind$?_Endwrite@?$basic_filebuf@DU?$char_traits@D@std@@@std@@IEAA_NXZ 0000000140047fa0     libcpmt:cin.obj
 0002:00010fb4       $unwind$??1?$basic_ios@DU?$char_traits@D@std@@@std@@UEAA@XZ 0000000140047fb4     libcpmt:cin.obj
 0002:00010fc4       $cppxdata$??1?$basic_ios@DU?$char_traits@D@std@@@std@@UEAA@XZ 0000000140047fc4     libcpmt:cin.obj
 0002:00010fcd       $ip2state$??1?$basic_ios@DU?$char_traits@D@std@@@std@@UEAA@XZ 0000000140047fcd     libcpmt:cin.obj
 0002:00010fd0       $unwind$?widen@?$basic_ios@DU?$char_traits@D@std@@@std@@QEBADD@Z 0000000140047fd0     libcpmt:cin.obj
 0002:00010fe4       $cppxdata$?widen@?$basic_ios@DU?$char_traits@D@std@@@std@@QEBADD@Z 0000000140047fe4     libcpmt:cin.obj
 0002:00010fed       $stateUnwindMap$?widen@?$basic_ios@DU?$char_traits@D@std@@@std@@QEBADD@Z 0000000140047fed     libcpmt:cin.obj
 0002:00010ff4       $ip2state$?widen@?$basic_ios@DU?$char_traits@D@std@@@std@@QEBADD@Z 0000000140047ff4     libcpmt:cin.obj
 0002:00010ffc       $unwind$__acrt_CompareStringA 0000000140047ffc     libucrt:comparestringa.obj
 0002:00010ffc       $unwind$?init@?$basic_ios@DU?$char_traits@D@std@@@std@@IEAAXPEAV?$basic_streambuf@DU?$char_traits@D@std@@@2@_N@Z 0000000140047ffc     libcpmt:cin.obj
 0002:0001100c       $unwind$??0?$basic_istream@DU?$char_traits@D@std@@@std@@QEAA@PEAV?$basic_streambuf@DU?$char_traits@D@std@@@1@_N@Z 000000014004800c     libcpmt:cin.obj
 0002:0001101c       $cppxdata$??0?$basic_istream@DU?$char_traits@D@std@@@std@@QEAA@PEAV?$basic_streambuf@DU?$char_traits@D@std@@@1@_N@Z 000000014004801c     libcpmt:cin.obj
 0002:00011025       $stateUnwindMap$??0?$basic_istream@DU?$char_traits@D@std@@@std@@QEAA@PEAV?$basic_streambuf@DU?$char_traits@D@std@@@1@_N@Z 0000000140048025     libcpmt:cin.obj
 0002:0001102b       $ip2state$??0?$basic_istream@DU?$char_traits@D@std@@@std@@QEAA@PEAV?$basic_streambuf@DU?$char_traits@D@std@@@1@_N@Z 000000014004802b     libcpmt:cin.obj
 0002:00011030       $unwind$??_G?$basic_istream@DU?$char_traits@D@std@@@std@@UEAAPEAXI@Z 0000000140048030     libcpmt:cin.obj
 0002:00011030       $unwind$??_G?$basic_ostream@DU?$char_traits@D@std@@@std@@UEAAPEAXI@Z 0000000140048030     libcpmt:cout.obj
 0002:00011044       $cppxdata$??_G?$basic_istream@DU?$char_traits@D@std@@@std@@UEAAPEAXI@Z 0000000140048044     libcpmt:cin.obj
 0002:00011044       $cppxdata$??_G?$basic_ostream@DU?$char_traits@D@std@@@std@@UEAAPEAXI@Z 0000000140048044     libcpmt:cout.obj
 0002:0001104d       $ip2state$??_G?$basic_istream@DU?$char_traits@D@std@@@std@@UEAAPEAXI@Z 000000014004804d     libcpmt:cin.obj
 0002:0001104d       $ip2state$??_G?$basic_ostream@DU?$char_traits@D@std@@@std@@UEAAPEAXI@Z 000000014004804d     libcpmt:cout.obj
 0002:00011050       $unwind$??__Fcin@std@@YAXXZ 0000000140048050     libcpmt:cin.obj
 0002:00011050       $unwind$??__Fcout@std@@YAXXZ 0000000140048050     libcpmt:cout.obj
 0002:00011060       $cppxdata$??__Fcin@std@@YAXXZ 0000000140048060     libcpmt:cin.obj
 0002:00011060       $cppxdata$??__Fcout@std@@YAXXZ 0000000140048060     libcpmt:cout.obj
 0002:00011069       $ip2state$??__Fcin@std@@YAXXZ 0000000140048069     libcpmt:cin.obj
 0002:00011069       $ip2state$??__Fcout@std@@YAXXZ 0000000140048069     libcpmt:cout.obj
 0002:0001106c       $unwind$??$use_facet@V?$codecvt@DDU_Mbstatet@@@std@@@std@@YAAEBV?$codecvt@DDU_Mbstatet@@@0@AEBVlocale@0@@Z 000000014004806c     libcpmt:cin.obj
 0002:00011084       $cppxdata$??$use_facet@V?$codecvt@DDU_Mbstatet@@@std@@@std@@YAAEBV?$codecvt@DDU_Mbstatet@@@0@AEBVlocale@0@@Z 0000000140048084     libcpmt:cin.obj
 0002:0001108d       $stateUnwindMap$??$use_facet@V?$codecvt@DDU_Mbstatet@@@std@@@std@@YAAEBV?$codecvt@DDU_Mbstatet@@@0@AEBVlocale@0@@Z 000000014004808d     libcpmt:cin.obj
 0002:0001109a       $ip2state$??$use_facet@V?$codecvt@DDU_Mbstatet@@@std@@@std@@YAAEBV?$codecvt@DDU_Mbstatet@@@0@AEBVlocale@0@@Z 000000014004809a     libcpmt:cin.obj
